
opl.elf:     file format elf32-m68k


Disassembly of section .text.init:

00002000 <_init>:
    2000:	41fa fffe      	lea %pc@(2000 <_init>),%a0
    2004:	43f9 0000 2000 	lea 2000 <_init>,%a1
    200a:	203c 0000 20c4 	movel #8388,%d0
    2010:	9089           	subl %a1,%d0
    2012:	e488           	lsrl #2,%d0
    2014:	5380           	subql #1,%d0
    2016:	22d8           	movel %a0@+,%a1@+
    2018:	51c8 fffc      	dbf %d0,2016 <_init+0x16>
    201c:	4ef9 0000 2024 	jmp 2024 <_postinit>

Disassembly of section .text.postinit:

00002024 <_postinit>:
    2024:	203c 0001 ab48 	movel #109384,%d0
    202a:	9089           	subl %a1,%d0
    202c:	e488           	lsrl #2,%d0
    202e:	2200           	movel %d0,%d1
    2030:	4841           	swap %d1
    2032:	6002           	bras 2036 <_postinit+0x12>
    2034:	22d8           	movel %a0@+,%a1@+
    2036:	51c8 fffc      	dbf %d0,2034 <_postinit+0x10>
    203a:	51c9 fff8      	dbf %d1,2034 <_postinit+0x10>

0000203e <_start>:
    203e:	2e78 0414      	moveal 414 <SDB_MEMSIZE>,%sp
    2042:	23f8 0490 0001 	movel 490 <EFP_PROG_EXIT>,1ab50 <SAVE_PROG_EXIT>
    2048:	ab50 
    204a:	21fc 0000 2064 	movel #8292,490 <EFP_PROG_EXIT>
    2050:	0490 
    2052:	41f9 0000 327e 	lea 327e <__kinit>,%a0
    2058:	4e90           	jsr %a0@
    205a:	6124           	bsrs 2080 <CALL_CTORS>
    205c:	41f9 0000 216a 	lea 216a <kmain>,%a0
    2062:	4e90           	jsr %a0@
    2064:	21f9 0001 ab50 	movel 1ab50 <SAVE_PROG_EXIT>,490 <EFP_PROG_EXIT>
    206a:	0490 
    206c:	42a7           	clrl %sp@-
    206e:	41f9 0000 32aa 	lea 32aa <__cxa_finalize>,%a0
    2074:	4e90           	jsr %a0@
    2076:	588f           	addql #4,%sp
    2078:	6128           	bsrs 20a2 <CALL_DTORS>
    207a:	2078 0004      	moveal 4 <DUART_CRA>,%a0
    207e:	4ed0           	jmp %a0@

00002080 <CALL_CTORS>:
    2080:	48e7 0038      	moveml %a2-%a4,%sp@-
    2084:	45f9 0001 ab34 	lea 1ab34 <secData>,%a2
    208a:	47f9 0001 ab34 	lea 1ab34 <secData>,%a3
    2090:	598b           	subql #4,%a3
    2092:	b7ca           	cmpal %a2,%a3
    2094:	6506           	bcss 209c <CALL_CTORS+0x1c>
    2096:	2853           	moveal %a3@,%a4
    2098:	4e94           	jsr %a4@
    209a:	60f4           	bras 2090 <CALL_CTORS+0x10>
    209c:	4cdf 1c00      	moveml %sp@+,%a2-%a4
    20a0:	4e75           	rts

000020a2 <CALL_DTORS>:
    20a2:	48e7 0038      	moveml %a2-%a4,%sp@-
    20a6:	45f9 0001 ab34 	lea 1ab34 <secData>,%a2
    20ac:	47f9 0001 ab34 	lea 1ab34 <secData>,%a3
    20b2:	b5cb           	cmpal %a3,%a2
    20b4:	6708           	beqs 20be <CALL_DTORS+0x1c>
    20b6:	2852           	moveal %a2@,%a4
    20b8:	4e94           	jsr %a4@
    20ba:	588a           	addql #4,%a2
    20bc:	60f4           	bras 20b2 <CALL_DTORS+0x10>
    20be:	4cdf 1c00      	moveml %sp@+,%a2-%a4
    20c2:	4e75           	rts

Disassembly of section .text:

000020c4 <writeReg>:
  for(long i=0;i<20;i++){
    readStatus();
  }

}
uint8_t writeReg(uint16_t reg, uint8_t data){
    20c4:	598f           	subql #4,%sp
    20c6:	2f02           	movel %d2,%sp@-
    20c8:	202f 000c      	movel %sp@(12),%d0
    20cc:	222f 0010      	movel %sp@(16),%d1
    volatile uint8_t status;

  if(reg&0xff00){
    20d0:	0c40 00ff      	cmpiw #255,%d0
    20d4:	634a           	blss 2120 <writeReg+0x5c>
    *secInd = (uint8_t)reg;
    20d6:	2079 0001 ab38 	moveal 1ab38 <secInd>,%a0
    20dc:	1080           	moveb %d0,%a0@
  return *primInd;
    20de:	2079 0001 ab40 	moveal 1ab40 <primInd>,%a0
    20e4:	1410           	moveb %a0@,%d2
      status += readStatus();
    20e6:	102f 0007      	moveb %sp@(7),%d0
    20ea:	d002           	addb %d2,%d0
    20ec:	1f40 0007      	moveb %d0,%sp@(7)
    *secData = data;
    20f0:	2079 0001 ab34 	moveal 1ab34 <secData>,%a0
    20f6:	1081           	moveb %d1,%a0@
  return *primInd;
    20f8:	2079 0001 ab40 	moveal 1ab40 <primInd>,%a0
    20fe:	1210           	moveb %a0@,%d1
  }else{
    *primInd = (uint8_t)reg;
      status += readStatus();
    *primData = data;
  }
  status += readStatus();
    2100:	102f 0007      	moveb %sp@(7),%d0
    2104:	d001           	addb %d1,%d0
    2106:	1f40 0007      	moveb %d0,%sp@(7)
  return *primInd;
    210a:	1210           	moveb %a0@,%d1
  status += readStatus();
    210c:	102f 0007      	moveb %sp@(7),%d0
    2110:	d001           	addb %d1,%d0
    2112:	1f40 0007      	moveb %d0,%sp@(7)


  return status;
    2116:	102f 0007      	moveb %sp@(7),%d0
}
    211a:	241f           	movel %sp@+,%d2
    211c:	588f           	addql #4,%sp
    211e:	4e75           	rts
    *primInd = (uint8_t)reg;
    2120:	2079 0001 ab40 	moveal 1ab40 <primInd>,%a0
    2126:	1080           	moveb %d0,%a0@
  return *primInd;
    2128:	2079 0001 ab40 	moveal 1ab40 <primInd>,%a0
    212e:	1410           	moveb %a0@,%d2
      status += readStatus();
    2130:	102f 0007      	moveb %sp@(7),%d0
    2134:	d002           	addb %d2,%d0
    2136:	1f40 0007      	moveb %d0,%sp@(7)
    *primData = data;
    213a:	2079 0001 ab3c 	moveal 1ab3c <primData>,%a0
    2140:	1081           	moveb %d1,%a0@
  return *primInd;
    2142:	2079 0001 ab40 	moveal 1ab40 <primInd>,%a0
    2148:	1210           	moveb %a0@,%d1
  status += readStatus();
    214a:	102f 0007      	moveb %sp@(7),%d0
    214e:	d001           	addb %d1,%d0
    2150:	1f40 0007      	moveb %d0,%sp@(7)
  return *primInd;
    2154:	1210           	moveb %a0@,%d1
  status += readStatus();
    2156:	102f 0007      	moveb %sp@(7),%d0
    215a:	d001           	addb %d1,%d0
    215c:	1f40 0007      	moveb %d0,%sp@(7)
  return status;
    2160:	102f 0007      	moveb %sp@(7),%d0
}
    2164:	241f           	movel %sp@+,%d2
    2166:	588f           	addql #4,%sp
    2168:	4e75           	rts

0000216a <kmain>:

	chan = ch[channel];
    writeReg(regbase + chan, value);
}

void kmain() {
    216a:	48e7 3c3e      	moveml %d2-%d5/%a2-%fp,%sp@-



  printf("Testing for OPL3\r\n");
    216e:	4879 0000 33ca 	pea 33ca <__mulsi3+0x22>
    2174:	4bf9 0000 3202 	lea 3202 <printf_>,%a5
    217a:	4e95           	jsr %a5@
  writeReg(0x4,0x60);
    217c:	4878 0060      	pea 60 <R_STOPCNTCMD+0x42>
    2180:	4878 0004      	pea 4 <DUART_CRA>
    2184:	45f9 0000 20c4 	lea 20c4 <writeReg>,%a2
    218a:	4e92           	jsr %a2@
  writeReg(0x4,0x80);
    218c:	4878 0080      	pea 80 <R_STOPCNTCMD+0x62>
    2190:	4878 0004      	pea 4 <DUART_CRA>
    2194:	4e92           	jsr %a2@
  return *primInd;
    2196:	2079 0001 ab40 	moveal 1ab40 <primInd>,%a0
    219c:	1410           	moveb %a0@,%d2
  //delayLoop();
  int8_t status = readStatus();
  writeReg(0x2,0xff);
    219e:	4878 00ff      	pea ff <R_STOPCNTCMD+0xe1>
    21a2:	4878 0002      	pea 2 <DUART_CSRA>
    21a6:	4e92           	jsr %a2@
  writeReg(0x4,0x21);
    21a8:	4878 0021      	pea 21 <R_STOPCNTCMD+0x3>
    21ac:	4878 0004      	pea 4 <DUART_CRA>
    21b0:	4e92           	jsr %a2@

  for(int i=0;i<10000;i++){
    uint8_t status2 = *primInd;
    21b2:	2079 0001 ab40 	moveal 1ab40 <primInd>,%a0
    21b8:	4fef 0024      	lea %sp@(36),%sp
    21bc:	203c 0000 2710 	movel #10000,%d0
    21c2:	1210           	moveb %a0@,%d1
    if(status ==0 && (status2&0xe0)==0xc0){
    21c4:	4a02           	tstb %d2
    21c6:	677e           	beqs 2246 <kmain+0xdc>
  for(int i=0;i<10000;i++){
    21c8:	5380           	subql #1,%d0
    21ca:	66f6           	bnes 21c2 <kmain+0x58>
    uint8_t status2 = *primInd;
    21cc:	4205           	clrb %d5
    21ce:	4243           	clrw %d3
    21d0:	7800           	moveq #0,%d4
    21d2:	267c 0000 223a 	moveal #8762,%a3
    21d8:	4df9 0000 3405 	lea 3405 <noHeader>,%fp
    21de:	287c 0000 22e6 	moveal #8934,%a4
  writeReg(0x4,0x60);
    21e4:	4878 0060      	pea 60 <R_STOPCNTCMD+0x42>
    21e8:	4878 0004      	pea 4 <DUART_CRA>
    21ec:	4e92           	jsr %a2@
  writeReg(0x4,0x80);
    21ee:	4878 0080      	pea 80 <R_STOPCNTCMD+0x62>
    21f2:	4878 0004      	pea 4 <DUART_CRA>
    21f6:	4e92           	jsr %a2@
  writeReg(0x2,0xfe);
    21f8:	4878 00fe      	pea fe <R_STOPCNTCMD+0xe0>
    21fc:	4878 0002      	pea 2 <DUART_CSRA>
    2200:	4e92           	jsr %a2@
  writeReg(0x4,0x21);
    2202:	4878 0021      	pea 21 <R_STOPCNTCMD+0x3>
    2206:	4878 0004      	pea 4 <DUART_CRA>
    220a:	4e92           	jsr %a2@
    220c:	4fef 0020      	lea %sp@(32),%sp
  uint16_t samplesToDelay=0;;

  uint8_t state =0; // 0 - looking for command 1 - 5E aa dd (port 0) 2 5F aa dd port(1)
  while(1){
    startTImer();
 for(long pointer =0; pointer<96159;pointer++){
    2210:	7400           	moveq #0,%d2
    2212:	2079 0001 ab40 	moveal 1ab40 <primInd>,%a0
  return *primInd;
    2218:	7014           	moveq #20,%d0
    221a:	1210           	moveb %a0@,%d1
  for(long i=0;i<20;i++){
    221c:	5380           	subql #1,%d0
    221e:	66fa           	bnes 221a <kmain+0xb0>
      delayLoop();
   if(samplesToDelay>0){
    2220:	4a43           	tstw %d3
    2222:	6600 014e      	bnew 2372 <kmain+0x208>
     samplesToDelay--;
     pointer--;
     continue;
  }
   switch(state){
    2226:	0c05 0005      	cmpib #5,%d5
    222a:	6200 014e      	bhiw 237a <kmain+0x210>
    222e:	2004           	movel %d4,%d0
    2230:	d080           	addl %d0,%d0
    2232:	3033 0800      	movew %a3@(0,%d0:l),%d0
    2236:	4efb 0002      	jmp %pc@(223a <kmain+0xd0>,%d0:w)
    223a:	008a           	.short 0x008a
    223c:	004e           	.short 0x004e
    223e:	00d8           	.short 0x00d8
    2240:	00c0           	.short 0x00c0
    2242:	004e           	.short 0x004e
    2244:	007c 0201      	oriw #513,%sr
    if(status ==0 && (status2&0xe0)==0xc0){
    2248:	ffe0           	.short 0xffe0
    224a:	0c01 ffc0      	cmpib #-64,%d1
    224e:	6712           	beqs 2262 <kmain+0xf8>
  for(int i=0;i<10000;i++){
    2250:	5380           	subql #1,%d0
    2252:	6700 ff78      	beqw 21cc <kmain+0x62>
    uint8_t status2 = *primInd;
    2256:	1210           	moveb %a0@,%d1
    if(status ==0 && (status2&0xe0)==0xc0){
    2258:	0201 ffe0      	andib #-32,%d1
    225c:	0c01 ffc0      	cmpib #-64,%d1
    2260:	66ee           	bnes 2250 <kmain+0xe6>
      printf("OPL3 detected!\r\n");
    2262:	4879 0000 33dd 	pea 33dd <__mulsi3+0x35>
    2268:	4e95           	jsr %a5@
      break;
    226a:	588f           	addql #4,%sp
    uint8_t status2 = *primInd;
    226c:	4205           	clrb %d5
    226e:	4243           	clrw %d3
    2270:	7800           	moveq #0,%d4
    2272:	267c 0000 223a 	moveal #8762,%a3
    2278:	4df9 0000 3405 	lea 3405 <noHeader>,%fp
    227e:	287c 0000 22e6 	moveal #8934,%a4
    2284:	6000 ff5e      	braw 21e4 <kmain+0x7a>
       break;
     case 4:
       reg = noHeader[pointer];
        pointer++;
         data = noHeader[pointer];
        writeReg(reg,data);
    2288:	7000           	moveq #0,%d0
    228a:	1036 2801      	moveb %fp@(1,%d2:l),%d0
    228e:	2f00           	movel %d0,%sp@-
    2290:	1036 2800      	moveb %fp@(0,%d2:l),%d0
       writeReg(reg,data);
    2294:	2f00           	movel %d0,%sp@-
    2296:	4e92           	jsr %a2@
 for(long pointer =0; pointer<96159;pointer++){
    2298:	5482           	addql #2,%d2
       break;
    229a:	508f           	addql #8,%sp
       state = 0;
    229c:	4205           	clrb %d5
    229e:	7800           	moveq #0,%d4
 for(long pointer =0; pointer<96159;pointer++){
    22a0:	0c82 0001 779e 	cmpil #96158,%d2
    22a6:	6e00 ff3c      	bgtw 21e4 <kmain+0x7a>
    22aa:	2079 0001 ab40 	moveal 1ab40 <primInd>,%a0
  return *primInd;
    22b0:	7014           	moveq #20,%d0
    22b2:	6000 ff66      	braw 221a <kmain+0xb0>
   switch(state){
    22b6:	4205           	clrb %d5
    22b8:	363c 0372      	movew #882,%d3
    22bc:	7800           	moveq #0,%d4
  return *primInd;
    22be:	7014           	moveq #20,%d0
    22c0:	6000 ff58      	braw 221a <kmain+0xb0>
        if(noHeader[pointer]==0x5e)
    22c4:	1236 2800      	moveb %fp@(0,%d2:l),%d1
        pointer++;
    22c8:	5282           	addql #1,%d2
    22ca:	1001           	moveb %d1,%d0
    22cc:	0600 ffa6      	addib #-90,%d0
    22d0:	0c00 0009      	cmpib #9,%d0
    22d4:	625e           	bhis 2334 <kmain+0x1ca>
    22d6:	0280 0000 00ff 	andil #255,%d0
    22dc:	d080           	addl %d0,%d0
    22de:	3034 0800      	movew %a4@(0,%d0:l),%d0
    22e2:	4efb 0002      	jmp %pc@(22e6 <kmain+0x17c>,%d0:w)
    22e6:	0064 004e      	oriw #78,%a4@-
    22ea:	004e           	.short 0x004e
    22ec:	004e           	.short 0x004e
    22ee:	0084 007c 004e 	oril #8126542,%d4
    22f4:	0074 004e 006c 	oriw #78,%a4@(6c,%d0:w)
       samplesToDelay = (samplesToDelay)|noHeader[pointer]<<8;
    22fa:	4243           	clrw %d3
    22fc:	1636 2801      	moveb %fp@(1,%d2:l),%d3
    2300:	e14b           	lslw #8,%d3
    2302:	4240           	clrw %d0
    2304:	1036 2800      	moveb %fp@(0,%d2:l),%d0
    2308:	8640           	orw %d0,%d3
 for(long pointer =0; pointer<96159;pointer++){
    230a:	5482           	addql #2,%d2
       state=0;
    230c:	4205           	clrb %d5
    230e:	7800           	moveq #0,%d4
       break;
    2310:	608e           	bras 22a0 <kmain+0x136>
       writeReg(reg,data);
    2312:	7000           	moveq #0,%d0
    2314:	1036 2801      	moveb %fp@(1,%d2:l),%d0
    2318:	2f00           	movel %d0,%sp@-
    231a:	203c 0000 0100 	movel #256,%d0
    2320:	8036 2800      	orb %fp@(0,%d2:l),%d0
    2324:	2f00           	movel %d0,%sp@-
    2326:	4e92           	jsr %a2@
 for(long pointer =0; pointer<96159;pointer++){
    2328:	5482           	addql #2,%d2
       break;
    232a:	508f           	addql #8,%sp
       state = 0;
    232c:	4205           	clrb %d5
    232e:	7800           	moveq #0,%d4
    2330:	6000 ff6e      	braw 22a0 <kmain+0x136>
          printf("Undefined opcode: %x\r\n",noHeader[pointer]);
    2334:	0281 0000 00ff 	andil #255,%d1
    233a:	2f01           	movel %d1,%sp@-
    233c:	4879 0000 33ee 	pea 33ee <__mulsi3+0x46>
    2342:	4e95           	jsr %a5@
    2344:	508f           	addql #8,%sp
    2346:	6000 ff58      	braw 22a0 <kmain+0x136>
        pointer++;
    234a:	7a04           	moveq #4,%d5
    234c:	7804           	moveq #4,%d4
    234e:	6000 ff50      	braw 22a0 <kmain+0x136>
    2352:	7a05           	moveq #5,%d5
    2354:	7805           	moveq #5,%d4
    2356:	6000 ff48      	braw 22a0 <kmain+0x136>
    235a:	7a03           	moveq #3,%d5
    235c:	7803           	moveq #3,%d4
    235e:	6000 ff40      	braw 22a0 <kmain+0x136>
    2362:	7a02           	moveq #2,%d5
    2364:	7802           	moveq #2,%d4
    2366:	6000 ff38      	braw 22a0 <kmain+0x136>
    236a:	7a01           	moveq #1,%d5
    236c:	7801           	moveq #1,%d4
    236e:	6000 ff30      	braw 22a0 <kmain+0x136>
     samplesToDelay--;
    2372:	5343           	subqw #1,%d3
  return *primInd;
    2374:	7014           	moveq #20,%d0
    2376:	6000 fea2      	braw 221a <kmain+0xb0>
        pointer++;
    237a:	5282           	addql #1,%d2
    237c:	6000 ff22      	braw 22a0 <kmain+0x136>

00002380 <_out_null>:

// internal null output
static inline void _out_null(char character, void* buffer, size_t idx, size_t maxlen)
{
  (void)character; (void)buffer; (void)idx; (void)maxlen;
}
    2380:	4e75           	rts

00002382 <_ntoa_long>:
}


// internal itoa for 'long' type
static size_t _ntoa_long(out_fct_type out, char* buffer, size_t idx, size_t maxlen, unsigned long value, bool negative, unsigned long base, unsigned int prec, unsigned int width, unsigned int flags)
{
    2382:	4fef ffcc      	lea %sp@(-52),%sp
    2386:	48e7 3f3e      	moveml %d2-%d7/%a2-%fp,%sp@-
    238a:	246f 0064      	moveal %sp@(100),%a2
    238e:	2a2f 0068      	movel %sp@(104),%d5
    2392:	2c2f 0070      	movel %sp@(112),%d6
    2396:	242f 0074      	movel %sp@(116),%d2
    239a:	262f 007c      	movel %sp@(124),%d3
    239e:	2e2f 0084      	movel %sp@(132),%d7
    23a2:	1f6f 007b 003f 	moveb %sp@(123),%sp@(63)
  if (!value) {
    flags &= ~FLAGS_HASH;
  }

  // write if precision != 0 and value is != 0
  if (!(flags & FLAGS_PRECISION) || value) {
    23a8:	222f 0088      	movel %sp@(136),%d1
    23ac:	0281 0000 0400 	andil #1024,%d1
    23b2:	2f41 0032      	movel %d1,%sp@(50)
  if (!value) {
    23b6:	4a82           	tstl %d2
    23b8:	6700 0174      	beqw 252e <_ntoa_long+0x1ac>
  if (flags & FLAGS_HASH) {
    23bc:	7210           	moveq #16,%d1
    23be:	c2af 0088      	andl %sp@(136),%d1
    23c2:	2f41 0036      	movel %d1,%sp@(54)
    23c6:	082f 0005 008b 	btst #5,%sp@(139)
    23cc:	6600 017e      	bnew 254c <_ntoa_long+0x1ca>
    23d0:	7061           	moveq #97,%d0
    23d2:	41ef 0040      	lea %sp@(64),%a0
    23d6:	2f48 002e      	movel %a0,%sp@(46)
    23da:	4def 0060      	lea %sp@(96),%fp
    do {
      const char digit = (char)(value % base);
      buf[len++] = digit < 10 ? '0' + digit : (flags & FLAGS_UPPERCASE ? 'A' : 'a') + digit - 10;
    23de:	2808           	movel %a0,%d4
    23e0:	49f9 0000 3378 	lea 3378 <__umodsi3>,%a4
    23e6:	47f9 0000 331c 	lea 331c <__udivsi3>,%a3
    23ec:	1200           	moveb %d0,%d1
    23ee:	0601 fff6      	addib #-10,%d1
    23f2:	2f4a 003a      	movel %a2,%sp@(58)
    23f6:	2a45           	moveal %d5,%a5
    23f8:	1a01           	moveb %d1,%d5
      const char digit = (char)(value % base);
    23fa:	2f03           	movel %d3,%sp@-
    23fc:	2f02           	movel %d2,%sp@-
    23fe:	4e94           	jsr %a4@
    2400:	508f           	addql #8,%sp
      buf[len++] = digit < 10 ? '0' + digit : (flags & FLAGS_UPPERCASE ? 'A' : 'a') + digit - 10;
    2402:	7209           	moveq #9,%d1
    2404:	b280           	cmpl %d0,%d1
    2406:	652a           	bcss 2432 <_ntoa_long+0xb0>
    2408:	0600 0030      	addib #48,%d0
    240c:	2444           	moveal %d4,%a2
    240e:	14c0           	moveb %d0,%a2@+
      value /= base;
    2410:	2f03           	movel %d3,%sp@-
    2412:	2f02           	movel %d2,%sp@-
    2414:	4e93           	jsr %a3@
    2416:	508f           	addql #8,%sp
    } while (value && (len < PRINTF_NTOA_BUFFER_SIZE));
    2418:	b682           	cmpl %d2,%d3
    241a:	6228           	bhis 2444 <_ntoa_long+0xc2>
    241c:	bdca           	cmpal %a2,%fp
    241e:	6724           	beqs 2444 <_ntoa_long+0xc2>
    2420:	280a           	movel %a2,%d4
      value /= base;
    2422:	2400           	movel %d0,%d2
      const char digit = (char)(value % base);
    2424:	2f03           	movel %d3,%sp@-
    2426:	2f02           	movel %d2,%sp@-
    2428:	4e94           	jsr %a4@
    242a:	508f           	addql #8,%sp
      buf[len++] = digit < 10 ? '0' + digit : (flags & FLAGS_UPPERCASE ? 'A' : 'a') + digit - 10;
    242c:	7209           	moveq #9,%d1
    242e:	b280           	cmpl %d0,%d1
    2430:	64d6           	bccs 2408 <_ntoa_long+0x86>
    2432:	d005           	addb %d5,%d0
    2434:	2444           	moveal %d4,%a2
    2436:	14c0           	moveb %d0,%a2@+
      value /= base;
    2438:	2f03           	movel %d3,%sp@-
    243a:	2f02           	movel %d2,%sp@-
    243c:	4e93           	jsr %a3@
    243e:	508f           	addql #8,%sp
    } while (value && (len < PRINTF_NTOA_BUFFER_SIZE));
    2440:	b682           	cmpl %d2,%d3
    2442:	63d8           	blss 241c <_ntoa_long+0x9a>
      buf[len++] = digit < 10 ? '0' + digit : (flags & FLAGS_UPPERCASE ? 'A' : 'a') + digit - 10;
    2444:	246f 003a      	moveal %sp@(58),%a2
    2448:	2a0d           	movel %a5,%d5
    244a:	307c 0001      	moveaw #1,%a0
    244e:	91ef 002e      	subal %sp@(46),%a0
    2452:	d888           	addl %a0,%d4
  if (!(flags & FLAGS_LEFT)) {
    2454:	082f 0001 008b 	btst #1,%sp@(139)
    245a:	6700 013e      	beqw 259a <_ntoa_long+0x218>
    245e:	3c7c 0002      	moveaw #2,%fp
  if (flags & FLAGS_HASH) {
    2462:	4aaf 0036      	tstl %sp@(54)
    2466:	6700 023c      	beqw 26a4 <_ntoa_long+0x322>
    if (!(flags & FLAGS_PRECISION) && len && ((len == prec) || (len == width))) {
    246a:	4aaf 0032      	tstl %sp@(50)
    246e:	6600 01aa      	bnew 261a <_ntoa_long+0x298>
    2472:	4a84           	tstl %d4
    2474:	6600 0324      	bnew 279a <_ntoa_long+0x418>
    if ((base == 16U) && !(flags & FLAGS_UPPERCASE) && (len < PRINTF_NTOA_BUFFER_SIZE)) {
    2478:	7010           	moveq #16,%d0
    247a:	b083           	cmpl %d3,%d0
    247c:	6700 0412      	beqw 2890 <_ntoa_long+0x50e>
    else if ((base == 2U) && (len < PRINTF_NTOA_BUFFER_SIZE)) {
    2480:	5583           	subql #2,%d3
    2482:	6700 04b0      	beqw 2934 <_ntoa_long+0x5b2>
      buf[len++] = '0';
    2486:	1f7c 0030 0040 	moveb #48,%sp@(64)
    248c:	202f 0088      	movel %sp@(136),%d0
    2490:	7401           	moveq #1,%d2
  if (!(flags & FLAGS_LEFT) && !(flags & FLAGS_ZEROPAD)) {
    2492:	7203           	moveq #3,%d1
    2494:	c280           	andl %d0,%d1
      buf[len++] = '-';
    2496:	2802           	movel %d2,%d4
    if (negative) {
    2498:	4a2f 003f      	tstb %sp@(63)
    249c:	6700 02dc      	beqw 277a <_ntoa_long+0x3f8>
      buf[len++] = '-';
    24a0:	5284           	addql #1,%d4
    24a2:	1fbc 002d 2840 	moveb #45,%sp@(40,%d2:l)
  if (!(flags & FLAGS_LEFT) && !(flags & FLAGS_ZEROPAD)) {
    24a8:	4a81           	tstl %d1
    24aa:	6600 0194      	bnew 2640 <_ntoa_long+0x2be>
    for (size_t i = len; i < width; i++) {
    24ae:	b887           	cmpl %d7,%d4
    24b0:	6400 018e      	bccw 2640 <_ntoa_long+0x2be>
    24b4:	242f 006c      	movel %sp@(108),%d2
    24b8:	2604           	movel %d4,%d3
    24ba:	9682           	subl %d2,%d3
      out(' ', buffer, idx++, maxlen);
    24bc:	2002           	movel %d2,%d0
    24be:	5282           	addql #1,%d2
    24c0:	2f06           	movel %d6,%sp@-
    24c2:	2f00           	movel %d0,%sp@-
    24c4:	2f05           	movel %d5,%sp@-
    24c6:	4878 0020      	pea 20 <R_STOPCNTCMD+0x2>
    24ca:	4e92           	jsr %a2@
    for (size_t i = len; i < width; i++) {
    24cc:	2003           	movel %d3,%d0
    24ce:	d082           	addl %d2,%d0
    24d0:	4fef 0010      	lea %sp@(16),%sp
    24d4:	be80           	cmpl %d0,%d7
    24d6:	62e4           	bhis 24bc <_ntoa_long+0x13a>
    24d8:	2004           	movel %d4,%d0
    24da:	5280           	addql #1,%d0
    24dc:	be80           	cmpl %d0,%d7
    24de:	6500 033e      	bcsw 281e <_ntoa_long+0x49c>
    24e2:	2047           	moveal %d7,%a0
    24e4:	5388           	subql #1,%a0
    24e6:	91c4           	subal %d4,%a0
    24e8:	226f 006c      	moveal %sp@(108),%a1
    24ec:	43f1 8801      	lea %a1@(1,%a0:l),%a1
    24f0:	2609           	movel %a1,%d3
  while (len) {
    24f2:	4a84           	tstl %d4
    24f4:	6600 014e      	bnew 2644 <_ntoa_long+0x2c2>
    24f8:	2403           	movel %d3,%d2
  if (flags & FLAGS_LEFT) {
    24fa:	bcfc 0000      	cmpaw #0,%fp
    24fe:	6722           	beqs 2522 <_ntoa_long+0x1a0>
    while (idx - start_idx < width) {
    2500:	2602           	movel %d2,%d3
    2502:	96af 006c      	subl %sp@(108),%d3
    2506:	be83           	cmpl %d3,%d7
    2508:	6318           	blss 2522 <_ntoa_long+0x1a0>
      out(' ', buffer, idx++, maxlen);
    250a:	2f06           	movel %d6,%sp@-
    250c:	2f02           	movel %d2,%sp@-
    250e:	5282           	addql #1,%d2
    2510:	2f05           	movel %d5,%sp@-
    2512:	4878 0020      	pea 20 <R_STOPCNTCMD+0x2>
    2516:	4e92           	jsr %a2@
    while (idx - start_idx < width) {
    2518:	5283           	addql #1,%d3
    251a:	4fef 0010      	lea %sp@(16),%sp
    251e:	be83           	cmpl %d3,%d7
    2520:	62e8           	bhis 250a <_ntoa_long+0x188>
  }

  return _ntoa_format(out, buffer, idx, maxlen, buf, len, negative, (unsigned int)base, prec, width, flags);
}
    2522:	2002           	movel %d2,%d0
    2524:	4cdf 7cfc      	moveml %sp@+,%d2-%d7/%a2-%fp
    2528:	4fef 0034      	lea %sp@(52),%sp
    252c:	4e75           	rts
    flags &= ~FLAGS_HASH;
    252e:	70ef           	moveq #-17,%d0
    2530:	c0af 0088      	andl %sp@(136),%d0
  if (!(flags & FLAGS_PRECISION) || value) {
    2534:	4aaf 0032      	tstl %sp@(50)
    2538:	6640           	bnes 257a <_ntoa_long+0x1f8>
    253a:	42af 0036      	clrl %sp@(54)
    flags &= ~FLAGS_HASH;
    253e:	2f40 0088      	movel %d0,%sp@(136)
    2542:	082f 0005 008b 	btst #5,%sp@(139)
    2548:	6700 fe86      	beqw 23d0 <_ntoa_long+0x4e>
    254c:	7041           	moveq #65,%d0
    254e:	41ef 0040      	lea %sp@(64),%a0
    2552:	2f48 002e      	movel %a0,%sp@(46)
    2556:	4def 0060      	lea %sp@(96),%fp
      buf[len++] = digit < 10 ? '0' + digit : (flags & FLAGS_UPPERCASE ? 'A' : 'a') + digit - 10;
    255a:	2808           	movel %a0,%d4
    255c:	49f9 0000 3378 	lea 3378 <__umodsi3>,%a4
    2562:	47f9 0000 331c 	lea 331c <__udivsi3>,%a3
    2568:	1200           	moveb %d0,%d1
    256a:	0601 fff6      	addib #-10,%d1
    256e:	2f4a 003a      	movel %a2,%sp@(58)
    2572:	2a45           	moveal %d5,%a5
    2574:	1a01           	moveb %d1,%d5
    2576:	6000 fe82      	braw 23fa <_ntoa_long+0x78>
  if (!(flags & FLAGS_LEFT)) {
    257a:	7802           	moveq #2,%d4
    257c:	c8af 0088      	andl %sp@(136),%d4
    2580:	082f 0001 008b 	btst #1,%sp@(139)
    2586:	6600 01e0      	bnew 2768 <_ntoa_long+0x3e6>
    258a:	42af 0036      	clrl %sp@(54)
    flags &= ~FLAGS_HASH;
    258e:	2f40 0088      	movel %d0,%sp@(136)
  if (!(flags & FLAGS_PRECISION) || value) {
    2592:	2f7c 0000 0400 	movel #1024,%sp@(50)
    2598:	0032 
    if (width && (flags & FLAGS_ZEROPAD) && (negative || (flags & (FLAGS_PLUS | FLAGS_SPACE)))) {
    259a:	4a87           	tstl %d7
    259c:	6700 012e      	beqw 26cc <_ntoa_long+0x34a>
    25a0:	7001           	moveq #1,%d0
    25a2:	c0af 0088      	andl %sp@(136),%d0
    25a6:	2c40           	moveal %d0,%fp
    25a8:	082f 0000 008b 	btst #0,%sp@(139)
    25ae:	6700 0194      	beqw 2744 <_ntoa_long+0x3c2>
    25b2:	4a2f 003f      	tstb %sp@(63)
    25b6:	6600 0250      	bnew 2808 <_ntoa_long+0x486>
    25ba:	700c           	moveq #12,%d0
    25bc:	c0af 0088      	andl %sp@(136),%d0
    25c0:	6600 0246      	bnew 2808 <_ntoa_long+0x486>
    while ((len < prec) && (len < PRINTF_NTOA_BUFFER_SIZE)) {
    25c4:	b8af 0080      	cmpl %sp@(128),%d4
    25c8:	6400 013a      	bccw 2704 <_ntoa_long+0x382>
    25cc:	7020           	moveq #32,%d0
    25ce:	b084           	cmpl %d4,%d0
    25d0:	6700 030a      	beqw 28dc <_ntoa_long+0x55a>
    25d4:	41f7 4840      	lea %sp@(40,%d4:l),%a0
    25d8:	202f 0080      	movel %sp@(128),%d0
      buf[len++] = '0';
    25dc:	5284           	addql #1,%d4
    25de:	10fc 0030      	moveb #48,%a0@+
    while ((len < prec) && (len < PRINTF_NTOA_BUFFER_SIZE)) {
    25e2:	b880           	cmpl %d0,%d4
    25e4:	6400 0116      	bccw 26fc <_ntoa_long+0x37a>
    25e8:	7220           	moveq #32,%d1
    25ea:	b284           	cmpl %d4,%d1
    25ec:	66ee           	bnes 25dc <_ntoa_long+0x25a>
    while ((flags & FLAGS_ZEROPAD) && (len < width) && (len < PRINTF_NTOA_BUFFER_SIZE)) {
    25ee:	bcfc 0000      	cmpaw #0,%fp
    25f2:	6700 0140      	beqw 2734 <_ntoa_long+0x3b2>
    25f6:	7020           	moveq #32,%d0
    25f8:	b087           	cmpl %d7,%d0
    25fa:	6400 0138      	bccw 2734 <_ntoa_long+0x3b2>
  if (flags & FLAGS_HASH) {
    25fe:	4aaf 0036      	tstl %sp@(54)
    2602:	6700 020a      	beqw 280e <_ntoa_long+0x48c>
    if (!(flags & FLAGS_PRECISION) && len && ((len == prec) || (len == width))) {
    2606:	4aaf 0032      	tstl %sp@(50)
    260a:	6600 0390      	bnew 299c <_ntoa_long+0x61a>
    260e:	7020           	moveq #32,%d0
    2610:	9dce           	subal %fp,%fp
    2612:	b0af 0080      	cmpl %sp@(128),%d0
    2616:	6700 02e8      	beqw 2900 <_ntoa_long+0x57e>
  if (!(flags & FLAGS_LEFT) && !(flags & FLAGS_ZEROPAD)) {
    261a:	7003           	moveq #3,%d0
    261c:	c0af 0088      	andl %sp@(136),%d0
    if ((base == 16U) && !(flags & FLAGS_UPPERCASE) && (len < PRINTF_NTOA_BUFFER_SIZE)) {
    2620:	7210           	moveq #16,%d1
    2622:	b283           	cmpl %d3,%d1
    2624:	6700 0220      	beqw 2846 <_ntoa_long+0x4c4>
    else if ((base == 2U) && (len < PRINTF_NTOA_BUFFER_SIZE)) {
    2628:	5583           	subql #2,%d3
    262a:	6700 01bc      	beqw 27e8 <_ntoa_long+0x466>
    if (len < PRINTF_NTOA_BUFFER_SIZE) {
    262e:	7220           	moveq #32,%d1
    2630:	b284           	cmpl %d4,%d1
    2632:	6666           	bnes 269a <_ntoa_long+0x318>
  if (!(flags & FLAGS_LEFT) && !(flags & FLAGS_ZEROPAD)) {
    2634:	4a80           	tstl %d0
    2636:	6608           	bnes 2640 <_ntoa_long+0x2be>
    for (size_t i = len; i < width; i++) {
    2638:	7220           	moveq #32,%d1
    263a:	b287           	cmpl %d7,%d1
    263c:	6500 fe76      	bcsw 24b4 <_ntoa_long+0x132>
  if (flags & FLAGS_HASH) {
    2640:	262f 006c      	movel %sp@(108),%d3
    2644:	4bef 0040      	lea %sp@(64),%a5
    2648:	47f5 4800      	lea %a5@(0,%d4:l),%a3
    264c:	d684           	addl %d4,%d3
    264e:	49f5 3800      	lea %a5@(0,%d3:l),%a4
    2652:	2403           	movel %d3,%d2
    out(buf[--len], buffer, idx++, maxlen);
    2654:	2f06           	movel %d6,%sp@-
    2656:	200c           	movel %a4,%d0
    2658:	908b           	subl %a3,%d0
    265a:	2f00           	movel %d0,%sp@-
    265c:	2f05           	movel %d5,%sp@-
    265e:	1023           	moveb %a3@-,%d0
    2660:	4880           	extw %d0
    2662:	3040           	moveaw %d0,%a0
    2664:	2f08           	movel %a0,%sp@-
    2666:	4e92           	jsr %a2@
  while (len) {
    2668:	4fef 0010      	lea %sp@(16),%sp
    266c:	b7cd           	cmpal %a5,%a3
    266e:	6700 fe8a      	beqw 24fa <_ntoa_long+0x178>
    2672:	2403           	movel %d3,%d2
    out(buf[--len], buffer, idx++, maxlen);
    2674:	2f06           	movel %d6,%sp@-
    2676:	200c           	movel %a4,%d0
    2678:	908b           	subl %a3,%d0
    267a:	2f00           	movel %d0,%sp@-
    267c:	2f05           	movel %d5,%sp@-
    267e:	1023           	moveb %a3@-,%d0
    2680:	4880           	extw %d0
    2682:	3040           	moveaw %d0,%a0
    2684:	2f08           	movel %a0,%sp@-
    2686:	4e92           	jsr %a2@
  while (len) {
    2688:	4fef 0010      	lea %sp@(16),%sp
    268c:	b7cd           	cmpal %a5,%a3
    268e:	66c2           	bnes 2652 <_ntoa_long+0x2d0>
    2690:	6000 fe68      	braw 24fa <_ntoa_long+0x178>
      buf[len++] = 'X';
    2694:	5384           	subql #1,%d4
    2696:	10bc 0058      	moveb #88,%a0@
      buf[len++] = '0';
    269a:	2004           	movel %d4,%d0
    269c:	5284           	addql #1,%d4
    269e:	1fbc 0030 0840 	moveb #48,%sp@(40,%d0:l)
  if (len < PRINTF_NTOA_BUFFER_SIZE) {
    26a4:	7020           	moveq #32,%d0
    26a6:	b084           	cmpl %d4,%d0
    26a8:	6600 0134      	bnew 27de <_ntoa_long+0x45c>
  if (!(flags & FLAGS_LEFT) && !(flags & FLAGS_ZEROPAD)) {
    26ac:	7003           	moveq #3,%d0
    26ae:	c0af 0088      	andl %sp@(136),%d0
    26b2:	6700 00a8      	beqw 275c <_ntoa_long+0x3da>
  if (flags & FLAGS_HASH) {
    26b6:	262f 006c      	movel %sp@(108),%d3
    26ba:	7820           	moveq #32,%d4
    26bc:	4bef 0040      	lea %sp@(64),%a5
    26c0:	47f5 4800      	lea %a5@(0,%d4:l),%a3
    26c4:	d684           	addl %d4,%d3
    26c6:	49f5 3800      	lea %a5@(0,%d3:l),%a4
    26ca:	6086           	bras 2652 <_ntoa_long+0x2d0>
    while ((len < prec) && (len < PRINTF_NTOA_BUFFER_SIZE)) {
    26cc:	b8af 0080      	cmpl %sp@(128),%d4
    26d0:	6400 0280      	bccw 2952 <_ntoa_long+0x5d0>
    if (width && (flags & FLAGS_ZEROPAD) && (negative || (flags & (FLAGS_PLUS | FLAGS_SPACE)))) {
    26d4:	7201           	moveq #1,%d1
    26d6:	c2af 0088      	andl %sp@(136),%d1
    26da:	2c41           	moveal %d1,%fp
    while ((len < prec) && (len < PRINTF_NTOA_BUFFER_SIZE)) {
    26dc:	7020           	moveq #32,%d0
    26de:	b084           	cmpl %d4,%d0
    26e0:	6600 fef2      	bnew 25d4 <_ntoa_long+0x252>
    while ((flags & FLAGS_ZEROPAD) && (len < width) && (len < PRINTF_NTOA_BUFFER_SIZE)) {
    26e4:	4a81           	tstl %d1
    26e6:	6700 02ba      	beqw 29a2 <_ntoa_long+0x620>
  if (flags & FLAGS_HASH) {
    26ea:	4aaf 0036      	tstl %sp@(54)
    26ee:	6600 02ba      	bnew 29aa <_ntoa_long+0x628>
    26f2:	9dce           	subal %fp,%fp
    26f4:	262f 006c      	movel %sp@(108),%d3
    26f8:	7820           	moveq #32,%d4
    26fa:	60c0           	bras 26bc <_ntoa_long+0x33a>
    while ((flags & FLAGS_ZEROPAD) && (len < width) && (len < PRINTF_NTOA_BUFFER_SIZE)) {
    26fc:	bcfc 0000      	cmpaw #0,%fp
    2700:	6700 fd60      	beqw 2462 <_ntoa_long+0xe0>
    2704:	be84           	cmpl %d4,%d7
    2706:	6300 024a      	blsw 2952 <_ntoa_long+0x5d0>
    270a:	7220           	moveq #32,%d1
    270c:	b284           	cmpl %d4,%d1
    270e:	6700 0270      	beqw 2980 <_ntoa_long+0x5fe>
    2712:	43ef 0040      	lea %sp@(64),%a1
    2716:	41f1 4800      	lea %a1@(0,%d4:l),%a0
    271a:	2009           	movel %a1,%d0
    271c:	d087           	addl %d7,%d0
    271e:	4def 0060      	lea %sp@(96),%fp
      buf[len++] = '0';
    2722:	10bc 0030      	moveb #48,%a0@
    2726:	2208           	movel %a0,%d1
    2728:	5288           	addql #1,%a0
    while ((flags & FLAGS_ZEROPAD) && (len < width) && (len < PRINTF_NTOA_BUFFER_SIZE)) {
    272a:	b1c0           	cmpal %d0,%a0
    272c:	6700 0100      	beqw 282e <_ntoa_long+0x4ac>
    2730:	bdc8           	cmpal %a0,%fp
    2732:	66ee           	bnes 2722 <_ntoa_long+0x3a0>
  if (flags & FLAGS_HASH) {
    2734:	4aaf 0036      	tstl %sp@(54)
    2738:	6700 00d4      	beqw 280e <_ntoa_long+0x48c>
    273c:	9dce           	subal %fp,%fp
    273e:	7820           	moveq #32,%d4
    2740:	6000 fd28      	braw 246a <_ntoa_long+0xe8>
    while ((len < prec) && (len < PRINTF_NTOA_BUFFER_SIZE)) {
    2744:	b8af 0080      	cmpl %sp@(128),%d4
    2748:	6400 fd18      	bccw 2462 <_ntoa_long+0xe0>
    274c:	7220           	moveq #32,%d1
    274e:	b284           	cmpl %d4,%d1
    2750:	6600 fe82      	bnew 25d4 <_ntoa_long+0x252>
  if (flags & FLAGS_HASH) {
    2754:	4aaf 0036      	tstl %sp@(54)
    2758:	6600 0250      	bnew 29aa <_ntoa_long+0x628>
    for (size_t i = len; i < width; i++) {
    275c:	7820           	moveq #32,%d4
    275e:	b887           	cmpl %d7,%d4
    2760:	6500 fd52      	bcsw 24b4 <_ntoa_long+0x132>
    2764:	6000 feda      	braw 2640 <_ntoa_long+0x2be>
  if (!(flags & FLAGS_LEFT)) {
    2768:	3c7c 0002      	moveaw #2,%fp
  if (!(flags & FLAGS_LEFT) && !(flags & FLAGS_ZEROPAD)) {
    276c:	7203           	moveq #3,%d1
    276e:	c280           	andl %d0,%d1
      buf[len++] = '-';
    2770:	2802           	movel %d2,%d4
    if (negative) {
    2772:	4a2f 003f      	tstb %sp@(63)
    2776:	6600 fd28      	bnew 24a0 <_ntoa_long+0x11e>
    else if (flags & FLAGS_PLUS) {
    277a:	0800 0002      	btst #2,%d0
    277e:	6700 00e8      	beqw 2868 <_ntoa_long+0x4e6>
      buf[len++] = '+';  // ignore the space if the '+' exists
    2782:	5284           	addql #1,%d4
    2784:	1fbc 002b 2840 	moveb #43,%sp@(40,%d2:l)
  if (!(flags & FLAGS_LEFT) && !(flags & FLAGS_ZEROPAD)) {
    278a:	4a81           	tstl %d1
    278c:	6600 feb2      	bnew 2640 <_ntoa_long+0x2be>
    for (size_t i = len; i < width; i++) {
    2790:	b887           	cmpl %d7,%d4
    2792:	6500 fd20      	bcsw 24b4 <_ntoa_long+0x132>
    2796:	6000 fea8      	braw 2640 <_ntoa_long+0x2be>
    if (!(flags & FLAGS_PRECISION) && len && ((len == prec) || (len == width))) {
    279a:	b8af 0080      	cmpl %sp@(128),%d4
    279e:	6706           	beqs 27a6 <_ntoa_long+0x424>
    27a0:	be84           	cmpl %d4,%d7
    27a2:	6600 fe76      	bnew 261a <_ntoa_long+0x298>
      len--;
    27a6:	2004           	movel %d4,%d0
    27a8:	5380           	subql #1,%d0
      if (len && (base == 16U)) {
    27aa:	7201           	moveq #1,%d1
    27ac:	b284           	cmpl %d4,%d1
    27ae:	6700 fcc8      	beqw 2478 <_ntoa_long+0xf6>
    27b2:	7210           	moveq #16,%d1
    27b4:	b283           	cmpl %d3,%d1
    27b6:	6700 01a8      	beqw 2960 <_ntoa_long+0x5de>
    else if ((base == 2U) && (len < PRINTF_NTOA_BUFFER_SIZE)) {
    27ba:	7202           	moveq #2,%d1
      len--;
    27bc:	2800           	movel %d0,%d4
    else if ((base == 2U) && (len < PRINTF_NTOA_BUFFER_SIZE)) {
    27be:	b283           	cmpl %d3,%d1
    27c0:	6600 feda      	bnew 269c <_ntoa_long+0x31a>
    27c4:	7003           	moveq #3,%d0
    27c6:	c0af 0088      	andl %sp@(136),%d0
      buf[len++] = 'b';
    27ca:	1fbc 0062 4840 	moveb #98,%sp@(40,%d4:l)
    27d0:	5284           	addql #1,%d4
    if (len < PRINTF_NTOA_BUFFER_SIZE) {
    27d2:	7220           	moveq #32,%d1
    27d4:	b284           	cmpl %d4,%d1
    27d6:	6700 fe5c      	beqw 2634 <_ntoa_long+0x2b2>
    27da:	6000 febe      	braw 269a <_ntoa_long+0x318>
    27de:	202f 0088      	movel %sp@(136),%d0
    27e2:	2404           	movel %d4,%d2
    27e4:	6000 fcac      	braw 2492 <_ntoa_long+0x110>
    else if ((base == 2U) && (len < PRINTF_NTOA_BUFFER_SIZE)) {
    27e8:	7220           	moveq #32,%d1
    27ea:	b284           	cmpl %d4,%d1
    27ec:	66dc           	bnes 27ca <_ntoa_long+0x448>
  if (!(flags & FLAGS_LEFT) && !(flags & FLAGS_ZEROPAD)) {
    27ee:	4a80           	tstl %d0
    27f0:	6600 fe4e      	bnew 2640 <_ntoa_long+0x2be>
    for (size_t i = len; i < width; i++) {
    27f4:	7020           	moveq #32,%d0
    27f6:	b087           	cmpl %d7,%d0
    27f8:	6400 fe46      	bccw 2640 <_ntoa_long+0x2be>
    27fc:	242f 006c      	movel %sp@(108),%d2
    2800:	2604           	movel %d4,%d3
    2802:	9682           	subl %d2,%d3
    2804:	6000 fcb6      	braw 24bc <_ntoa_long+0x13a>
      width--;
    2808:	5387           	subql #1,%d7
    280a:	6000 fdb8      	braw 25c4 <_ntoa_long+0x242>
  if (flags & FLAGS_HASH) {
    280e:	9dce           	subal %fp,%fp
  if (!(flags & FLAGS_LEFT) && !(flags & FLAGS_ZEROPAD)) {
    2810:	7003           	moveq #3,%d0
    2812:	c0af 0088      	andl %sp@(136),%d0
    2816:	6600 fe9e      	bnew 26b6 <_ntoa_long+0x334>
    281a:	6000 ff40      	braw 275c <_ntoa_long+0x3da>
    281e:	91c8           	subal %a0,%a0
    2820:	226f 006c      	moveal %sp@(108),%a1
    2824:	43f1 8801      	lea %a1@(1,%a0:l),%a1
    2828:	2609           	movel %a1,%d3
    282a:	6000 fcc6      	braw 24f2 <_ntoa_long+0x170>
      buf[len++] = '0';
    282e:	307c 0001      	moveaw #1,%a0
    2832:	91c9           	subal %a1,%a0
    2834:	2808           	movel %a0,%d4
    2836:	d881           	addl %d1,%d4
    2838:	9dce           	subal %fp,%fp
  if (flags & FLAGS_HASH) {
    283a:	4aaf 0036      	tstl %sp@(54)
    283e:	6600 fc2a      	bnew 246a <_ntoa_long+0xe8>
    2842:	6000 fe60      	braw 26a4 <_ntoa_long+0x322>
    if ((base == 16U) && !(flags & FLAGS_UPPERCASE) && (len < PRINTF_NTOA_BUFFER_SIZE)) {
    2846:	7220           	moveq #32,%d1
    2848:	082f 0005 008b 	btst #5,%sp@(139)
    284e:	6600 00ca      	bnew 291a <_ntoa_long+0x598>
    2852:	b284           	cmpl %d4,%d1
    2854:	6600 00b0      	bnew 2906 <_ntoa_long+0x584>
  if (!(flags & FLAGS_LEFT) && !(flags & FLAGS_ZEROPAD)) {
    2858:	4a80           	tstl %d0
    285a:	6600 fde4      	bnew 2640 <_ntoa_long+0x2be>
    for (size_t i = len; i < width; i++) {
    285e:	b287           	cmpl %d7,%d1
    2860:	6500 fc52      	bcsw 24b4 <_ntoa_long+0x132>
    2864:	6000 fdda      	braw 2640 <_ntoa_long+0x2be>
    else if (flags & FLAGS_SPACE) {
    2868:	0800 0003      	btst #3,%d0
    286c:	6640           	bnes 28ae <_ntoa_long+0x52c>
  if (!(flags & FLAGS_LEFT) && !(flags & FLAGS_ZEROPAD)) {
    286e:	4a81           	tstl %d1
    2870:	6600 00d8      	bnew 294a <_ntoa_long+0x5c8>
    for (size_t i = len; i < width; i++) {
    2874:	b487           	cmpl %d7,%d2
    2876:	6500 fc3c      	bcsw 24b4 <_ntoa_long+0x132>
  while (len) {
    287a:	4a82           	tstl %d2
    287c:	6600 fdc2      	bnew 2640 <_ntoa_long+0x2be>
    2880:	242f 006c      	movel %sp@(108),%d2
}
    2884:	2002           	movel %d2,%d0
    2886:	4cdf 7cfc      	moveml %sp@+,%d2-%d7/%a2-%fp
    288a:	4fef 0034      	lea %sp@(52),%sp
    288e:	4e75           	rts
    if ((base == 16U) && !(flags & FLAGS_UPPERCASE) && (len < PRINTF_NTOA_BUFFER_SIZE)) {
    2890:	082f 0005 008b 	btst #5,%sp@(139)
    2896:	662e           	bnes 28c6 <_ntoa_long+0x544>
      buf[len++] = 'x';
    2898:	1f7c 0078 0040 	moveb #120,%sp@(64)
      buf[len++] = '0';
    289e:	1f7c 0030 0041 	moveb #48,%sp@(65)
  if (!(flags & FLAGS_LEFT)) {
    28a4:	202f 0088      	movel %sp@(136),%d0
      buf[len++] = '0';
    28a8:	7402           	moveq #2,%d2
    28aa:	6000 fbe6      	braw 2492 <_ntoa_long+0x110>
      buf[len++] = ' ';
    28ae:	5284           	addql #1,%d4
    28b0:	1fbc 0020 2840 	moveb #32,%sp@(40,%d2:l)
  if (!(flags & FLAGS_LEFT) && !(flags & FLAGS_ZEROPAD)) {
    28b6:	4a81           	tstl %d1
    28b8:	6600 fd86      	bnew 2640 <_ntoa_long+0x2be>
    for (size_t i = len; i < width; i++) {
    28bc:	b887           	cmpl %d7,%d4
    28be:	6500 fbf4      	bcsw 24b4 <_ntoa_long+0x132>
    28c2:	6000 fd7c      	braw 2640 <_ntoa_long+0x2be>
      buf[len++] = 'X';
    28c6:	1f7c 0058 0040 	moveb #88,%sp@(64)
      buf[len++] = '0';
    28cc:	1f7c 0030 0041 	moveb #48,%sp@(65)
  if (!(flags & FLAGS_LEFT)) {
    28d2:	202f 0088      	movel %sp@(136),%d0
      buf[len++] = '0';
    28d6:	7402           	moveq #2,%d2
    28d8:	6000 fbb8      	braw 2492 <_ntoa_long+0x110>
    while ((flags & FLAGS_ZEROPAD) && (len < width) && (len < PRINTF_NTOA_BUFFER_SIZE)) {
    28dc:	7220           	moveq #32,%d1
    28de:	b287           	cmpl %d7,%d1
    28e0:	6400 fe08      	bccw 26ea <_ntoa_long+0x368>
  if (flags & FLAGS_HASH) {
    28e4:	4aaf 0036      	tstl %sp@(54)
    28e8:	6700 ff24      	beqw 280e <_ntoa_long+0x48c>
    if (!(flags & FLAGS_PRECISION) && len && ((len == prec) || (len == width))) {
    28ec:	4aaf 0032      	tstl %sp@(50)
    28f0:	6600 00aa      	bnew 299c <_ntoa_long+0x61a>
    28f4:	7220           	moveq #32,%d1
    28f6:	9dce           	subal %fp,%fp
    28f8:	b2af 0080      	cmpl %sp@(128),%d1
    28fc:	6600 fd1c      	bnew 261a <_ntoa_long+0x298>
      len--;
    2900:	701f           	moveq #31,%d0
    2902:	6000 feae      	braw 27b2 <_ntoa_long+0x430>
      buf[len++] = 'x';
    2906:	1fbc 0078 4840 	moveb #120,%sp@(40,%d4:l)
    290c:	5284           	addql #1,%d4
    if (len < PRINTF_NTOA_BUFFER_SIZE) {
    290e:	7220           	moveq #32,%d1
    2910:	b284           	cmpl %d4,%d1
    2912:	6700 fd20      	beqw 2634 <_ntoa_long+0x2b2>
    2916:	6000 fd82      	braw 269a <_ntoa_long+0x318>
    else if ((base == 16U) && (flags & FLAGS_UPPERCASE) && (len < PRINTF_NTOA_BUFFER_SIZE)) {
    291a:	b284           	cmpl %d4,%d1
    291c:	6700 fed0      	beqw 27ee <_ntoa_long+0x46c>
      buf[len++] = 'X';
    2920:	1fbc 0058 4840 	moveb #88,%sp@(40,%d4:l)
    2926:	5284           	addql #1,%d4
    if (len < PRINTF_NTOA_BUFFER_SIZE) {
    2928:	7220           	moveq #32,%d1
    292a:	b284           	cmpl %d4,%d1
    292c:	6700 fd06      	beqw 2634 <_ntoa_long+0x2b2>
    2930:	6000 fd68      	braw 269a <_ntoa_long+0x318>
      buf[len++] = 'b';
    2934:	1f7c 0062 0040 	moveb #98,%sp@(64)
      buf[len++] = '0';
    293a:	1f7c 0030 0041 	moveb #48,%sp@(65)
  if (!(flags & FLAGS_LEFT)) {
    2940:	202f 0088      	movel %sp@(136),%d0
      buf[len++] = '0';
    2944:	7402           	moveq #2,%d2
    2946:	6000 fb4a      	braw 2492 <_ntoa_long+0x110>
    294a:	262f 006c      	movel %sp@(108),%d3
    294e:	6000 fba2      	braw 24f2 <_ntoa_long+0x170>
    while ((flags & FLAGS_ZEROPAD) && (len < width) && (len < PRINTF_NTOA_BUFFER_SIZE)) {
    2952:	9dce           	subal %fp,%fp
  if (flags & FLAGS_HASH) {
    2954:	4aaf 0036      	tstl %sp@(54)
    2958:	6600 fb10      	bnew 246a <_ntoa_long+0xe8>
    295c:	6000 fd46      	braw 26a4 <_ntoa_long+0x322>
      buf[len++] = 'x';
    2960:	41f7 483e      	lea %sp@(3e,%d4:l),%a0
    if ((base == 16U) && !(flags & FLAGS_UPPERCASE) && (len < PRINTF_NTOA_BUFFER_SIZE)) {
    2964:	082f 0005 008b 	btst #5,%sp@(139)
    296a:	6600 fd28      	bnew 2694 <_ntoa_long+0x312>
      buf[len++] = 'x';
    296e:	2004           	movel %d4,%d0
    2970:	5380           	subql #1,%d0
    2972:	10bc 0078      	moveb #120,%a0@
      buf[len++] = '0';
    2976:	1fbc 0030 0840 	moveb #48,%sp@(40,%d0:l)
    297c:	6000 fd26      	braw 26a4 <_ntoa_long+0x322>
  if (flags & FLAGS_HASH) {
    2980:	4aaf 0036      	tstl %sp@(54)
    2984:	6700 fe88      	beqw 280e <_ntoa_long+0x48c>
    if (!(flags & FLAGS_PRECISION) && len && ((len == prec) || (len == width))) {
    2988:	4aaf 0032      	tstl %sp@(50)
    298c:	660e           	bnes 299c <_ntoa_long+0x61a>
    298e:	7020           	moveq #32,%d0
    2990:	b0af 0080      	cmpl %sp@(128),%d0
    2994:	6738           	beqs 29ce <_ntoa_long+0x64c>
    2996:	7220           	moveq #32,%d1
    2998:	b287           	cmpl %d7,%d1
    299a:	6732           	beqs 29ce <_ntoa_long+0x64c>
    299c:	9dce           	subal %fp,%fp
    299e:	6000 fc7a      	braw 261a <_ntoa_long+0x298>
  if (flags & FLAGS_HASH) {
    29a2:	4aaf 0036      	tstl %sp@(54)
    29a6:	6700 fc98      	beqw 2640 <_ntoa_long+0x2be>
    if (!(flags & FLAGS_PRECISION) && len && ((len == prec) || (len == width))) {
    29aa:	4aaf 0032      	tstl %sp@(50)
    29ae:	6708           	beqs 29b8 <_ntoa_long+0x636>
    29b0:	9dce           	subal %fp,%fp
    29b2:	7820           	moveq #32,%d4
    29b4:	6000 fc64      	braw 261a <_ntoa_long+0x298>
    29b8:	7020           	moveq #32,%d0
    29ba:	7820           	moveq #32,%d4
    29bc:	b0af 0080      	cmpl %sp@(128),%d0
    29c0:	6714           	beqs 29d6 <_ntoa_long+0x654>
    29c2:	9dce           	subal %fp,%fp
    29c4:	be84           	cmpl %d4,%d7
    29c6:	6600 fc52      	bnew 261a <_ntoa_long+0x298>
    29ca:	6000 fdda      	braw 27a6 <_ntoa_long+0x424>
    29ce:	9dce           	subal %fp,%fp
      len--;
    29d0:	701f           	moveq #31,%d0
    29d2:	6000 fdde      	braw 27b2 <_ntoa_long+0x430>
    29d6:	701f           	moveq #31,%d0
    if (!(flags & FLAGS_PRECISION) && len && ((len == prec) || (len == width))) {
    29d8:	9dce           	subal %fp,%fp
    29da:	6000 fdd6      	braw 27b2 <_ntoa_long+0x430>

000029de <_out_char>:
{
    29de:	202f 0004      	movel %sp@(4),%d0
  if (character) {
    29e2:	4a00           	tstb %d0
    29e4:	6602           	bnes 29e8 <_out_char+0xa>
}
    29e6:	4e75           	rts
    _putchar(character);
    29e8:	4880           	extw %d0
    29ea:	3040           	moveaw %d0,%a0
    29ec:	2f48 0004      	movel %a0,%sp@(4)
    29f0:	4ef9 0000 322a 	jmp 322a <_putchar>

000029f6 <_vsnprintf>:
#endif  // PRINTF_SUPPORT_FLOAT


// internal vsnprintf
static int _vsnprintf(out_fct_type out, char* buffer, const size_t maxlen, const char* format, va_list va)
{
    29f6:	4fef fff4      	lea %sp@(-12),%sp
    29fa:	48e7 3f3e      	moveml %d2-%d7/%a2-%fp,%sp@-
    29fe:	2a6f 003c      	moveal %sp@(60),%a5
    2a02:	2c2f 0040      	movel %sp@(64),%d6
    2a06:	242f 0044      	movel %sp@(68),%d2
    2a0a:	286f 0048      	moveal %sp@(72),%a4
    2a0e:	262f 004c      	movel %sp@(76),%d3
  unsigned int flags, width, precision, n;
  size_t idx = 0U;

  if (!buffer) {
    2a12:	4a86           	tstl %d6
    2a14:	6700 023e      	beqw 2c54 <_vsnprintf+0x25e>
    // use null output function
    out = _out_null;
  }

  while (*format)
    2a18:	1014           	moveb %a4@,%d0
    2a1a:	95ca           	subal %a2,%a2
    2a1c:	4a00           	tstb %d0
    2a1e:	6700 0244      	beqw 2c64 <_vsnprintf+0x26e>
    }

    // evaluate flags
    flags = 0U;
    do {
      switch (*format) {
    2a22:	2c7c 0000 2a92 	moveal #10898,%fp
      format++;
    2a28:	528c           	addql #1,%a4
    if (*format != '%') {
    2a2a:	0c00 0025      	cmpib #37,%d0
    2a2e:	6740           	beqs 2a70 <_vsnprintf+0x7a>
      out(*format, buffer, idx++, maxlen);
    2a30:	280a           	movel %a2,%d4
    2a32:	5284           	addql #1,%d4
    2a34:	2f02           	movel %d2,%sp@-
    2a36:	2f0a           	movel %a2,%sp@-
    2a38:	2f06           	movel %d6,%sp@-
    2a3a:	4880           	extw %d0
    2a3c:	3040           	moveaw %d0,%a0
    2a3e:	2f08           	movel %a0,%sp@-
    2a40:	4e95           	jsr %a5@
      continue;
    2a42:	4fef 0010      	lea %sp@(16),%sp
      out(*format, buffer, idx++, maxlen);
    2a46:	2444           	moveal %d4,%a2
  while (*format)
    2a48:	1014           	moveb %a4@,%d0
    2a4a:	66dc           	bnes 2a28 <_vsnprintf+0x32>

  // termination
  out((char)0, buffer, idx < maxlen ? idx : maxlen - 1U, maxlen);

  // return written chars without terminating \0
  return (int)idx;
    2a4c:	260a           	movel %a2,%d3
  out((char)0, buffer, idx < maxlen ? idx : maxlen - 1U, maxlen);
    2a4e:	b5c2           	cmpal %d2,%a2
    2a50:	6504           	bcss 2a56 <_vsnprintf+0x60>
    2a52:	2442           	moveal %d2,%a2
    2a54:	538a           	subql #1,%a2
    2a56:	2f02           	movel %d2,%sp@-
    2a58:	2f0a           	movel %a2,%sp@-
    2a5a:	2f06           	movel %d6,%sp@-
    2a5c:	42a7           	clrl %sp@-
    2a5e:	4e95           	jsr %a5@
  return (int)idx;
    2a60:	4fef 0010      	lea %sp@(16),%sp
}
    2a64:	2003           	movel %d3,%d0
    2a66:	4cdf 7cfc      	moveml %sp@+,%d2-%d7/%a2-%fp
    2a6a:	4fef 000c      	lea %sp@(12),%sp
    2a6e:	4e75           	rts
    flags = 0U;
    2a70:	7200           	moveq #0,%d1
      switch (*format) {
    2a72:	204c           	moveal %a4,%a0
    2a74:	1018           	moveb %a0@+,%d0
    2a76:	1800           	moveb %d0,%d4
    2a78:	0604 ffe0      	addib #-32,%d4
    2a7c:	0c04 0010      	cmpib #16,%d4
    2a80:	6232           	bhis 2ab4 <_vsnprintf+0xbe>
    2a82:	0284 0000 00ff 	andil #255,%d4
    2a88:	d884           	addl %d4,%d4
    2a8a:	3276 4800      	moveaw %fp@(0,%d4:l),%a1
    2a8e:	4efb 9002      	jmp %pc@(2a92 <_vsnprintf+0x9c>,%a1:w)
    2a92:	00e2           	.short 0x00e2
    2a94:	0022 0022      	orib #34,%a2@-
    2a98:	00d8           	.short 0x00d8
    2a9a:	0022 0022      	orib #34,%a2@-
    2a9e:	0022 0022      	orib #34,%a2@-
    2aa2:	0022 0022      	orib #34,%a2@-
    2aa6:	0022 00ce      	orib #-50,%a2@-
    2aaa:	0022 00c4      	orib #-60,%a2@-
    2aae:	0022 0022      	orib #34,%a2@-
    2ab2:	00ba           	.short 0x00ba
  return (ch >= '0') && (ch <= '9');
    2ab4:	1800           	moveb %d0,%d4
    2ab6:	0604 ffd0      	addib #-48,%d4
    if (_is_digit(*format)) {
    2aba:	0c04 0009      	cmpib #9,%d4
    2abe:	6300 00be      	blsw 2b7e <_vsnprintf+0x188>
    else if (*format == '*') {
    2ac2:	0c00 002a      	cmpib #42,%d0
    2ac6:	6700 0172      	beqw 2c3a <_vsnprintf+0x244>
    width = 0U;
    2aca:	97cb           	subal %a3,%a3
    if (*format == '.') {
    2acc:	0c00 002e      	cmpib #46,%d0
    2ad0:	6700 00fc      	beqw 2bce <_vsnprintf+0x1d8>
    precision = 0U;
    2ad4:	7e00           	moveq #0,%d7
        format++;
    2ad6:	2808           	movel %a0,%d4
    switch (*format) {
    2ad8:	0c00 006c      	cmpib #108,%d0
    2adc:	6700 011e      	beqw 2bfc <_vsnprintf+0x206>
    2ae0:	0c00 006c      	cmpib #108,%d0
    2ae4:	6e00 0136      	bgtw 2c1c <_vsnprintf+0x226>
    2ae8:	0c00 0068      	cmpib #104,%d0
    2aec:	6700 02c8      	beqw 2db6 <_vsnprintf+0x3c0>
    2af0:	0c00 006a      	cmpib #106,%d0
    2af4:	6600 017a      	bnew 2c70 <_vsnprintf+0x27a>
        flags |= (sizeof(intmax_t) == sizeof(long) ? FLAGS_LONG : FLAGS_LONG_LONG);
    2af8:	0041 0200      	oriw #512,%d1
        if (*format == 'l') {
    2afc:	102c 0001      	moveb %a4@(1),%d0
        format++;
    2b00:	2844           	moveal %d4,%a4
    2b02:	528c           	addql #1,%a4
    switch (*format) {
    2b04:	0c00 0078      	cmpib #120,%d0
    2b08:	6e00 0198      	bgtw 2ca2 <_vsnprintf+0x2ac>
    2b0c:	0c00 0063      	cmpib #99,%d0
    2b10:	6e00 0168      	bgtw 2c7a <_vsnprintf+0x284>
    2b14:	0c00 0062      	cmpib #98,%d0
    2b18:	6700 05de      	beqw 30f8 <_vsnprintf+0x702>
    2b1c:	0c00 0063      	cmpib #99,%d0
    2b20:	6700 0362      	beqw 2e84 <_vsnprintf+0x48e>
    2b24:	0c00 0025      	cmpib #37,%d0
    2b28:	6600 050a      	bnew 3034 <_vsnprintf+0x63e>
        out('%', buffer, idx++, maxlen);
    2b2c:	280a           	movel %a2,%d4
    2b2e:	5284           	addql #1,%d4
    2b30:	2f02           	movel %d2,%sp@-
    2b32:	2f0a           	movel %a2,%sp@-
    2b34:	2f06           	movel %d6,%sp@-
    2b36:	4878 0025      	pea 25 <R_STOPCNTCMD+0x7>
    2b3a:	4e95           	jsr %a5@
        break;
    2b3c:	4fef 0010      	lea %sp@(16),%sp
        out('%', buffer, idx++, maxlen);
    2b40:	2444           	moveal %d4,%a2
  while (*format)
    2b42:	1014           	moveb %a4@,%d0
    2b44:	6600 fee2      	bnew 2a28 <_vsnprintf+0x32>
    2b48:	6000 ff02      	braw 2a4c <_vsnprintf+0x56>
        case '0': flags |= FLAGS_ZEROPAD; format++; n = 1U; break;
    2b4c:	7001           	moveq #1,%d0
    2b4e:	8280           	orl %d0,%d1
  while (*format)
    2b50:	2848           	moveal %a0,%a4
    2b52:	6000 ff1e      	braw 2a72 <_vsnprintf+0x7c>
        case '-': flags |= FLAGS_LEFT;    format++; n = 1U; break;
    2b56:	7a02           	moveq #2,%d5
    2b58:	8285           	orl %d5,%d1
  while (*format)
    2b5a:	2848           	moveal %a0,%a4
    2b5c:	6000 ff14      	braw 2a72 <_vsnprintf+0x7c>
        case '+': flags |= FLAGS_PLUS;    format++; n = 1U; break;
    2b60:	7004           	moveq #4,%d0
    2b62:	8280           	orl %d0,%d1
  while (*format)
    2b64:	2848           	moveal %a0,%a4
    2b66:	6000 ff0a      	braw 2a72 <_vsnprintf+0x7c>
        case '#': flags |= FLAGS_HASH;    format++; n = 1U; break;
    2b6a:	7010           	moveq #16,%d0
    2b6c:	8280           	orl %d0,%d1
  while (*format)
    2b6e:	2848           	moveal %a0,%a4
    2b70:	6000 ff00      	braw 2a72 <_vsnprintf+0x7c>
        case ' ': flags |= FLAGS_SPACE;   format++; n = 1U; break;
    2b74:	7a08           	moveq #8,%d5
    2b76:	8285           	orl %d5,%d1
  while (*format)
    2b78:	2848           	moveal %a0,%a4
    2b7a:	6000 fef6      	braw 2a72 <_vsnprintf+0x7c>
  unsigned int i = 0U;
    2b7e:	97cb           	subal %a3,%a3
    i = i * 10U + (unsigned int)(*((*str)++) - '0');
    2b80:	2848           	moveal %a0,%a4
    2b82:	43f3 b800      	lea %a3@(0,%a3:l),%a1
    2b86:	d3c9           	addal %a1,%a1
    2b88:	47f1 b800      	lea %a1@(0,%a3:l),%a3
    2b8c:	d7cb           	addal %a3,%a3
    2b8e:	4880           	extw %d0
    2b90:	47f3 00d0      	lea %a3@(ffffffffffffffd0,%d0:w),%a3
  while (_is_digit(**str)) {
    2b94:	1010           	moveb %a0@,%d0
  return (ch >= '0') && (ch <= '9');
    2b96:	1800           	moveb %d0,%d4
    2b98:	0604 ffd0      	addib #-48,%d4
    2b9c:	5288           	addql #1,%a0
  while (_is_digit(**str)) {
    2b9e:	0c04 0009      	cmpib #9,%d4
    2ba2:	6200 ff28      	bhiw 2acc <_vsnprintf+0xd6>
    i = i * 10U + (unsigned int)(*((*str)++) - '0');
    2ba6:	2848           	moveal %a0,%a4
    2ba8:	43f3 b800      	lea %a3@(0,%a3:l),%a1
    2bac:	d3c9           	addal %a1,%a1
    2bae:	47f1 b800      	lea %a1@(0,%a3:l),%a3
    2bb2:	d7cb           	addal %a3,%a3
    2bb4:	4880           	extw %d0
    2bb6:	47f3 00d0      	lea %a3@(ffffffffffffffd0,%d0:w),%a3
  while (_is_digit(**str)) {
    2bba:	1010           	moveb %a0@,%d0
  return (ch >= '0') && (ch <= '9');
    2bbc:	1800           	moveb %d0,%d4
    2bbe:	0604 ffd0      	addib #-48,%d4
    2bc2:	5288           	addql #1,%a0
  while (_is_digit(**str)) {
    2bc4:	0c04 0009      	cmpib #9,%d4
    2bc8:	63b6           	blss 2b80 <_vsnprintf+0x18a>
    2bca:	6000 ff00      	braw 2acc <_vsnprintf+0xd6>
      flags |= FLAGS_PRECISION;
    2bce:	0041 0400      	oriw #1024,%d1
      if (_is_digit(*format)) {
    2bd2:	102c 0001      	moveb %a4@(1),%d0
  return (ch >= '0') && (ch <= '9');
    2bd6:	1a00           	moveb %d0,%d5
    2bd8:	0605 ffd0      	addib #-48,%d5
      if (_is_digit(*format)) {
    2bdc:	0c05 0009      	cmpib #9,%d5
    2be0:	6300 02f6      	blsw 2ed8 <_vsnprintf+0x4e2>
      else if (*format == '*') {
    2be4:	0c00 002a      	cmpib #42,%d0
    2be8:	6700 0334      	beqw 2f1e <_vsnprintf+0x528>
      format++;
    2bec:	2848           	moveal %a0,%a4
    precision = 0U;
    2bee:	7e00           	moveq #0,%d7
    2bf0:	5288           	addql #1,%a0
        format++;
    2bf2:	2808           	movel %a0,%d4
    switch (*format) {
    2bf4:	0c00 006c      	cmpib #108,%d0
    2bf8:	6600 fee6      	bnew 2ae0 <_vsnprintf+0xea>
        if (*format == 'l') {
    2bfc:	102c 0001      	moveb %a4@(1),%d0
    2c00:	0c00 006c      	cmpib #108,%d0
    2c04:	6700 040a      	beqw 3010 <_vsnprintf+0x61a>
        flags |= FLAGS_LONG;
    2c08:	0041 0100      	oriw #256,%d1
        format++;
    2c0c:	2844           	moveal %d4,%a4
    2c0e:	528c           	addql #1,%a4
    switch (*format) {
    2c10:	0c00 0078      	cmpib #120,%d0
    2c14:	6f00 fef6      	blew 2b0c <_vsnprintf+0x116>
    2c18:	6000 0088      	braw 2ca2 <_vsnprintf+0x2ac>
    switch (*format) {
    2c1c:	0c00 007a      	cmpib #122,%d0
    2c20:	6600 00a2      	bnew 2cc4 <_vsnprintf+0x2ce>
        flags |= (sizeof(size_t) == sizeof(long) ? FLAGS_LONG : FLAGS_LONG_LONG);
    2c24:	0041 0100      	oriw #256,%d1
        if (*format == 'l') {
    2c28:	102c 0001      	moveb %a4@(1),%d0
        format++;
    2c2c:	2844           	moveal %d4,%a4
    2c2e:	528c           	addql #1,%a4
    switch (*format) {
    2c30:	0c00 0078      	cmpib #120,%d0
    2c34:	6f00 fed6      	blew 2b0c <_vsnprintf+0x116>
    2c38:	6068           	bras 2ca2 <_vsnprintf+0x2ac>
      const int w = va_arg(va, int);
    2c3a:	2243           	moveal %d3,%a1
    2c3c:	2659           	moveal %a1@+,%a3
    2c3e:	2609           	movel %a1,%d3
      if (w < 0) {
    2c40:	b6fc 0000      	cmpaw #0,%a3
    2c44:	6d00 0124      	bltw 2d6a <_vsnprintf+0x374>
    if (*format == '.') {
    2c48:	102c 0001      	moveb %a4@(1),%d0
      format++;
    2c4c:	2848           	moveal %a0,%a4
    2c4e:	5288           	addql #1,%a0
    2c50:	6000 fe7a      	braw 2acc <_vsnprintf+0xd6>
    out = _out_null;
    2c54:	4bf9 0000 2380 	lea 2380 <_out_null>,%a5
  while (*format)
    2c5a:	1014           	moveb %a4@,%d0
    2c5c:	95ca           	subal %a2,%a2
    2c5e:	4a00           	tstb %d0
    2c60:	6600 fdc0      	bnew 2a22 <_vsnprintf+0x2c>
    2c64:	7600           	moveq #0,%d3
  out((char)0, buffer, idx < maxlen ? idx : maxlen - 1U, maxlen);
    2c66:	b5c2           	cmpal %d2,%a2
    2c68:	6500 fdec      	bcsw 2a56 <_vsnprintf+0x60>
    2c6c:	6000 fde4      	braw 2a52 <_vsnprintf+0x5c>
        format++;
    2c70:	2848           	moveal %a0,%a4
    switch (*format) {
    2c72:	0c00 0063      	cmpib #99,%d0
    2c76:	6f00 fe9c      	blew 2b14 <_vsnprintf+0x11e>
    2c7a:	1a00           	moveb %d0,%d5
    2c7c:	0605 ff9c      	addib #-100,%d5
    2c80:	0285 0000 00ff 	andil #255,%d5
    2c86:	7801           	moveq #1,%d4
    2c88:	ebac           	lsll %d5,%d4
    2c8a:	0284 0012 0821 	andil #1181729,%d4
    2c90:	6652           	bnes 2ce4 <_vsnprintf+0x2ee>
    2c92:	0c00 0073      	cmpib #115,%d0
    2c96:	6700 0140      	beqw 2dd8 <_vsnprintf+0x3e2>
    2c9a:	0c00 0070      	cmpib #112,%d0
    2c9e:	6700 00e0      	beqw 2d80 <_vsnprintf+0x38a>
        out(*format, buffer, idx++, maxlen);
    2ca2:	280a           	movel %a2,%d4
    2ca4:	5284           	addql #1,%d4
    2ca6:	2f02           	movel %d2,%sp@-
    2ca8:	2f0a           	movel %a2,%sp@-
    2caa:	2f06           	movel %d6,%sp@-
    2cac:	4880           	extw %d0
    2cae:	3240           	moveaw %d0,%a1
    2cb0:	2f09           	movel %a1,%sp@-
    2cb2:	4e95           	jsr %a5@
        break;
    2cb4:	4fef 0010      	lea %sp@(16),%sp
        out(*format, buffer, idx++, maxlen);
    2cb8:	2444           	moveal %d4,%a2
  while (*format)
    2cba:	1014           	moveb %a4@,%d0
    2cbc:	6600 fd6a      	bnew 2a28 <_vsnprintf+0x32>
    2cc0:	6000 fd8a      	braw 2a4c <_vsnprintf+0x56>
        format++;
    2cc4:	2848           	moveal %a0,%a4
    switch (*format) {
    2cc6:	0c00 0078      	cmpib #120,%d0
    2cca:	6ed6           	bgts 2ca2 <_vsnprintf+0x2ac>
    2ccc:	1a00           	moveb %d0,%d5
    2cce:	0605 ff9c      	addib #-100,%d5
    2cd2:	0285 0000 00ff 	andil #255,%d5
    2cd8:	7801           	moveq #1,%d4
    2cda:	ebac           	lsll %d5,%d4
    2cdc:	0284 0012 0821 	andil #1181729,%d4
    2ce2:	67ae           	beqs 2c92 <_vsnprintf+0x29c>
        if (*format == 'x' || *format == 'X') {
    2ce4:	0c00 006f      	cmpib #111,%d0
    2ce8:	6700 025c      	beqw 2f46 <_vsnprintf+0x550>
    2cec:	6e00 03f2      	bgtw 30e0 <_vsnprintf+0x6ea>
          flags &= ~FLAGS_HASH;   // no hash for dec format
    2cf0:	78ef           	moveq #-17,%d4
    2cf2:	c881           	andl %d1,%d4
        if ((*format != 'i') && (*format != 'd')) {
    2cf4:	0c00 0069      	cmpib #105,%d0
    2cf8:	6600 045e      	bnew 3158 <_vsnprintf+0x762>
        if (flags & FLAGS_PRECISION) {
    2cfc:	0801 000a      	btst #10,%d1
    2d00:	6704           	beqs 2d06 <_vsnprintf+0x310>
          flags &= ~FLAGS_ZEROPAD;
    2d02:	78ee           	moveq #-18,%d4
    2d04:	c881           	andl %d1,%d4
          if (flags & FLAGS_LONG_LONG) {
    2d06:	0804 0009      	btst #9,%d4
    2d0a:	6600 fd3c      	bnew 2a48 <_vsnprintf+0x52>
            const long value = va_arg(va, long);
    2d0e:	2a03           	movel %d3,%d5
    2d10:	5885           	addql #4,%d5
          else if (flags & FLAGS_LONG) {
    2d12:	0804 0008      	btst #8,%d4
    2d16:	6600 0470      	bnew 3188 <_vsnprintf+0x792>
            const int value = (flags & FLAGS_CHAR) ? (char)va_arg(va, int) : (flags & FLAGS_SHORT) ? (short int)va_arg(va, int) : va_arg(va, int);
    2d1a:	0804 0006      	btst #6,%d4
    2d1e:	6600 03e0      	bnew 3100 <_vsnprintf+0x70a>
    2d22:	4a04           	tstb %d4
    2d24:	6a00 04ac      	bplw 31d2 <_vsnprintf+0x7dc>
    2d28:	2043           	moveal %d3,%a0
    2d2a:	2010           	movel %a0@,%d0
    2d2c:	48c0           	extl %d0
            idx = _ntoa_long(out, buffer, idx, maxlen, (unsigned int)(value > 0 ? value : 0 - value), value < 0, base, precision, width, flags);
    2d2e:	2f04           	movel %d4,%sp@-
    2d30:	2f0b           	movel %a3,%sp@-
    2d32:	2f07           	movel %d7,%sp@-
    2d34:	4878 000a      	pea a <DUART_IMR>
    2d38:	2200           	movel %d0,%d1
    2d3a:	d281           	addl %d1,%d1
    2d3c:	9381           	subxl %d1,%d1
    2d3e:	4481           	negl %d1
    2d40:	2f01           	movel %d1,%sp@-
    2d42:	4a80           	tstl %d0
    2d44:	6d00 03dc      	bltw 3122 <_vsnprintf+0x72c>
    2d48:	2f00           	movel %d0,%sp@-
    2d4a:	2f02           	movel %d2,%sp@-
    2d4c:	2f0a           	movel %a2,%sp@-
    2d4e:	2f06           	movel %d6,%sp@-
    2d50:	2f0d           	movel %a5,%sp@-
    2d52:	4eb9 0000 2382 	jsr 2382 <_ntoa_long>
    2d58:	2440           	moveal %d0,%a2
    2d5a:	4fef 0028      	lea %sp@(40),%sp
    2d5e:	2605           	movel %d5,%d3
  while (*format)
    2d60:	1014           	moveb %a4@,%d0
    2d62:	6600 fcc4      	bnew 2a28 <_vsnprintf+0x32>
    2d66:	6000 fce4      	braw 2a4c <_vsnprintf+0x56>
        flags |= FLAGS_LEFT;    // reverse padding
    2d6a:	7002           	moveq #2,%d0
    2d6c:	8280           	orl %d0,%d1
        width = (unsigned int)-w;
    2d6e:	2a0b           	movel %a3,%d5
    2d70:	4485           	negl %d5
    2d72:	2645           	moveal %d5,%a3
    if (*format == '.') {
    2d74:	102c 0001      	moveb %a4@(1),%d0
      format++;
    2d78:	2848           	moveal %a0,%a4
    2d7a:	5288           	addql #1,%a0
    2d7c:	6000 fd4e      	braw 2acc <_vsnprintf+0xd6>
          idx = _ntoa_long(out, buffer, idx, maxlen, (unsigned long)((uintptr_t)va_arg(va, void*)), false, 16U, precision, width, flags);
    2d80:	7021           	moveq #33,%d0
    2d82:	8081           	orl %d1,%d0
    2d84:	2f00           	movel %d0,%sp@-
    2d86:	4878 0008      	pea 8 <DUART_ACR>
    2d8a:	2f07           	movel %d7,%sp@-
    2d8c:	4878 0010      	pea 10 <DUART_MR1B>
    2d90:	42a7           	clrl %sp@-
    2d92:	2043           	moveal %d3,%a0
    2d94:	2f18           	movel %a0@+,%sp@-
    2d96:	2608           	movel %a0,%d3
    2d98:	2f02           	movel %d2,%sp@-
    2d9a:	2f0a           	movel %a2,%sp@-
    2d9c:	2f06           	movel %d6,%sp@-
    2d9e:	2f0d           	movel %a5,%sp@-
    2da0:	4eb9 0000 2382 	jsr 2382 <_ntoa_long>
    2da6:	2440           	moveal %d0,%a2
        break;
    2da8:	4fef 0028      	lea %sp@(40),%sp
  while (*format)
    2dac:	1014           	moveb %a4@,%d0
    2dae:	6600 fc78      	bnew 2a28 <_vsnprintf+0x32>
    2db2:	6000 fc98      	braw 2a4c <_vsnprintf+0x56>
        if (*format == 'h') {
    2db6:	102c 0001      	moveb %a4@(1),%d0
    2dba:	0c00 0068      	cmpib #104,%d0
    2dbe:	6700 0232      	beqw 2ff2 <_vsnprintf+0x5fc>
        flags |= FLAGS_SHORT;
    2dc2:	7a7f           	moveq #127,%d5
    2dc4:	4605           	notb %d5
    2dc6:	8285           	orl %d5,%d1
        format++;
    2dc8:	2844           	moveal %d4,%a4
    2dca:	528c           	addql #1,%a4
    switch (*format) {
    2dcc:	0c00 0078      	cmpib #120,%d0
    2dd0:	6f00 fd3a      	blew 2b0c <_vsnprintf+0x116>
    2dd4:	6000 fecc      	braw 2ca2 <_vsnprintf+0x2ac>
        const char* p = va_arg(va, char*);
    2dd8:	2f43 0030      	movel %d3,%sp@(48)
    2ddc:	2243           	moveal %d3,%a1
    2dde:	58af 0030      	addql #4,%sp@(48)
    2de2:	2619           	movel %a1@+,%d3
  for (s = str; *s && maxsize--; ++s);
    2de4:	2043           	moveal %d3,%a0
    2de6:	1f50 002f      	moveb %a0@,%sp@(47)
    2dea:	102f 002f      	moveb %sp@(47),%d0
        unsigned int l = _strnlen_s(p, precision ? precision : (size_t)-1);
    2dee:	4a87           	tstl %d7
    2df0:	6700 0118      	beqw 2f0a <_vsnprintf+0x514>
  for (s = str; *s && maxsize--; ++s);
    2df4:	4a00           	tstb %d0
    2df6:	671a           	beqs 2e12 <_vsnprintf+0x41c>
    2df8:	2807           	movel %d7,%d4
    2dfa:	5384           	subql #1,%d4
    2dfc:	2043           	moveal %d3,%a0
    2dfe:	43f0 4801      	lea %a0@(1,%d4:l),%a1
    2e02:	5288           	addql #1,%a0
    2e04:	4a10           	tstb %a0@
    2e06:	6700 01e2      	beqw 2fea <_vsnprintf+0x5f4>
    2e0a:	b1c9           	cmpal %a1,%a0
    2e0c:	66f4           	bnes 2e02 <_vsnprintf+0x40c>
  return (unsigned int)(s - str);
    2e0e:	2809           	movel %a1,%d4
    2e10:	9883           	subl %d3,%d4
        if (flags & FLAGS_PRECISION) {
    2e12:	2a01           	movel %d1,%d5
    2e14:	0285 0000 0400 	andil #1024,%d5
    2e1a:	2245           	moveal %d5,%a1
    2e1c:	0801 000a      	btst #10,%d1
    2e20:	6706           	beqs 2e28 <_vsnprintf+0x432>
          l = (l < precision ? l : precision);
    2e22:	be84           	cmpl %d4,%d7
    2e24:	6402           	bccs 2e28 <_vsnprintf+0x432>
    2e26:	2807           	movel %d7,%d4
        if (!(flags & FLAGS_LEFT)) {
    2e28:	7a02           	moveq #2,%d5
    2e2a:	ca81           	andl %d1,%d5
    2e2c:	2f45 0034      	movel %d5,%sp@(52)
    2e30:	0801 0001      	btst #1,%d1
    2e34:	6700 0258      	beqw 308e <_vsnprintf+0x698>
        while ((*p != 0) && (!(flags & FLAGS_PRECISION) || precision--)) {
    2e38:	4a2f 002f      	tstb %sp@(47)
    2e3c:	6700 017a      	beqw 2fb8 <_vsnprintf+0x5c2>
    2e40:	220a           	movel %a2,%d1
    2e42:	2a09           	movel %a1,%d5
    2e44:	204b           	moveal %a3,%a0
    2e46:	2643           	moveal %d3,%a3
    2e48:	224c           	moveal %a4,%a1
    2e4a:	284a           	moveal %a2,%a4
    2e4c:	2447           	moveal %d7,%a2
    2e4e:	2e09           	movel %a1,%d7
    2e50:	2608           	movel %a0,%d3
    2e52:	4a85           	tstl %d5
    2e54:	670e           	beqs 2e64 <_vsnprintf+0x46e>
    2e56:	41ea ffff      	lea %a2@(-1),%a0
    2e5a:	b4fc 0000      	cmpaw #0,%a2
    2e5e:	6700 014c      	beqw 2fac <_vsnprintf+0x5b6>
    2e62:	2448           	moveal %a0,%a2
          out(*(p++), buffer, idx++, maxlen);
    2e64:	528c           	addql #1,%a4
    2e66:	528b           	addql #1,%a3
    2e68:	2f02           	movel %d2,%sp@-
    2e6a:	2f01           	movel %d1,%sp@-
    2e6c:	2f06           	movel %d6,%sp@-
    2e6e:	4880           	extw %d0
    2e70:	3240           	moveaw %d0,%a1
    2e72:	2f09           	movel %a1,%sp@-
    2e74:	4e95           	jsr %a5@
        while ((*p != 0) && (!(flags & FLAGS_PRECISION) || precision--)) {
    2e76:	1013           	moveb %a3@,%d0
    2e78:	4fef 0010      	lea %sp@(16),%sp
    2e7c:	6700 012e      	beqw 2fac <_vsnprintf+0x5b6>
    2e80:	220c           	movel %a4,%d1
    2e82:	60ce           	bras 2e52 <_vsnprintf+0x45c>
      out(*format, buffer, idx++, maxlen);
    2e84:	280a           	movel %a2,%d4
    2e86:	5284           	addql #1,%d4
            const long value = va_arg(va, long);
    2e88:	2a03           	movel %d3,%d5
    2e8a:	5885           	addql #4,%d5
        if (!(flags & FLAGS_LEFT)) {
    2e8c:	0801 0001      	btst #1,%d1
    2e90:	6700 01b6      	beqw 3048 <_vsnprintf+0x652>
        out((char)va_arg(va, int), buffer, idx++, maxlen);
    2e94:	2f02           	movel %d2,%sp@-
    2e96:	2f0a           	movel %a2,%sp@-
    2e98:	2f06           	movel %d6,%sp@-
    2e9a:	2043           	moveal %d3,%a0
    2e9c:	2010           	movel %a0@,%d0
    2e9e:	4880           	extw %d0
    2ea0:	3240           	moveaw %d0,%a1
    2ea2:	2f09           	movel %a1,%sp@-
    2ea4:	4e95           	jsr %a5@
          while (l++ < width) {
    2ea6:	4fef 0010      	lea %sp@(16),%sp
    2eaa:	d5cb           	addal %a3,%a2
    2eac:	7001           	moveq #1,%d0
    2eae:	b08b           	cmpl %a3,%d0
    2eb0:	6400 02ce      	bccw 3180 <_vsnprintf+0x78a>
            out(' ', buffer, idx++, maxlen);
    2eb4:	2004           	movel %d4,%d0
    2eb6:	5284           	addql #1,%d4
    2eb8:	2f02           	movel %d2,%sp@-
    2eba:	2f00           	movel %d0,%sp@-
    2ebc:	2f06           	movel %d6,%sp@-
    2ebe:	4878 0020      	pea 20 <R_STOPCNTCMD+0x2>
    2ec2:	4e95           	jsr %a5@
          while (l++ < width) {
    2ec4:	4fef 0010      	lea %sp@(16),%sp
    2ec8:	b5c4           	cmpal %d4,%a2
    2eca:	66e8           	bnes 2eb4 <_vsnprintf+0x4be>
        out((char)va_arg(va, int), buffer, idx++, maxlen);
    2ecc:	2605           	movel %d5,%d3
  while (*format)
    2ece:	1014           	moveb %a4@,%d0
    2ed0:	6600 fb56      	bnew 2a28 <_vsnprintf+0x32>
    2ed4:	6000 fb76      	braw 2a4c <_vsnprintf+0x56>
  unsigned int i = 0U;
    2ed8:	7e00           	moveq #0,%d7
    2eda:	2848           	moveal %a0,%a4
    2edc:	2047           	moveal %d7,%a0
    i = i * 10U + (unsigned int)(*((*str)++) - '0');
    2ede:	528c           	addql #1,%a4
    2ee0:	43f0 8800      	lea %a0@(0,%a0:l),%a1
    2ee4:	d3c9           	addal %a1,%a1
    2ee6:	41f1 8800      	lea %a1@(0,%a0:l),%a0
    2eea:	d1c8           	addal %a0,%a0
    2eec:	4880           	extw %d0
    2eee:	41f0 00d0      	lea %a0@(ffffffffffffffd0,%d0:w),%a0
  while (_is_digit(**str)) {
    2ef2:	1014           	moveb %a4@,%d0
  return (ch >= '0') && (ch <= '9');
    2ef4:	1800           	moveb %d0,%d4
    2ef6:	0604 ffd0      	addib #-48,%d4
  while (_is_digit(**str)) {
    2efa:	0c04 0009      	cmpib #9,%d4
    2efe:	63de           	blss 2ede <_vsnprintf+0x4e8>
    2f00:	2e08           	movel %a0,%d7
    2f02:	41ec 0001      	lea %a4@(1),%a0
    2f06:	6000 fbce      	braw 2ad6 <_vsnprintf+0xe0>
  for (s = str; *s && maxsize--; ++s);
    2f0a:	4a2f 002f      	tstb %sp@(47)
    2f0e:	6700 ff02      	beqw 2e12 <_vsnprintf+0x41c>
    2f12:	78fe           	moveq #-2,%d4
    2f14:	2043           	moveal %d3,%a0
    2f16:	43f0 4801      	lea %a0@(1,%d4:l),%a1
    2f1a:	6000 fee6      	braw 2e02 <_vsnprintf+0x40c>
        precision = prec > 0 ? (unsigned int)prec : 0U;
    2f1e:	2043           	moveal %d3,%a0
    2f20:	2e18           	movel %a0@+,%d7
    2f22:	2608           	movel %a0,%d3
    2f24:	4a87           	tstl %d7
    2f26:	6d0e           	blts 2f36 <_vsnprintf+0x540>
    switch (*format) {
    2f28:	102c 0002      	moveb %a4@(2),%d0
        format++;
    2f2c:	548c           	addql #2,%a4
    2f2e:	41ec 0001      	lea %a4@(1),%a0
    2f32:	6000 fba2      	braw 2ad6 <_vsnprintf+0xe0>
        precision = prec > 0 ? (unsigned int)prec : 0U;
    2f36:	7e00           	moveq #0,%d7
    switch (*format) {
    2f38:	102c 0002      	moveb %a4@(2),%d0
        format++;
    2f3c:	548c           	addql #2,%a4
    2f3e:	41ec 0001      	lea %a4@(1),%a0
    2f42:	6000 fb92      	braw 2ad6 <_vsnprintf+0xe0>
    switch (*format) {
    2f46:	307c 0008      	moveaw #8,%a0
        if (flags & FLAGS_PRECISION) {
    2f4a:	0801 000a      	btst #10,%d1
    2f4e:	6600 00dc      	bnew 302c <_vsnprintf+0x636>
          flags &= ~(FLAGS_PLUS | FLAGS_SPACE);
    2f52:	70f3           	moveq #-13,%d0
    2f54:	c280           	andl %d0,%d1
          if (flags & FLAGS_LONG_LONG) {
    2f56:	0801 0009      	btst #9,%d1
    2f5a:	6600 faec      	bnew 2a48 <_vsnprintf+0x52>
            const long value = va_arg(va, long);
    2f5e:	2803           	movel %d3,%d4
    2f60:	5884           	addql #4,%d4
          else if (flags & FLAGS_LONG) {
    2f62:	0801 0008      	btst #8,%d1
    2f66:	6600 0242      	bnew 31aa <_vsnprintf+0x7b4>
            const unsigned int value = (flags & FLAGS_CHAR) ? (unsigned char)va_arg(va, unsigned int) : (flags & FLAGS_SHORT) ? (unsigned short int)va_arg(va, unsigned int) : va_arg(va, unsigned int);
    2f6a:	0801 0006      	btst #6,%d1
    2f6e:	6600 01d0      	bnew 3140 <_vsnprintf+0x74a>
    2f72:	2243           	moveal %d3,%a1
    2f74:	2011           	movel %a1@,%d0
    2f76:	4a01           	tstb %d1
    2f78:	6a06           	bpls 2f80 <_vsnprintf+0x58a>
    2f7a:	0280 0000 ffff 	andil #65535,%d0
            idx = _ntoa_long(out, buffer, idx, maxlen, value, false, base, precision, width, flags);
    2f80:	2f01           	movel %d1,%sp@-
    2f82:	2f0b           	movel %a3,%sp@-
    2f84:	2f07           	movel %d7,%sp@-
    2f86:	2f08           	movel %a0,%sp@-
    2f88:	42a7           	clrl %sp@-
    2f8a:	2f00           	movel %d0,%sp@-
    2f8c:	2f02           	movel %d2,%sp@-
    2f8e:	2f0a           	movel %a2,%sp@-
    2f90:	2f06           	movel %d6,%sp@-
    2f92:	2f0d           	movel %a5,%sp@-
    2f94:	4eb9 0000 2382 	jsr 2382 <_ntoa_long>
    2f9a:	2440           	moveal %d0,%a2
    2f9c:	4fef 0028      	lea %sp@(40),%sp
    2fa0:	2604           	movel %d4,%d3
  while (*format)
    2fa2:	1014           	moveb %a4@,%d0
    2fa4:	6600 fa82      	bnew 2a28 <_vsnprintf+0x32>
    2fa8:	6000 faa2      	braw 2a4c <_vsnprintf+0x56>
    2fac:	2643           	moveal %d3,%a3
    2fae:	244c           	moveal %a4,%a2
    2fb0:	2847           	moveal %d7,%a4
        if (flags & FLAGS_LEFT) {
    2fb2:	4aaf 0034      	tstl %sp@(52)
    2fb6:	6724           	beqs 2fdc <_vsnprintf+0x5e6>
    2fb8:	2a0a           	movel %a2,%d5
          while (l++ < width) {
    2fba:	b88b           	cmpl %a3,%d4
    2fbc:	641e           	bccs 2fdc <_vsnprintf+0x5e6>
    2fbe:	45f3 a800      	lea %a3@(0,%a2:l),%a2
    2fc2:	95c4           	subal %d4,%a2
            out(' ', buffer, idx++, maxlen);
    2fc4:	2005           	movel %d5,%d0
    2fc6:	5285           	addql #1,%d5
    2fc8:	2f02           	movel %d2,%sp@-
    2fca:	2f00           	movel %d0,%sp@-
    2fcc:	2f06           	movel %d6,%sp@-
    2fce:	4878 0020      	pea 20 <R_STOPCNTCMD+0x2>
    2fd2:	4e95           	jsr %a5@
          while (l++ < width) {
    2fd4:	4fef 0010      	lea %sp@(16),%sp
    2fd8:	ba8a           	cmpl %a2,%d5
    2fda:	66e8           	bnes 2fc4 <_vsnprintf+0x5ce>
        const char* p = va_arg(va, char*);
    2fdc:	262f 0030      	movel %sp@(48),%d3
  while (*format)
    2fe0:	1014           	moveb %a4@,%d0
    2fe2:	6600 fa44      	bnew 2a28 <_vsnprintf+0x32>
    2fe6:	6000 fa64      	braw 2a4c <_vsnprintf+0x56>
  return (unsigned int)(s - str);
    2fea:	2808           	movel %a0,%d4
    2fec:	9883           	subl %d3,%d4
    2fee:	6000 fe22      	braw 2e12 <_vsnprintf+0x41c>
          flags |= FLAGS_CHAR;
    2ff2:	703f           	moveq #63,%d0
    2ff4:	4600           	notb %d0
    2ff6:	8280           	orl %d0,%d1
          format++;
    2ff8:	280c           	movel %a4,%d4
    2ffa:	5484           	addql #2,%d4
    switch (*format) {
    2ffc:	102c 0002      	moveb %a4@(2),%d0
        format++;
    3000:	2844           	moveal %d4,%a4
    3002:	528c           	addql #1,%a4
    switch (*format) {
    3004:	0c00 0078      	cmpib #120,%d0
    3008:	6f00 fb02      	blew 2b0c <_vsnprintf+0x116>
    300c:	6000 fc94      	braw 2ca2 <_vsnprintf+0x2ac>
          flags |= FLAGS_LONG_LONG;
    3010:	0041 0300      	oriw #768,%d1
          format++;
    3014:	280c           	movel %a4,%d4
    3016:	5484           	addql #2,%d4
    switch (*format) {
    3018:	102c 0002      	moveb %a4@(2),%d0
        format++;
    301c:	2844           	moveal %d4,%a4
    301e:	528c           	addql #1,%a4
    switch (*format) {
    3020:	0c00 0078      	cmpib #120,%d0
    3024:	6f00 fae6      	blew 2b0c <_vsnprintf+0x116>
    3028:	6000 fc78      	braw 2ca2 <_vsnprintf+0x2ac>
          flags &= ~FLAGS_ZEROPAD;
    302c:	70f2           	moveq #-14,%d0
    302e:	c280           	andl %d0,%d1
        if ((*format == 'i') || (*format == 'd')) {
    3030:	6000 ff24      	braw 2f56 <_vsnprintf+0x560>
    switch (*format) {
    3034:	0c00 0058      	cmpib #88,%d0
    3038:	6600 fc68      	bnew 2ca2 <_vsnprintf+0x2ac>
          flags |= FLAGS_UPPERCASE;
    303c:	7a20           	moveq #32,%d5
    303e:	8285           	orl %d5,%d1
    3040:	307c 0010      	moveaw #16,%a0
    3044:	6000 ff04      	braw 2f4a <_vsnprintf+0x554>
          while (l++ < width) {
    3048:	7001           	moveq #1,%d0
    304a:	b08b           	cmpl %a3,%d0
    304c:	6400 011c      	bccw 316a <_vsnprintf+0x774>
    3050:	41f3 a8ff      	lea %a3@(ffffffffffffffff,%a2:l),%a0
    3054:	2e08           	movel %a0,%d7
    3056:	280a           	movel %a2,%d4
            out(' ', buffer, idx++, maxlen);
    3058:	2004           	movel %d4,%d0
    305a:	5284           	addql #1,%d4
    305c:	2f02           	movel %d2,%sp@-
    305e:	2f00           	movel %d0,%sp@-
    3060:	2f06           	movel %d6,%sp@-
    3062:	4878 0020      	pea 20 <R_STOPCNTCMD+0x2>
    3066:	4e95           	jsr %a5@
          while (l++ < width) {
    3068:	4fef 0010      	lea %sp@(16),%sp
    306c:	b887           	cmpl %d7,%d4
    306e:	66e8           	bnes 3058 <_vsnprintf+0x662>
        out((char)va_arg(va, int), buffer, idx++, maxlen);
    3070:	d5cb           	addal %a3,%a2
    3072:	2f02           	movel %d2,%sp@-
    3074:	2f07           	movel %d7,%sp@-
    3076:	2f06           	movel %d6,%sp@-
    3078:	2243           	moveal %d3,%a1
    307a:	2011           	movel %a1@,%d0
    307c:	4880           	extw %d0
    307e:	3040           	moveaw %d0,%a0
    3080:	2f08           	movel %a0,%sp@-
    3082:	4e95           	jsr %a5@
    3084:	4fef 0010      	lea %sp@(16),%sp
    3088:	2605           	movel %d5,%d3
    308a:	6000 fe42      	braw 2ece <_vsnprintf+0x4d8>
          while (l++ < width) {
    308e:	b88b           	cmpl %a3,%d4
    3090:	6400 0162      	bccw 31f4 <_vsnprintf+0x7fe>
    3094:	200b           	movel %a3,%d0
    3096:	d08a           	addl %a2,%d0
    3098:	9084           	subl %d4,%d0
    309a:	2800           	movel %d0,%d4
    309c:	2a09           	movel %a1,%d5
            out(' ', buffer, idx++, maxlen);
    309e:	200a           	movel %a2,%d0
    30a0:	528a           	addql #1,%a2
    30a2:	2f02           	movel %d2,%sp@-
    30a4:	2f00           	movel %d0,%sp@-
    30a6:	2f06           	movel %d6,%sp@-
    30a8:	4878 0020      	pea 20 <R_STOPCNTCMD+0x2>
    30ac:	4e95           	jsr %a5@
          while (l++ < width) {
    30ae:	4fef 0010      	lea %sp@(16),%sp
    30b2:	b5c4           	cmpal %d4,%a2
    30b4:	66e8           	bnes 309e <_vsnprintf+0x6a8>
    30b6:	2245           	moveal %d5,%a1
    30b8:	280b           	movel %a3,%d4
    30ba:	5284           	addql #1,%d4
    30bc:	2043           	moveal %d3,%a0
    30be:	1f50 002f      	moveb %a0@,%sp@(47)
        while ((*p != 0) && (!(flags & FLAGS_PRECISION) || precision--)) {
    30c2:	102f 002f      	moveb %sp@(47),%d0
    30c6:	6700 ff14      	beqw 2fdc <_vsnprintf+0x5e6>
    30ca:	220a           	movel %a2,%d1
    30cc:	2a09           	movel %a1,%d5
    30ce:	204b           	moveal %a3,%a0
    30d0:	2643           	moveal %d3,%a3
    30d2:	224c           	moveal %a4,%a1
    30d4:	284a           	moveal %a2,%a4
    30d6:	2447           	moveal %d7,%a2
    30d8:	2e09           	movel %a1,%d7
    30da:	2608           	movel %a0,%d3
    30dc:	6000 fd74      	braw 2e52 <_vsnprintf+0x45c>
    switch (*format) {
    30e0:	307c 0010      	moveaw #16,%a0
    30e4:	0c00 0078      	cmpib #120,%d0
    30e8:	6700 fe60      	beqw 2f4a <_vsnprintf+0x554>
          flags &= ~FLAGS_HASH;   // no hash for dec format
    30ec:	70ef           	moveq #-17,%d0
    30ee:	c280           	andl %d0,%d1
    30f0:	307c 000a      	moveaw #10,%a0
    30f4:	6000 fe54      	braw 2f4a <_vsnprintf+0x554>
    switch (*format) {
    30f8:	307c 0002      	moveaw #2,%a0
    30fc:	6000 fe4c      	braw 2f4a <_vsnprintf+0x554>
            const int value = (flags & FLAGS_CHAR) ? (char)va_arg(va, int) : (flags & FLAGS_SHORT) ? (short int)va_arg(va, int) : va_arg(va, int);
    3100:	2243           	moveal %d3,%a1
    3102:	2011           	movel %a1@,%d0
    3104:	4880           	extw %d0
    3106:	48c0           	extl %d0
            idx = _ntoa_long(out, buffer, idx, maxlen, (unsigned int)(value > 0 ? value : 0 - value), value < 0, base, precision, width, flags);
    3108:	2f04           	movel %d4,%sp@-
    310a:	2f0b           	movel %a3,%sp@-
    310c:	2f07           	movel %d7,%sp@-
    310e:	4878 000a      	pea a <DUART_IMR>
    3112:	2200           	movel %d0,%d1
    3114:	d281           	addl %d1,%d1
    3116:	9381           	subxl %d1,%d1
    3118:	4481           	negl %d1
    311a:	2f01           	movel %d1,%sp@-
    311c:	4a80           	tstl %d0
    311e:	6c00 fc28      	bgew 2d48 <_vsnprintf+0x352>
    3122:	4480           	negl %d0
    3124:	2f00           	movel %d0,%sp@-
    3126:	2f02           	movel %d2,%sp@-
    3128:	2f0a           	movel %a2,%sp@-
    312a:	2f06           	movel %d6,%sp@-
    312c:	2f0d           	movel %a5,%sp@-
    312e:	4eb9 0000 2382 	jsr 2382 <_ntoa_long>
    3134:	2440           	moveal %d0,%a2
    3136:	4fef 0028      	lea %sp@(40),%sp
    313a:	2605           	movel %d5,%d3
    313c:	6000 fc22      	braw 2d60 <_vsnprintf+0x36a>
    3140:	7000           	moveq #0,%d0
    3142:	4600           	notb %d0
    3144:	2243           	moveal %d3,%a1
    3146:	c091           	andl %a1@,%d0
            idx = _ntoa_long(out, buffer, idx, maxlen, value, false, base, precision, width, flags);
    3148:	2f01           	movel %d1,%sp@-
    314a:	2f0b           	movel %a3,%sp@-
    314c:	2f07           	movel %d7,%sp@-
    314e:	2f08           	movel %a0,%sp@-
    3150:	42a7           	clrl %sp@-
    3152:	2f00           	movel %d0,%sp@-
    3154:	6000 fe36      	braw 2f8c <_vsnprintf+0x596>
        if ((*format != 'i') && (*format != 'd')) {
    3158:	0c00 0064      	cmpib #100,%d0
    315c:	6700 fb9e      	beqw 2cfc <_vsnprintf+0x306>
    3160:	2204           	movel %d4,%d1
    3162:	307c 000a      	moveaw #10,%a0
    3166:	6000 fde2      	braw 2f4a <_vsnprintf+0x554>
        out((char)va_arg(va, int), buffer, idx++, maxlen);
    316a:	2f02           	movel %d2,%sp@-
    316c:	2f0a           	movel %a2,%sp@-
    316e:	2f06           	movel %d6,%sp@-
    3170:	2043           	moveal %d3,%a0
    3172:	2010           	movel %a0@,%d0
    3174:	4880           	extw %d0
    3176:	3240           	moveaw %d0,%a1
    3178:	2f09           	movel %a1,%sp@-
    317a:	4e95           	jsr %a5@
    317c:	4fef 0010      	lea %sp@(16),%sp
    3180:	2444           	moveal %d4,%a2
    3182:	2605           	movel %d5,%d3
    3184:	6000 fd48      	braw 2ece <_vsnprintf+0x4d8>
            const long value = va_arg(va, long);
    3188:	2043           	moveal %d3,%a0
    318a:	2010           	movel %a0@,%d0
            idx = _ntoa_long(out, buffer, idx, maxlen, (unsigned int)(value > 0 ? value : 0 - value), value < 0, base, precision, width, flags);
    318c:	2f04           	movel %d4,%sp@-
    318e:	2f0b           	movel %a3,%sp@-
    3190:	2f07           	movel %d7,%sp@-
    3192:	4878 000a      	pea a <DUART_IMR>
    3196:	2200           	movel %d0,%d1
    3198:	d281           	addl %d1,%d1
    319a:	9381           	subxl %d1,%d1
    319c:	4481           	negl %d1
    319e:	2f01           	movel %d1,%sp@-
    31a0:	4a80           	tstl %d0
    31a2:	6c00 fba4      	bgew 2d48 <_vsnprintf+0x352>
    31a6:	6000 ff7a      	braw 3122 <_vsnprintf+0x72c>
            idx = _ntoa_long(out, buffer, idx, maxlen, va_arg(va, unsigned long), false, base, precision, width, flags);
    31aa:	2f01           	movel %d1,%sp@-
    31ac:	2f0b           	movel %a3,%sp@-
    31ae:	2f07           	movel %d7,%sp@-
    31b0:	2f08           	movel %a0,%sp@-
    31b2:	42a7           	clrl %sp@-
    31b4:	2043           	moveal %d3,%a0
    31b6:	2f10           	movel %a0@,%sp@-
            idx = _ntoa_long(out, buffer, idx, maxlen, value, false, base, precision, width, flags);
    31b8:	2f02           	movel %d2,%sp@-
    31ba:	2f0a           	movel %a2,%sp@-
    31bc:	2f06           	movel %d6,%sp@-
    31be:	2f0d           	movel %a5,%sp@-
    31c0:	4eb9 0000 2382 	jsr 2382 <_ntoa_long>
    31c6:	2440           	moveal %d0,%a2
    31c8:	4fef 0028      	lea %sp@(40),%sp
    31cc:	2604           	movel %d4,%d3
        break;
    31ce:	6000 fdd2      	braw 2fa2 <_vsnprintf+0x5ac>
            const int value = (flags & FLAGS_CHAR) ? (char)va_arg(va, int) : (flags & FLAGS_SHORT) ? (short int)va_arg(va, int) : va_arg(va, int);
    31d2:	2243           	moveal %d3,%a1
    31d4:	2011           	movel %a1@,%d0
            idx = _ntoa_long(out, buffer, idx, maxlen, (unsigned int)(value > 0 ? value : 0 - value), value < 0, base, precision, width, flags);
    31d6:	2f04           	movel %d4,%sp@-
    31d8:	2f0b           	movel %a3,%sp@-
    31da:	2f07           	movel %d7,%sp@-
    31dc:	4878 000a      	pea a <DUART_IMR>
    31e0:	2200           	movel %d0,%d1
    31e2:	d281           	addl %d1,%d1
    31e4:	9381           	subxl %d1,%d1
    31e6:	4481           	negl %d1
    31e8:	2f01           	movel %d1,%sp@-
    31ea:	4a80           	tstl %d0
    31ec:	6c00 fb5a      	bgew 2d48 <_vsnprintf+0x352>
    31f0:	6000 ff30      	braw 3122 <_vsnprintf+0x72c>
          while (l++ < width) {
    31f4:	5284           	addql #1,%d4
        while ((*p != 0) && (!(flags & FLAGS_PRECISION) || precision--)) {
    31f6:	102f 002f      	moveb %sp@(47),%d0
    31fa:	6600 fece      	bnew 30ca <_vsnprintf+0x6d4>
    31fe:	6000 fddc      	braw 2fdc <_vsnprintf+0x5e6>

00003202 <printf_>:


///////////////////////////////////////////////////////////////////////////////

int printf_(const char* format, ...)
{
    3202:	4e56 fffc      	linkw %fp,#-4
  va_list va;
  va_start(va, format);
  char buffer[1];
  const int ret = _vsnprintf(_out_char, buffer, (size_t)-1, format, va);
    3206:	486e 000c      	pea %fp@(12)
    320a:	2f2e 0008      	movel %fp@(8),%sp@-
    320e:	4878 ffff      	pea ffffffff <DUART_BASE_R2+0xff07ff57>
    3212:	486e ffff      	pea %fp@(-1)
    3216:	4879 0000 29de 	pea 29de <_out_char>
    321c:	4eb9 0000 29f6 	jsr 29f6 <_vsnprintf>
  va_end(va);
  return ret;
    3222:	4fef 0014      	lea %sp@(20),%sp
}
    3226:	4e5e           	unlk %fp
    3228:	4e75           	rts

0000322a <_putchar>:
static char crbuf[2] = { '\r', 0 };

/*
 * This is used by printf.
 */
void _putchar(char chr) {
    322a:	2f02           	movel %d2,%sp@-
    322c:	242f 0008      	movel %sp@(8),%d2
  if (chr == '\n') {
    3230:	0c02 000a      	cmpib #10,%d2
    3234:	6714           	beqs 324a <_putchar+0x20>
    // is LF, print CR too
    mcPrint(crbuf);
  }

  buf[0] = chr;
    3236:	41f9 0001 ab48 	lea 1ab48 <buf>,%a0
    323c:	1082           	moveb %d2,%a0@
  mcPrint(buf);
    323e:	2f48 0008      	movel %a0,%sp@(8)
}
    3242:	241f           	movel %sp@+,%d2
  mcPrint(buf);
    3244:	4ef9 0000 326c 	jmp 326c <mcPrint>
    mcPrint(crbuf);
    324a:	4879 0001 ab44 	pea 1ab44 <crbuf>
    3250:	4eb9 0000 326c 	jsr 326c <mcPrint>
    3256:	588f           	addql #4,%sp
  buf[0] = chr;
    3258:	41f9 0001 ab48 	lea 1ab48 <buf>,%a0
    325e:	1082           	moveb %d2,%a0@
  mcPrint(buf);
    3260:	2f48 0008      	movel %a0,%sp@(8)
}
    3264:	241f           	movel %sp@+,%d2
  mcPrint(buf);
    3266:	4ef9 0000 326c 	jmp 326c <mcPrint>

0000326c <mcPrint>:
    326c:	48e7 c080      	moveml %d0-%d1/%a0,%sp@-
    3270:	206f 0010      	moveal %sp@(16),%a0
    3274:	7200           	moveq #0,%d1
    3276:	4e4e           	trap #14
    3278:	4cdf 0103      	moveml %sp@+,%d0-%d1/%a0
    327c:	4e75           	rts

0000327e <__kinit>:

void *__dso_handle;

__attribute__((weak)) void __kinit() {
  // zero .bss
  for (uint32_t *dst = &_bss_start; dst < &_bss_end; *dst++ = 0);
    327e:	41f9 0001 ab48 	lea 1ab48 <buf>,%a0
    3284:	b1fc 0001 e358 	cmpal #123736,%a0
    328a:	641c           	bccs 32a8 <__kinit+0x2a>
    328c:	203c 0001 e358 	movel #123736,%d0
    3292:	0480 0001 ab49 	subil #109385,%d0
    3298:	72fc           	moveq #-4,%d1
    329a:	c081           	andl %d1,%d0
    329c:	0680 0001 ab4c 	addil #109388,%d0
    32a2:	4298           	clrl %a0@+
    32a4:	b088           	cmpl %a0,%d0
    32a6:	66fa           	bnes 32a2 <__kinit+0x24>
}
    32a8:	4e75           	rts

000032aa <__cxa_finalize>:
/*
 * We probably don't need the full dso_handle capability as we're always
 * statically linked, but I'd rather do a proper impl now than have it 
 * break later because of a half-baked one :D
 */
void __cxa_finalize(void *dso_handle) {
    32aa:	48e7 3020      	moveml %d2-%d3/%a2,%sp@-
    32ae:	262f 0010      	movel %sp@(16),%d3
    for (int i = cxa_atexit_count - 1; i >= 0; i--) {
    32b2:	7200           	moveq #0,%d1
    32b4:	3239 0001 ab54 	movew 1ab54 <cxa_atexit_count>,%d1
    32ba:	2401           	movel %d1,%d2
    32bc:	5382           	subql #1,%d2
    32be:	4a81           	tstl %d1
    32c0:	6738           	beqs 32fa <__cxa_finalize+0x50>
    32c2:	2001           	movel %d1,%d0
    32c4:	e788           	lsll #3,%d0
    32c6:	2440           	moveal %d0,%a2
    32c8:	95c1           	subal %d1,%a2
    32ca:	d5ca           	addal %a2,%a2
    32cc:	d5fc 0001 ab48 	addal #109384,%a2
        cxa_atexit_entry *entry = &cxa_atexits[i];

        if ((dso_handle == NULL || dso_handle == entry->dso_handle) && !entry->done) {
    32d2:	4a83           	tstl %d3
    32d4:	662a           	bnes 3300 <__cxa_finalize+0x56>
    32d6:	4a2a 000c      	tstb %a2@(12)
    32da:	6610           	bnes 32ec <__cxa_finalize+0x42>
            entry->func(entry->ptr);
    32dc:	2f2a 0004      	movel %a2@(4),%sp@-
    32e0:	2052           	moveal %a2@,%a0
    32e2:	4e90           	jsr %a0@
            entry->done = true;
    32e4:	157c 0001 000c 	moveb #1,%a2@(12)
    32ea:	588f           	addql #4,%sp
    for (int i = cxa_atexit_count - 1; i >= 0; i--) {
    32ec:	45ea fff2      	lea %a2@(-14),%a2
    32f0:	51ca ffe0      	dbf %d2,32d2 <__cxa_finalize+0x28>
    32f4:	4242           	clrw %d2
    32f6:	5382           	subql #1,%d2
    32f8:	64d8           	bccs 32d2 <__cxa_finalize+0x28>
        }
    }
}
    32fa:	4cdf 040c      	moveml %sp@+,%d2-%d3/%a2
    32fe:	4e75           	rts
        if ((dso_handle == NULL || dso_handle == entry->dso_handle) && !entry->done) {
    3300:	b6aa 0008      	cmpl %a2@(8),%d3
    3304:	67d0           	beqs 32d6 <__cxa_finalize+0x2c>
    for (int i = cxa_atexit_count - 1; i >= 0; i--) {
    3306:	45ea fff2      	lea %a2@(-14),%a2
    330a:	51ca fff4      	dbf %d2,3300 <__cxa_finalize+0x56>
    330e:	4242           	clrw %d2
    3310:	5382           	subql #1,%d2
    3312:	64ec           	bccs 3300 <__cxa_finalize+0x56>
}
    3314:	4cdf 040c      	moveml %sp@+,%d2-%d3/%a2
    3318:	4e75           	rts
	...

0000331c <__udivsi3>:
    331c:	2f02           	movel %d2,%sp@-
    331e:	222f 000c      	movel %sp@(12),%d1
    3322:	202f 0008      	movel %sp@(8),%d0
    3326:	0c81 0001 0000 	cmpil #65536,%d1
    332c:	6416           	bccs 3344 <L3>
    332e:	2400           	movel %d0,%d2
    3330:	4242           	clrw %d2
    3332:	4842           	swap %d2
    3334:	84c1           	divuw %d1,%d2
    3336:	3002           	movew %d2,%d0
    3338:	4840           	swap %d0
    333a:	342f 000a      	movew %sp@(10),%d2
    333e:	84c1           	divuw %d1,%d2
    3340:	3002           	movew %d2,%d0
    3342:	6030           	bras 3374 <L6>

00003344 <L3>:
    3344:	2401           	movel %d1,%d2

00003346 <L4>:
    3346:	e289           	lsrl #1,%d1
    3348:	e288           	lsrl #1,%d0
    334a:	0c81 0001 0000 	cmpil #65536,%d1
    3350:	64f4           	bccs 3346 <L4>
    3352:	80c1           	divuw %d1,%d0
    3354:	0280 0000 ffff 	andil #65535,%d0
    335a:	2202           	movel %d2,%d1
    335c:	c2c0           	muluw %d0,%d1
    335e:	4842           	swap %d2
    3360:	c4c0           	muluw %d0,%d2
    3362:	4842           	swap %d2
    3364:	4a42           	tstw %d2
    3366:	660a           	bnes 3372 <L5>
    3368:	d282           	addl %d2,%d1
    336a:	6506           	bcss 3372 <L5>
    336c:	b2af 0008      	cmpl %sp@(8),%d1
    3370:	6302           	blss 3374 <L6>

00003372 <L5>:
    3372:	5380           	subql #1,%d0

00003374 <L6>:
    3374:	241f           	movel %sp@+,%d2
    3376:	4e75           	rts

00003378 <__umodsi3>:
    3378:	222f 0008      	movel %sp@(8),%d1
    337c:	202f 0004      	movel %sp@(4),%d0
    3380:	2f01           	movel %d1,%sp@-
    3382:	2f00           	movel %d0,%sp@-
    3384:	4eb9 0000 331c 	jsr 331c <__udivsi3>
    338a:	508f           	addql #8,%sp
    338c:	222f 0008      	movel %sp@(8),%d1
    3390:	2f01           	movel %d1,%sp@-
    3392:	2f00           	movel %d0,%sp@-
    3394:	4eb9 0000 33a8 	jsr 33a8 <__mulsi3>
    339a:	508f           	addql #8,%sp
    339c:	222f 0004      	movel %sp@(4),%d1
    33a0:	9280           	subl %d0,%d1
    33a2:	2001           	movel %d1,%d0
    33a4:	4e75           	rts
	...

000033a8 <__mulsi3>:
    33a8:	302f 0004      	movew %sp@(4),%d0
    33ac:	c0ef 000a      	muluw %sp@(10),%d0
    33b0:	322f 0006      	movew %sp@(6),%d1
    33b4:	c2ef 0008      	muluw %sp@(8),%d1
    33b8:	d041           	addw %d1,%d0
    33ba:	4840           	swap %d0
    33bc:	4240           	clrw %d0
    33be:	322f 0006      	movew %sp@(6),%d1
    33c2:	c2ef 000a      	muluw %sp@(10),%d1
    33c6:	d081           	addl %d1,%d0
    33c8:	4e75           	rts
    33ca:	5465           	addqw #2,%a5@-
    33cc:	7374           	.short 0x7374
    33ce:	696e           	bvss 343e <noHeader+0x39>
    33d0:	6720           	beqs 33f2 <__mulsi3+0x4a>
    33d2:	666f           	bnes 3443 <noHeader+0x3e>
    33d4:	7220           	moveq #32,%d1
    33d6:	4f50           	.short 0x4f50
    33d8:	4c33           	.short 0x4c33
    33da:	0d0a 004f      	movepw %a2@(79),%d6
    33de:	504c           	addqw #8,%a4
    33e0:	3320           	movew %a0@-,%a1@-
    33e2:	6465           	bccs 3449 <noHeader+0x44>
    33e4:	7465           	moveq #101,%d2
    33e6:	6374           	blss 345c <noHeader+0x57>
    33e8:	6564           	bcss 344e <noHeader+0x49>
    33ea:	210d           	movel %a5,%a0@-
    33ec:	0a00 556e      	eorib #110,%d0
    33f0:	6465           	bccs 3457 <noHeader+0x52>
    33f2:	6669           	bnes 345d <noHeader+0x58>
    33f4:	6e65           	bgts 345b <noHeader+0x56>
    33f6:	6420           	bccs 3418 <noHeader+0x13>
    33f8:	6f70           	bles 346a <noHeader+0x65>
    33fa:	636f           	blss 346b <noHeader+0x66>
    33fc:	6465           	bccs 3463 <noHeader+0x5e>
    33fe:	3a20           	movew %a0@-,%d5
    3400:	
00003405 <noHeader>:
    3405:	5a01 205a 0840 5a80 ff5a 81ff 5a82 ff5a     Z. Z.@Z..Z..Z..Z
    3415:	88ff 5a89 ff5a 8aff 5a90 ff5a 91ff 5a92     ..Z..Z..Z..Z..Z.
    3425:	ff61 2c00 5a83 ff5a 84ff 5a85 ff5a 8bff     .a,.Z..Z..Z..Z..
    3435:	5a8c ff5a 8dff 5a93 ff5a 94ff 5a95 ff5a     Z..Z..Z..Z..Z..Z
    3445:	c008 5ae0 025a 4000 5a60 f55a 8013 5a20     ..Z..Z@.Z`.Z..Z 
    3455:	105a e300 5a43 005a 63f4 5a83 155a 2341     .Z..ZC.Zc.Z..Z#A
    3465:	5a40 0e5a c00a 612c 005a a022 5ab0 2661     Z@.Z..a,.Z."Z.&a
    3475:	0124 5ab0 0661 1d1d 5a40 0f61 2c00 5ab0     .$Z..a..Z@.a,.Z.
    3485:	2661 401c 5ab0 0661 2d24 5a40 0a5a a098     &a@.Z..a-$Z@.Z..
    3495:	5ab0 2961 c44a 5ab0 0961 320b 5a40 0e5a     Z.)a.JZ..a2.Z@.Z
    34a5:	a081 5ab0 2961 5123 5ab0 0961 c007 5a40     ..Z.)aQ#Z..a..Z@
    34b5:	125a c00c 5aa0 665a b026 61c8 0d5a b006     .Z..Z.fZ.&a..Z..
    34c5:	61c1 075a 400e 5ac0 0a5a a08a 5ab0 2661     a..Z@.Z..Z..Z.&a
    34d5:	b21f 5ab0 0661 330b 5ab0 2661 c80d 5ab0     ..Z..a3.Z.&a..Z.
    34e5:	0661 c007 5a40 135a c00c 5aa0 225a b026     .a..Z@.Z..Z."Z.&
    34f5:	6111 2b5a b006 615c 155a 4011 612d 005a     a.+Z..a\.Z@.a-.Z
    3505:	b026 6124 235a b006 6149 1d5a 400c 5ac0     .&a$#Z..aI.Z@.Z.
    3515:	0a5a a098 5ab0 2961 354e 5ab0 0961 c107     .Z..Z.)a5NZ..a..
    3525:	5aa0 815a b029 6111 2b5a b009 5a40 105a     Z..Z.)a.+Z..Z@.Z
    3535:	c00c 5aa0 665a b026 6116 125a b006 635a     ..Z.fZ.&a..Z..cZ
    3545:	400d 5ac0 0a5a a08a 5ab0 2661 b31f 5ab0     @.Z..Z..Z.&a..Z.
    3555:	0661 320b 5ab0 2661 c80d 5ab0 0661 c107     .a2.Z.&a..Z..a..
    3565:	5a40 0e5a a022 5ab0 2661 5023 5ab0 0661     Z@.Z."Z.&aP#Z..a
    3575:	1d1d 5a40 0d61 2c00 5ab0 2661 b31f 5ab0     ..Z@.a,.Z.&a..Z.
    3585:	0661 bb20 5a40 095a a098 5ab0 2961 354e     .a. Z@.Z..Z.)a5N
    3595:	5ab0 0961 c107 5a40 0d5a a081 5ab0 2961     Z..a..Z@.Z..Z.)a
    35a5:	9f27 5ab0 0963 5a40 0f5a a066 5ab0 2661     .'Z..cZ@.Z.fZ.&a
    35b5:	a40e 5ab0 0663 635a 400c 5aa0 8a5a b026     ..Z..ccZ@.Z..Z.&
    35c5:	61b2 1f5a b006 6133 0b5a 400d 5ab0 2661     a..Z..a3.Z@.Z.&a
    35d5:	8815 5ab0 065a a022 5ab0 2661 9f27 5ab0     ..Z..Z."Z.&a.'Z.
    35e5:	0661 cf18 5a40 1161 2c00 5ac0 0c5a b026     .a..Z@.a,.Z..Z.&
    35f5:	61b2 1f5a b006 61bb 205a 4007 5ac0 085a     a..Z..a. Z@.Z..Z
    3605:	a098 5ab0 2961 8a39 5ab0 0963 635a 400a     ..Z.)a.9Z..ccZ@.
    3615:	5ac0 0a5a a081 5ab0 2961 de1f 5ab0 0961     Z..Z..Z.)a..Z..a
    3625:	b176 5a40 0e5a a022 5ab0 265a c10c 5ae1     .vZ@.Z."Z.&Z..Z.
    3635:	025a 4180 5a61 f65a 8116 5a21 0061 2c00     .ZA.Za.Z..Z!.a,.
    3645:	5ae4 005a 4480 5a64 f55a 8417 5a24 035a     Z..ZD.Zd.Z..Z$.Z
    3655:	41a2 5aa1 e65a b125 5ac3 045a e800 5a48     A.Z..Z.%Z..Z..ZH
    3665:	005a 68f6 5a88 665a 2830 5aeb 005a 4b00     .Zh.Z.fZ(0Z..ZK.
    3675:	5a6b f55a 8b08 5a2b 1d5a c40e 5ae9 025a     Zk.Z..Z+.Z..Z..Z
    3685:	490b 5a69 c561 2c00 5a89 165a 29d0 5aec     I.Zi.a,.Z..Z).Z.
    3695:	005a 4c00 5a6c f75a 8c17 5a2c 1e61 1a03     .ZL.Zl.Z..Z,.a..
    36a5:	5aa1 c163 5aa1 9d61 4f04 5aa1 7c63 5aa1     Z..cZ..aO.Z.|cZ.
    36b5:	5d63 5aa1 8a5a b122 635a a15a 635a a12b     ]cZ..Z."cZ.ZcZ.+
    36c5:	635a a1fd 5ab1 2161 4e04 5aa1 d463 5ab0     cZ..Z.!aN.Z..cZ.
    36d5:	0663 635a b101 5a4b 055a a36c 5ab3 2961     .ccZ..ZK.Z.lZ.)a
    36e5:	5d15 5a40 0f61 2c00 5ab0 265a 4180 5aa1     ].Z@.a,.Z.&ZA.Z.
    36f5:	665a b132 5ab3 0961 4603 5aa1 3763 5aa1     fZ.2Z..aF.Z.7cZ.
    3705:	0a61 4e04 5aa1 e05a b131 635a a1bc 635a     .aN.Z..Z.1cZ..cZ
    3715:	a198 635a b111 5a41 a25a a1e6 5ab1 2563     ..cZ..ZA.Z..Z.%c
    3725:	5aa1 c163 5ab0 065a a19d 614f 045a a17c     Z..cZ..Z..aO.Z.|
    3735:	635a a15d 635a a18a 5ab1 2263 5aa1 5a5a     cZ.]cZ..Z."cZ.ZZ
    3745:	b329 635a a12b 635a a1fd 5ab1 2161 4e04     .)cZ.+cZ..Z.!aN.
    3755:	5aa1 d461 560a 5a40 0a5a a098 5ab0 295a     Z..aV.Z@.Z..Z.)Z
    3765:	b101 5a41 805a a166 5ab1 325a b309 635a     ..ZA.Z.fZ.2Z..cZ
    3775:	a137 635a a10a 614f 045a a1e0 5ab1 3163     .7cZ..aO.Z..Z.1c
    3785:	5aa1 bc63 5aa1 9863 5ab1 1161 8815 5a41     Z..cZ..cZ..a..ZA
    3795:	a25a a1e6 5ab1 255a b329 635a a1c1 635a     .Z..Z.%Z.)cZ..cZ
    37a5:	a19d 6122 045a a17c 635a a15d 635a a18a     ..a".Z.|cZ.]cZ..
    37b5:	5ab1 2263 5aa1 5a61 2d00 5ab3 0961 4503     Z."cZ.Za-.Z..aE.
    37c5:	5aa1 2b63 5aa1 fd5a b121 614f 045a b009     Z.+cZ..Z.!aO.Z..
    37d5:	5aa1 d461 560a 5a40 0e5a a081 5ab0 295a     Z..aV.Z@.Z..Z.)Z
    37e5:	b101 5a41 805a a166 612c 005a b132 6146     ..ZA.Z.fa,.Z.2aF
    37f5:	035a a137 635a a10a 614e 045a a1e0 5ab1     .Z.7cZ..aN.Z..Z.
    3805:	3163 5aa1 bc63 5aa1 9863 5ab1 115a b329     1cZ..cZ..cZ..Z.)
    3815:	61a5 0e5a b009 6363 5a40 125a c00c 5aa0     a..Z..ccZ@.Z..Z.
    3825:	665a b026 5a41 a25a a1e6 5ab1 255a b309     fZ.&ZA.Z..Z.%Z..
    3835:	5ab3 2963 5aa1 c163 5aa1 9d61 4e04 5aa1     Z.)cZ..cZ..aN.Z.
    3845:	7c63 5ab0 065a a15d 635a a18a 5ab1 2263     |cZ..Z.]cZ..Z."c
    3855:	5a40 0e5a c00a 5aa0 8a5a b026 5aa1 5a5a     Z@.Z..Z..Z.&Z.ZZ
    3865:	b309 5a4c 065a a443 5ab4 2263 5aa1 2b63     ..ZL.Z.CZ."cZ.+c
    3875:	5aa1 fd5a b121 614f 045a a1d4 612a 0a5a     Z..Z.!aO.Z..a*.Z
    3885:	b101 612c 005a b329 5ab4 0261 060b 5ab0     ..a,.Z.)Z..a..Z.
    3895:	0661 560a 5ab0 265a b309 61a5 0e5a b006     .aV.Z.&Z..a..Z..
    38a5:	6363 5a40 135a c00c 5aa0 225a b026 5aa1     ccZ@.Z..Z."Z.&Z.
    38b5:	e65a b125 635a a1c1 635a a19d 614e 045a     .Z.%cZ..cZ..aN.Z
    38c5:	a17c 635a a15d 635a a18a 5ab1 2263 5aa1     .|cZ.]cZ..Z."cZ.
    38d5:	5a63 5aa1 2b63 5aa1 fd5a b121 614f 045a     ZcZ.+cZ..Z.!aO.Z
    38e5:	a1d4 6156 0a5a b006 5ab1 015a b329 6188     ..aV.Z..Z..Z.)a.
    38f5:	155a 4011 5ab0 265a 4180 5aa1 665a b132     .Z@.Z.&ZA.Z.fZ.2
    3905:	5ab3 0961 4603 5aa1 3763 5aa1 0a61 4f04     Z..aF.Z.7cZ..aO.
    3915:	5aa1 e05a b131 635a a1bc 635a a198 635a     Z..Z.1cZ..cZ..cZ
    3925:	b111 5a41 a25a a1e6 5ab1 2563 5aa1 c163     ..ZA.Z..Z.%cZ..c
    3935:	5aa1 9d61 4e04 5aa1 7c63 5ab0 065a a15d     Z..aN.Z.|cZ..Z.]
    3945:	635a a18a 5ab1 2263 5aa1 5a5a b329 635a     cZ..Z."cZ.ZZ.)cZ
    3955:	a12b 614f 045a a1fd 5ab1 2163 5aa1 d461     .+aO.Z..Z.!cZ..a
    3965:	560a 5a40 0c5a c00a 5aa0 985a b029 5ab1     V.Z@.Z..Z..Z.)Z.
    3975:	015a 4180 5aa1 665a b132 5ab3 0963 5aa1     .ZA.Z.fZ.2Z..cZ.
    3985:	3761 4e04 5aa1 0a63 5aa1 e05a b131 635a     7aN.Z..cZ..Z.1cZ
    3995:	a1bc 635a a198 635a b111 6189 155a 41a2     ..cZ..cZ..a..ZA.
    39a5:	5aa1 e65a b125 5ab3 2963 5aa1 c161 4e04     Z..Z.%Z.)cZ..aN.
    39b5:	5aa1 9d61 4603 5aa1 7c63 5aa1 5d63 5aa1     Z..aF.Z.|cZ.]cZ.
    39c5:	8a5a b122 635a a15a 612c 005a b309 6146     .Z."cZ.Za,.Z..aF
    39d5:	035a a12b 614f 045a a1fd 5ab1 2163 5aa1     .Z.+aO.Z..Z.!cZ.
    39e5:	d463 5ab0 0963 635a a081 5ab0 295a b101     .cZ..ccZ..Z.)Z..
    39f5:	5a41 8061 2c00 5aa1 665a b132 6146 035a     ZA.a,.Z.fZ.2aF.Z
    3a05:	a137 614e 045a a10a 635a a1e0 5ab1 3163     .7aN.Z..cZ..Z.1c
    3a15:	5aa1 bc63 5aa1 9863 5ab1 115a b329 6189     Z..cZ..cZ..Z.)a.
    3a25:	155a b009 5a40 105a c00c 5aa0 665a b026     .Z..Z@.Z..Z.fZ.&
    3a35:	5a41 a25a a1e6 5ab1 255a b309 5ab3 2963     ZA.Z..Z.%Z..Z.)c
    3a45:	5aa1 c161 4e04 5aa1 9d63 5aa1 7c63 5aa1     Z..aN.Z..cZ.|cZ.
    3a55:	5d63 5ab0 065a a18a 5ab1 2263 5a40 0d5a     ]cZ..Z..Z."cZ@.Z
    3a65:	c00a 5aa0 8a5a b026 5aa1 5a5a b309 5ab4     ..Z..Z.&Z.ZZ..Z.
    3a75:	2263 5aa1 2b61 4f04 5aa1 fd5a b121 635a     "cZ.+aO.Z..Z.!cZ
    3a85:	a1d4 612a 0a5a b101 612c 005a b329 5ab4     ..a*.Z..a,.Z.)Z.
    3a95:	0261 060b 5ab0 0661 560a 5ab0 265a b309     .a..Z..aV.Z.&Z..
    3aa5:	61a5 0e5a b006 6363 5a40 0e5a a022 5ab0     a..Z..ccZ@.Z."Z.
    3ab5:	265a a1e6 5ab1 2563 5aa1 c161 4e04 5aa1     &Z..Z.%cZ..aN.Z.
    3ac5:	9d63 5aa1 7c63 5aa1 5d63 5aa1 8a5a b122     .cZ.|cZ.]cZ..Z."
    3ad5:	635a a15a 635a a12b 614f 045a a1fd 5ab1     cZ.ZcZ.+aO.Z..Z.
    3ae5:	2163 5aa1 d463 5ab0 0663 635a b101 5a4b     !cZ..cZ..ccZ..ZK
    3af5:	065a b329 6188 155a 400d 5ab0 265a 4180     .Z.)a..Z@.Z.&ZA.
    3b05:	5aa1 665a b132 5ab3 0961 4603 5aa1 3761     Z.fZ.2Z..aF.Z.7a
    3b15:	4e04 5aa1 0a63 5aa1 e05a b131 635a a1bc     N.Z..cZ..Z.1cZ..
    3b25:	635a a198 635a b111 5a41 a25a a1e6 612d     cZ..cZ..ZA.Z..a-
    3b35:	005a b125 6145 035a a1c1 614f 045a a19d     .Z.%aE.Z..aO.Z..
    3b45:	635a b006 5aa1 7c63 5aa1 5d63 5aa1 8a5a     cZ..Z.|cZ.]cZ..Z
    3b55:	b122 635a a15a 5ab3 2963 5aa1 2b61 4e04     ."cZ.ZZ.)cZ.+aN.
    3b65:	5aa1 fd5a b121 635a a1d4 6156 0a5a 4009     Z..Z.!cZ..aV.Z@.
    3b75:	5aa0 985a b029 5ab1 015a 4180 5aa1 665a     Z..Z.)Z..ZA.Z.fZ
    3b85:	b132 5ab3 0963 5aa1 3761 4f04 5aa1 0a63     .2Z..cZ.7aO.Z..c
    3b95:	5aa1 e05a b131 635a a1bc 635a a198 635a     Z..Z.1cZ..cZ..cZ
    3ba5:	b111 6188 155a 41a2 5aa1 e65a b125 5ab3     ..a..ZA.Z..Z.%Z.
    3bb5:	2963 5aa1 c161 4f04 5aa1 9d61 4603 5aa1     )cZ..aO.Z..aF.Z.
    3bc5:	7c63 5aa1 5d63 5aa1 8a5a b122 635a a15a     |cZ.]cZ..Z."cZ.Z
    3bd5:	612c 005a b309 6146 035a a12b 614e 045a     a,.Z..aF.Z.+aN.Z
    3be5:	a1fd 5ab1 2163 5aa1 d463 5ab0 0963 635a     ..Z.!cZ..cZ..ccZ
    3bf5:	400d 5aa0 815a b029 5ab1 015a 4180 612c     @.Z..Z.)Z..ZA.a,
    3c05:	005a a166 5ab1 3261 4603 5aa1 3761 4f04     .Z.fZ.2aF.Z.7aO.
    3c15:	5aa1 0a63 5aa1 e05a b131 635a a1bc 635a     Z..cZ..Z.1cZ..cZ
    3c25:	a198 635a b111 5ab3 2961 1612 5ab0 0963     ..cZ..Z.)a..Z..c
    3c35:	5a40 0f5a a066 5ab0 265a 41a2 5aa1 e65a     Z@.Z.fZ.&ZA.Z..Z
    3c45:	b125 5ab3 095a b329 614f 045a a1c1 635a     .%Z..Z.)aO.Z..cZ
    3c55:	a19d 635a a17c 635a b006 5aa1 5d63 5aa1     ..cZ.|cZ..Z.]cZ.
    3c65:	8a5a b122 635a 400c 5aa0 8a5a b026 5aa1     .Z."cZ@.Z..Z.&Z.
    3c75:	5a5a b309 5ab4 2261 4e04 5aa1 2b63 5aa1     ZZ..Z."aN.Z.+cZ.
    3c85:	fd5a b121 635a a1d4 612a 0a5a b101 612c     .Z.!cZ..a*.Z..a,
    3c95:	005a b329 5ab4 0261 070b 5ab0 0661 560a     .Z.)Z..a..Z..aV.
    3ca5:	5a40 0d5a b026 5ab3 0961 8815 5ab0 065a     Z@.Z.&Z..a..Z..Z
    3cb5:	a022 5ab0 265a a1e6 5ab1 2561 4f04 5aa1     ."Z.&Z..Z.%aO.Z.
    3cc5:	c163 5aa1 9d63 5aa1 7c63 5aa1 5d63 5aa1     .cZ..cZ.|cZ.]cZ.
    3cd5:	8a5a b122 635a a15a 614e 045a a12b 635a     .Z."cZ.ZaN.Z.+cZ
    3ce5:	a1fd 5ab1 2163 5aa1 d463 635a b006 635a     ..Z.!cZ..ccZ..cZ
    3cf5:	b101 5ab3 2961 8915 5a40 115a c00c 5ab0     ..Z.)a..Z@.Z..Z.
    3d05:	265a 4180 5aa1 665a b132 5ab3 0961 2204     &ZA.Z.fZ.2Z..a".
    3d15:	5aa1 3763 5aa1 0a63 5aa1 e05a b131 635a     Z.7cZ..cZ..Z.1cZ
    3d25:	a1bc 635a a198 635a b111 5a41 a25a a1e6     ..cZ..cZ..ZA.Z..
    3d35:	612c 005a b125 6123 045a a1c1 635a a19d     a,.Z.%a#.Z..cZ..
    3d45:	635a b006 5aa1 7c63 5aa1 5d63 5aa1 8a5a     cZ..Z.|cZ.]cZ..Z
    3d55:	b122 635a a15a 5ab3 2961 4e04 5aa1 2b63     ."cZ.ZZ.)aN.Z.+c
    3d65:	5aa1 fd5a b121 635a a1d4 6156 0a5a 4007     Z..Z.!cZ..aV.Z@.
    3d75:	5ac0 085a a098 5ab0 295a b101 5a41 805a     Z..Z..Z.)Z..ZA.Z
    3d85:	a166 5ab1 325a b309 614f 045a a137 635a     .fZ.2Z..aO.Z.7cZ
    3d95:	a10a 635a a1e0 5ab1 3163 5aa1 bc63 5aa1     ..cZ..Z.1cZ..cZ.
    3da5:	9863 5ab1 1161 8815 5a41 a25a a1e6 5ab1     .cZ..a..ZA.Z..Z.
    3db5:	255a b329 614f 045a a1c1 635a a19d 635a     %Z.)aO.Z..cZ..cZ
    3dc5:	a17c 635a b009 5aa1 5d61 4603 5aa1 8a5a     .|cZ..Z.]aF.Z..Z
    3dd5:	b122 635a 400a 5ac0 0a61 2c00 5aa0 815a     ."cZ@.Z..a,.Z..Z
    3de5:	b029 5aa1 5a5a b309 6122 045a a12b 635a     .)Z.ZZ..a".Z.+cZ
    3df5:	a1fd 5ab1 2163 5aa1 d461 560a 5ab1 015a     ..Z.!cZ..aV.Z..Z
    3e05:	4180 5aa1 665a b132 614f 045a a137 635a     A.Z.fZ.2aO.Z.7cZ
    3e15:	a10a 635a b009 5aa1 e05a b131 635a a1bc     ..cZ..Z..Z.1cZ..
    3e25:	635a a198 635a b111 5aa1 665a b132 5ab3     cZ..cZ..Z.fZ.2Z.
    3e35:	2961 4e04 5aa1 3763 5aa1 0a63 5aa1 e05a     )aN.Z.7cZ..cZ..Z
    3e45:	b131 635a a1bc 635a a198 635a b111 5a41     .1cZ..cZ..cZ..ZA
    3e55:	a25a a1e6 5ab1 255a b309 5ab3 295a b422     .Z..Z.%Z..Z.)Z."
    3e65:	614f 045a a1c1 635a a19d 635a a17c 635a     aO.Z..cZ..cZ.|cZ
    3e75:	a15d 635a a18a 5ab1 2263 5aa1 5a5a b309     .]cZ..Z."cZ.ZZ..
    3e85:	5ab4 0261 4e04 5aa1 2b63 5aa1 fd5a b121     Z..aN.Z.+cZ..Z.!
    3e95:	635a a1d4 6156 0a5a b101 5ab4 2261 5c15     cZ..aV.Z..Z."a\.
    3ea5:	5ab3 295a b402 6165 165a 400e 5aa0 225a     Z.)Z..ae.Z@.Z."Z
    3eb5:	b026 5aa1 e65a b125 5ab3 0961 2d00 5ac5     .&Z..Z.%Z..a-.Z.
    3ec5:	075a ea00 5a4a 005a 6af2 5a8a 065a 2a11     .Z..ZJ.Zj.Z..Z*.
    3ed5:	5aed 035a 4d00 5a6d f95a 8d07 5a2d 105a     Z..ZM.Zm.Z..Z-.Z
    3ee5:	4a03 5aa5 665a b52e 6145 035a a1c1 635a     J.Z.fZ..aE.Z..cZ
    3ef5:	a19d 635a a17c 635a a15d 635a a18a 5ab1     ..cZ.|cZ.]cZ..Z.
    3f05:	2261 4f04 5aa1 5a5a b50e 5a4a 075a c509     "aO.Z.ZZ..ZJ.Z..
    3f15:	5aa5 8a5a b52e 635a a12b 635a a1fd 5ab1     Z..Z..cZ.+cZ..Z.
    3f25:	2163 5aa1 d463 5ab0 0661 c007 5ab1 015a     !cZ..cZ..a..Z..Z
    3f35:	4b05 5ab3 295a b50e 5a4a 035a c507 5aa5     K.Z.)Z..ZJ.Z..Z.
    3f45:	985a b535 6189 155a 400f 5ab0 265a 4180     .Z.5a..Z@.Z.&ZA.
    3f55:	5aa1 665a b132 5ab3 095a b515 5a4a 065a     Z.fZ.2Z..Z..ZJ.Z
    3f65:	c509 5aa5 815a b535 635a a137 6146 035a     ..Z..Z.5cZ.7aF.Z
    3f75:	a10a 635a a1e0 5ab1 3163 5aa1 bc63 5aa1     ..cZ..Z.1cZ..cZ.
    3f85:	9861 4e04 5ab1 115a 41a2 5aa1 e661 2c00     .aN.Z..ZA.Z..a,.
    3f95:	5ab1 255a b515 5aa5 8a5a b532 6146 035a     Z.%Z..Z..Z.2aF.Z
    3fa5:	a1c1 635a b006 5aa1 9d63 5aa1 7c63 5aa1     ..cZ..Z..cZ.|cZ.
    3fb5:	5d63 5aa1 8a5a b122 614f 045a a15a 5ab3     ]cZ..Z."aO.Z.ZZ.
    3fc5:	295a b512 5a4a 0761 2c00 5aa5 225a b532     )Z..ZJ.a,.Z."Z.2
    3fd5:	6146 035a a12b 635a a1fd 5ab1 2163 5aa1     aF.Z.+cZ..Z.!cZ.
    3fe5:	d461 320b 5a40 0a5a a098 5ab0 295a b101     .a2.Z@.Z..Z.)Z..
    3ff5:	5a41 805a a166 5ab1 325a b309 612c 005a     ZA.Z.fZ.2Z..a,.Z
    4005:	b512 5a4a 055a a598 5ab5 3161 4603 5aa1     ..ZJ.Z..Z.1aF.Z.
    4015:	3763 5aa1 0a63 5aa1 e05a b131 635a a1bc     7cZ..cZ..Z.1cZ..
    4025:	635a a198 614f 045a b111 5ab5 115a 4a07     cZ..aO.Z..Z..ZJ.
    4035:	5aa5 8a5a b532 6188 155a 41a2 5aa1 e65a     Z..Z.2a..ZA.Z..Z
    4045:	b125 5ab3 295a b512 5a4a 065a a581 5ab5     .%Z.)Z..ZJ.Z..Z.
    4055:	3163 5aa1 c163 5aa1 9d63 5aa1 7c61 4603     1cZ..cZ..cZ.|aF.
    4065:	5aa1 5d63 5aa1 8a5a b122 614f 045a a15a     Z.]cZ..Z."aO.Z.Z
    4075:	612c 005a b309 5ab5 115a 4a08 5ac5 0b5a     a,.Z..Z..ZJ.Z..Z
    4085:	a5cb 5ab5 3161 4603 5aa1 2b63 5aa1 fd5a     ..Z.1aF.Z.+cZ..Z
    4095:	b121 635a b009 5aa1 d461 320b 5a40 0e5a     .!cZ..Z..a2.Z@.Z
    40a5:	a081 5ab0 295a b101 612c 005a 4180 5aa1     ..Z.)Z..a,.ZA.Z.
    40b5:	665a b132 5ab5 115a 4a06 5ac5 095a a522     fZ.2Z..ZJ.Z..Z."
    40c5:	5ab5 3261 4603 5aa1 3763 5aa1 0a63 5aa1     Z.2aF.Z.7cZ..cZ.
    40d5:	e05a b131 635a a1bc 635a a198 614f 045a     .Z.1cZ..cZ..aO.Z
    40e5:	b111 5ab3 295a b512 5a4a 035a c507 5aa5     ..Z.)Z..ZJ.Z..Z.
    40f5:	665a b532 61c8 0d5a b009 61c0 075a 4012     fZ.2a..Z..a..Z@.
    4105:	5ac0 0c5a a066 5ab0 265a 41a2 5aa1 e65a     Z..Z.fZ.&ZA.Z..Z
    4115:	b125 5ab3 095a b329 5ab5 125a 4a07 612c     .%Z..Z.)Z..ZJ.a,
    4125:	005a c509 5aa5 cb5a b531 6146 035a a1c1     .Z..Z..Z.1aF.Z..
    4135:	635a a19d 635a a17c 635a b006 5aa1 5d63     cZ..cZ.|cZ..Z.]c
    4145:	5aa1 8a5a b122 614f 045a 400e 5ac0 0a5a     Z..Z."aO.Z@.Z..Z
    4155:	a08a 5ab0 265a a15a 5ab3 095a b422 5ab5     ..Z.&Z.ZZ..Z."Z.
    4165:	115a a58a 5ab5 2e63 5aa1 2b63 5aa1 fd5a     .Z..Z..cZ.+cZ..Z
    4175:	b121 635a a1d4 6132 0b5a b101 5ab3 295a     .!cZ..a2.Z..Z.)Z
    4185:	b402 5ab5 0e5a 4a04 5aa5 225a b532 612a     ..Z..ZJ.Z."Z.2a*
    4195:	0a5a b006 6133 0b5a b026 612c 005a b309     .Z..a3.Z.&a,.Z..
    41a5:	5ab5 125a 4a06 5aa5 985a b531 619c 0d5a     Z..ZJ.Z..Z.1a..Z
    41b5:	b006 61c0 075a 4013 5ac0 0c5a a022 5ab0     ..a..Z@.Z..Z."Z.
    41c5:	265a a1e6 5ab1 255a b511 5a4a 0361 2c00     &Z..Z.%Z..ZJ.a,.
    41d5:	5ac5 075a a566 5ab5 2e61 4603 5aa1 c163     Z..Z.fZ..aF.Z..c
    41e5:	5aa1 9d63 5aa1 7c63 5aa1 5d63 5aa1 8a5a     Z..cZ.|cZ.]cZ..Z
    41f5:	b122 614f 045a a15a 5ab5 0e5a 4a07 5ac5     ."aO.Z.ZZ..ZJ.Z.
    4205:	095a a58a 5ab5 2e63 5aa1 2b63 5aa1 fd5a     .Z..Z..cZ.+cZ..Z
    4215:	b121 635a a1d4 6132 0b5a b006 5ab1 015a     .!cZ..a2.Z..Z..Z
    4225:	b329 5ab5 0e5a 4a03 5ac5 075a a598 5ab5     .)Z..ZJ.Z..Z..Z.
    4235:	3561 8915 5a40 115a b026 5a41 805a a166     5a..Z@.Z.&ZA.Z.f
    4245:	5ab1 325a b309 5ab5 155a 4a06 5ac5 095a     Z.2Z..Z..ZJ.Z..Z
    4255:	a581 5ab5 3563 5aa1 3761 4603 5aa1 0a63     ..Z.5cZ.7aF.Z..c
    4265:	5aa1 e061 2c00 5ab1 3161 4603 5aa1 bc63     Z..a,.Z.1aF.Z..c
    4275:	5aa1 9861 4e04 5ab1 115a 41a2 612c 005a     Z..aN.Z..ZA.a,.Z
    4285:	a1e6 5ab1 255a b515 5aa5 8a5a b532 6146     ..Z.%Z..Z..Z.2aF
    4295:	035a a1c1 635a a19d 635a a17c 635a b006     .Z..cZ..cZ.|cZ..
    42a5:	5aa1 5d63 5aa1 8a5a b122 614f 045a a15a     Z.]cZ..Z."aO.Z.Z
    42b5:	5ab3 295a b512 612c 005a 4a07 5aa5 225a     Z.)Z..a,.ZJ.Z."Z
    42c5:	b532 6146 035a a12b 635a a1fd 5ab1 2163     .2aF.Z.+cZ..Z.!c
    42d5:	5aa1 d461 320b 5a40 0c5a c00a 5aa0 985a     Z..a2.Z@.Z..Z..Z
    42e5:	b029 5ab1 015a 4180 5aa1 665a b132 5ab3     .)Z..ZA.Z.fZ.2Z.
    42f5:	0961 2c00 5ab5 125a 4a05 5aa5 985a b531     .a,.Z..ZJ.Z..Z.1
    4305:	6146 035a a137 635a a10a 635a a1e0 5ab1     aF.Z.7cZ..cZ..Z.
    4315:	3163 5aa1 bc61 4f04 5aa1 9863 5ab1 115a     1cZ..aO.Z..cZ..Z
    4325:	b511 5a4a 075a a58a 5ab5 3261 8815 5a41     ..ZJ.Z..Z.2a..ZA
    4335:	a25a a1e6 5ab1 255a b329 5ab5 125a 4a06     .Z..Z.%Z.)Z..ZJ.
    4345:	5aa5 815a b531 635a a1c1 635a a19d 635a     Z..Z.1cZ..cZ..cZ
    4355:	a17c 635a a15d 6122 045a a18a 5ab1 2263     .|cZ.]a".Z..Z."c
    4365:	5aa1 5a61 2d00 5ab3 095a b511 5a4a 085a     Z.Za-.Z..Z..ZJ.Z
    4375:	c50b 5aa5 cb5a b531 6145 035a a12b 635a     ..Z..Z.1aE.Z.+cZ
    4385:	a1fd 5ab1 2163 5aa1 d463 5ab0 0961 c107     ..Z.!cZ..cZ..a..
    4395:	5aa0 815a b029 5ab1 0161 2c00 5a41 805a     Z..Z.)Z..a,.ZA.Z
    43a5:	a166 5ab1 325a b511 5a4a 065a c509 5aa5     .fZ.2Z..ZJ.Z..Z.
    43b5:	225a b532 6146 035a a137 635a a10a 635a     "Z.2aF.Z.7cZ..cZ
    43c5:	a1e0 5ab1 3163 5aa1 bc61 4e04 5aa1 9863     ..Z.1cZ..aN.Z..c
    43d5:	5ab1 115a b329 5ab5 125a 4a03 5ac5 075a     Z..Z.)Z..ZJ.Z..Z
    43e5:	a566 612d 005a b532 615c 155a b009 5a40     .fa-.Z.2a\.Z..Z@
    43f5:	105a c00c 5aa0 665a b026 5a41 a25a a1e6     .Z..Z.fZ.&ZA.Z..
    4405:	5ab1 255a b309 5ab3 295a b512 612c 005a     Z.%Z..Z.)Z..a,.Z
    4415:	4a07 5ac5 095a a5cb 5ab5 3161 4603 5aa1     J.Z..Z..Z.1aF.Z.
    4425:	c163 5aa1 9d63 5aa1 7c63 5aa1 5d61 4e04     .cZ..cZ.|cZ.]aN.
    4435:	5ab0 065a a18a 5ab1 2263 5a40 0d5a c00a     Z..Z..Z."cZ@.Z..
    4445:	5aa0 8a5a b026 5aa1 5a5a b309 5ab4 225a     Z..Z.&Z.ZZ..Z."Z
    4455:	b511 5aa5 8a5a b52e 635a a12b 635a a1fd     ..Z..Z..cZ.+cZ..
    4465:	5ab1 2163 5aa1 d461 330b 5ab1 015a b329     Z.!cZ..a3.Z..Z.)
    4475:	5ab4 025a b50e 5a4a 045a a522 5ab5 3261     Z..Z..ZJ.Z."Z.2a
    4485:	2a0a 5ab0 0661 320b 5ab0 2661 2c00 5ab3     *.Z..a2.Z.&a,.Z.
    4495:	095a b512 5a4a 065a a598 5ab5 3161 9c0d     .Z..ZJ.Z..Z.1a..
    44a5:	5ab0 0661 c107 5a40 0e5a a022 5ab0 265a     Z..a..Z@.Z."Z.&Z
    44b5:	a1e6 5ab1 255a b511 612c 005a 4a03 5ac5     ..Z.%Z..a,.ZJ.Z.
    44c5:	075a a566 5ab5 2e61 4603 5aa1 c163 5aa1     .Z.fZ..aF.Z..cZ.
    44d5:	9d63 5aa1 7c63 5aa1 5d61 4e04 5aa1 8a5a     .cZ.|cZ.]aN.Z..Z
    44e5:	b122 635a a15a 5ab5 0e5a 4a07 5ac5 095a     ."cZ.ZZ..ZJ.Z..Z
    44f5:	a58a 5ab5 2e63 5aa1 2b63 5aa1 fd5a b121     ..Z..cZ.+cZ..Z.!
    4505:	635a a1d4 635a b006 61c1 075a b101 5a4b     cZ..cZ..a..Z..ZK
    4515:	065a b329 5ab5 0e5a 4a03 5ac5 075a a598     .Z.)Z..ZJ.Z..Z..
    4525:	5ab5 3561 8815 5a40 0d5a b026 5a41 805a     Z.5a..Z@.Z.&ZA.Z
    4535:	a166 5ab1 325a b309 5ab5 155a 4a06 5ac5     .fZ.2Z..Z..ZJ.Z.
    4545:	095a a581 5ab5 3563 5aa1 3763 5aa1 0a61     .Z..Z.5cZ.7cZ..a
    4555:	4603 5aa1 e061 2c00 5ab1 3161 4603 5aa1     F.Z..a,.Z.1aF.Z.
    4565:	bc61 4f04 5aa1 9863 5ab1 115a 41a2 612c     .aO.Z..cZ..ZA.a,
    4575:	005a a1e6 5ab1 255a b515 5aa5 8a5a b532     .Z..Z.%Z..Z..Z.2
    4585:	6146 035a a1c1 635a a19d 635a b006 5aa1     aF.Z..cZ..cZ..Z.
    4595:	7c63 5aa1 5d61 4e04 5aa1 8a5a b122 635a     |cZ.]aN.Z..Z."cZ
    45a5:	a15a 5ab3 295a b512 612c 005a 4a07 5aa5     .ZZ.)Z..a,.ZJ.Z.
    45b5:	225a b532 6146 035a a12b 635a a1fd 5ab1     "Z.2aF.Z.+cZ..Z.
    45c5:	2163 5aa1 d461 330b 5a40 095a a098 5ab0     !cZ..a3.Z@.Z..Z.
    45d5:	295a b101 5a41 805a a166 5ab1 325a b309     )Z..ZA.Z.fZ.2Z..
    45e5:	612c 005a b512 5a4a 055a a598 5ab5 3161     a,.Z..ZJ.Z..Z.1a
    45f5:	4603 5aa1 3763 5aa1 0a63 5aa1 e05a b131     F.Z.7cZ..cZ..Z.1
    4605:	635a a1bc 614e 045a a198 635a b111 5ab5     cZ..aN.Z..cZ..Z.
    4615:	115a 4a07 5aa5 8a5a b532 6189 155a 41a2     .ZJ.Z..Z.2a..ZA.
    4625:	5aa1 e65a b125 5ab3 295a b512 5a4a 065a     Z..Z.%Z.)Z..ZJ.Z
    4635:	a581 5ab5 3163 5aa1 c163 5aa1 9d63 5aa1     ..Z.1cZ..cZ..cZ.
    4645:	7c63 5aa1 5d61 2204 5aa1 8a61 2c00 5ab1     |cZ.]a".Z..a,.Z.
    4655:	2261 4603 5aa1 5a61 2c00 5ab3 095a b511     "aF.Z.Za,.Z..Z..
    4665:	5a4a 085a c50b 5aa5 cb5a b531 6146 035a     ZJ.Z..Z..Z.1aF.Z
    4675:	a12b 635a a1fd 5ab1 2163 5aa1 d463 5ab0     .+cZ..Z.!cZ..cZ.
    4685:	0961 c107 5a40 0d5a a081 5ab0 295a b101     .a..Z@.Z..Z.)Z..
    4695:	612c 005a 4180 5aa1 665a b132 5ab5 115a     a,.ZA.Z.fZ.2Z..Z
    46a5:	4a06 5ac5 095a a522 5ab5 3261 4603 5aa1     J.Z..Z."Z.2aF.Z.
    46b5:	3763 5aa1 0a63 5aa1 e05a b131 614e 045a     7cZ..cZ..Z.1aN.Z
    46c5:	a1bc 635a a198 635a b111 5ab3 295a b512     ..cZ..cZ..Z.)Z..
    46d5:	5a4a 035a c507 5aa5 6661 2c00 5ab5 3261     ZJ.Z..Z.fa,.Z.2a
    46e5:	eb11 5ab0 0963 5a40 0f5a a066 5ab0 265a     ..Z..cZ@.Z.fZ.&Z
    46f5:	41a2 5aa1 e65a b125 5ab3 095a b329 5ab5     A.Z..Z.%Z..Z.)Z.
    4705:	1261 2c00 5a4a 075a c509 5aa5 cb5a b531     .a,.ZJ.Z..Z..Z.1
    4715:	6146 035a a1c1 635a a19d 635a a17c 614e     aF.Z..cZ..cZ.|aN
    4725:	045a b006 5aa1 5d63 5aa1 8a5a b122 635a     .Z..Z.]cZ..Z."cZ
    4735:	400c 5aa0 8a5a b026 5aa1 5a5a b309 5ab4     @.Z..Z.&Z.ZZ..Z.
    4745:	225a b511 5aa5 8a5a b52e 635a a12b 635a     "Z..Z..Z..cZ.+cZ
    4755:	a1fd 5ab1 2163 5aa1 d461 330b 5ab1 015a     ..Z.!cZ..a3.Z..Z
    4765:	b329 5ab4 025a b50e 5a4a 045a a522 5ab5     .)Z..Z..ZJ.Z."Z.
    4775:	3261 2a0a 5ab0 0661 320b 5a40 0d5a b026     2a*.Z..a2.Z@.Z.&
    4785:	612c 005a b309 5ab5 125a 4a06 5aa5 985a     a,.Z..Z..ZJ.Z..Z
    4795:	b531 615d 155a b006 5aa0 225a b026 5aa1     .1a].Z..Z."Z.&Z.
    47a5:	e65a b125 612c 005a b511 5a4a 035a c507     .Z.%a,.Z..ZJ.Z..
    47b5:	5aa5 665a b52e 6146 035a a1c1 635a a19d     Z.fZ..aF.Z..cZ..
    47c5:	635a a17c 614e 045a a15d 635a a18a 5ab1     cZ.|aN.Z.]cZ..Z.
    47d5:	2263 5aa1 5a5a b50e 5a4a 075a c509 5aa5     "cZ.ZZ..ZJ.Z..Z.
    47e5:	8a5a b52e 635a a12b 635a a1fd 5ab1 2163     .Z..cZ.+cZ..Z.!c
    47f5:	5aa1 d461 c107 5ab0 0663 5ab1 015a b329     Z..a..Z..cZ..Z.)
    4805:	5ab5 0e5a 4a03 5ac5 075a a598 5ab5 3561     Z..ZJ.Z..Z..Z.5a
    4815:	8815 5a40 115a c00c 5ab0 265a 4180 5aa1     ..Z@.Z..Z.&ZA.Z.
    4825:	665a b132 5ab3 095a b515 5a4a 065a c509     fZ.2Z..Z..ZJ.Z..
    4835:	5aa5 815a b535 635a a137 635a a10a 6146     Z..Z.5cZ.7cZ..aF
    4845:	035a a1e0 612c 005a b131 6122 045a a1bc     .Z..a,.Z.1a".Z..
    4855:	635a a198 635a b111 5a41 a261 2d00 5aa1     cZ..cZ..ZA.a-.Z.
    4865:	e65a b125 5ab5 155a a58a 5ab5 3261 4503     .Z.%Z..Z..Z.2aE.
    4875:	5aa1 c163 5aa1 9d63 5ab0 065a a17c 614f     Z..cZ..cZ..Z.|aO
    4885:	045a a15d 635a a18a 5ab1 2263 5aa1 5a5a     .Z.]cZ..Z."cZ.ZZ
    4895:	b329 5ab5 1261 2c00 5a4a 075a a522 5ab5     .)Z..a,.ZJ.Z."Z.
    48a5:	3261 4603 5aa1 2b63 5aa1 fd5a b121 635a     2aF.Z.+cZ..Z.!cZ
    48b5:	a1d4 6132 0b5a 4007 5ac0 085a a098 5ab0     ..a2.Z@.Z..Z..Z.
    48c5:	295a b101 5a41 805a a166 5ab1 325a b309     )Z..ZA.Z.fZ.2Z..
    48d5:	612d 005a b512 5a4a 055a a598 5ab5 3161     a-.Z..ZJ.Z..Z.1a
    48e5:	4503 5aa1 3763 5aa1 0a63 5aa1 e05a b131     E.Z.7cZ..cZ..Z.1
    48f5:	614f 045a a1bc 635a a198 635a b111 5ab5     aO.Z..cZ..cZ..Z.
    4905:	115a 4a07 5aa5 8a5a b532 6188 155a 41a2     .ZJ.Z..Z.2a..ZA.
    4915:	5aa1 e65a b125 5ab3 295a b512 5a4a 065a     Z..Z.%Z.)Z..ZJ.Z
    4925:	a581 5ab5 3163 5aa1 c163 5aa1 9d63 5aa1     ..Z.1cZ..cZ..cZ.
    4935:	7c61 4f04 5ab0 095a a15d 6146 035a a18a     |aO.Z..Z.]aF.Z..
    4945:	612c 005a b122 6146 035a 400a 612c 005a     a,.Z."aF.Z@.a,.Z
    4955:	c00a 5aa0 815a b029 5aa1 5a5a b309 5ab5     ..Z..Z.)Z.ZZ..Z.
    4965:	115a 4a08 5ac5 0b5a a5cb 5ab5 3161 4603     .ZJ.Z..Z..Z.1aF.
    4975:	5aa1 2b63 5aa1 fd5a b121 635a a1d4 6132     Z.+cZ..Z.!cZ..a2
    4985:	0b5a b101 5a41 805a a166 5ab1 3261 2c00     .Z..ZA.Z.fZ.2a,.
    4995:	5ab5 115a 4a06 5ac5 095a a522 5ab5 3261     Z..ZJ.Z..Z."Z.2a
    49a5:	4603 5aa1 3763 5aa1 0a63 5ab0 095a a1e0     F.Z.7cZ..cZ..Z..
    49b5:	5ab1 3161 4f04 5aa1 bc63 5aa1 9863 5ab1     Z.1aO.Z..cZ..cZ.
    49c5:	115a a166 5ab1 325a b329 5ab5 1261 2c00     .Z.fZ.2Z.)Z..a,.
    49d5:	5a4a 035a c507 5aa5 665a b532 6146 035a     ZJ.Z..Z.fZ.2aF.Z
    49e5:	a137 635a a10a 635a a1e0 5ab1 3161 4e04     .7cZ..cZ..Z.1aN.
    49f5:	5aa1 bc63 5aa1 9863 5ab1 115a 41a2 5aa1     Z..cZ..cZ..ZA.Z.
    4a05:	e65a b125 5ab3 095a b329 5ab4 2261 2c00     .Z.%Z..Z.)Z."a,.
    4a15:	5ab5 125a 4a07 5ac5 095a a5cb 5ab5 3161     Z..ZJ.Z..Z..Z.1a
    4a25:	4603 5aa1 c163 5aa1 9d63 5aa1 7c61 4f04     F.Z..cZ..cZ.|aO.
    4a35:	5aa1 5d63 5aa1 8a5a b122 635a a15a 5ab3     Z.]cZ..Z."cZ.ZZ.
    4a45:	095a b402 5ab5 115a a58a 5ab5 2e63 5aa1     .Z..Z..Z..Z..cZ.
    4a55:	2b63 5aa1 fd5a b121 635a a1d4 6132 0b5a     +cZ..Z.!cZ..a2.Z
    4a65:	b101 5ab4 225a b50e 5a4a 045a a522 5ab5     ..Z."Z..ZJ.Z."Z.
    4a75:	3261 5d15 5ab3 2961 2c00 5ab4 025a b512     2a].Z.)a,.Z..Z..
    4a85:	5a4a 065a a598 5ab5 3161 5c15 5a40 0e5a     ZJ.Z..Z.1a\.Z@.Z
    4a95:	a022 5ab0 265a a1e6 5ab1 2561 2c00 5ab3     ."Z.&Z..Z.%a,.Z.
    4aa5:	095a b511 5a4a 035a c507 5aa5 665a b52e     .Z..ZJ.Z..Z.fZ..
    4ab5:	6146 035a a1c1 635a a19d 614f 045a a17c     aF.Z..cZ..aO.Z.|
    4ac5:	635a a15d 635a a18a 5ab1 2263 5aa1 5a5a     cZ.]cZ..Z."cZ.ZZ
    4ad5:	b50e 5a4a 075a c509 5aa5 8a5a b52e 635a     ..ZJ.Z..Z..Z..cZ
    4ae5:	a12b 635a a1fd 5ab1 2161 4e04 5aa1 d463     .+cZ..Z.!aN.Z..c
    4af5:	5ab0 0663 635a b101 5a4b 055a b329 5ab5     Z..ccZ..ZK.Z.)Z.
    4b05:	0e5a 4a03 5ac5 075a a598 5ab5 3561 8915     .ZJ.Z..Z..Z.5a..
    4b15:	5a40 0f5a b026 5a41 805a a166 5ab1 325a     Z@.Z.&ZA.Z.fZ.2Z
    4b25:	b309 5ab5 155a 4a06 5ac5 095a a581 5ab5     ..Z..ZJ.Z..Z..Z.
    4b35:	3563 5aa1 3763 5aa1 0a61 4e04 5aa1 e05a     5cZ.7cZ..aN.Z..Z
    4b45:	b131 6146 035a a1bc 635a a198 635a b111     .1aF.Z..cZ..cZ..
    4b55:	5a41 a261 2c00 5aa1 e65a b125 5ab5 155a     ZA.a,.Z..Z.%Z..Z
    4b65:	a58a 5ab5 3261 4603 5aa1 c163 5ab0 065a     ..Z.2aF.Z..cZ..Z
    4b75:	a19d 614f 045a a17c 635a a15d 635a a18a     ..aO.Z.|cZ.]cZ..
    4b85:	5ab1 2263 5aa1 5a5a b329 5ab5 1261 2c00     Z."cZ.ZZ.)Z..a,.
    4b95:	5a4a 075a a522 5ab5 3261 4603 5aa1 2b63     ZJ.Z."Z.2aF.Z.+c
    4ba5:	5aa1 fd5a b121 614e 045a a1d4 6156 0a5a     Z..Z.!aN.Z..aV.Z
    4bb5:	400a 5aa0 985a b029 5ab1 015a 4180 5aa1     @.Z..Z.)Z..ZA.Z.
    4bc5:	665a b132 5ab3 0961 2c00 5ab5 125a 4a05     fZ.2Z..a,.Z..ZJ.
    4bd5:	5aa5 985a b531 6146 035a a137 635a a10a     Z..Z.1aF.Z.7cZ..
    4be5:	614f 045a a1e0 5ab1 3163 5aa1 bc63 5aa1     aO.Z..Z.1cZ..cZ.
    4bf5:	9863 5ab1 115a b511 5a4a 075a a58a 5ab5     .cZ..Z..ZJ.Z..Z.
    4c05:	3261 8815 5a41 a25a a1e6 5ab1 255a b329     2a..ZA.Z..Z.%Z.)
    4c15:	5ab5 125a 4a06 5aa5 815a b531 635a a1c1     Z..ZJ.Z..Z.1cZ..
    4c25:	635a a19d 614f 045a a17c 635a a15d 635a     cZ..aO.Z.|cZ.]cZ
    4c35:	a18a 5ab1 2261 4603 5aa1 5a61 2c00 5ab3     ..Z."aF.Z.Za,.Z.
    4c45:	095a b511 5a4a 085a c50b 5aa5 cb5a b531     .Z..ZJ.Z..Z..Z.1
    4c55:	6146 035a a12b 635a a1fd 5ab1 2161 4e04     aF.Z.+cZ..Z.!aN.
    4c65:	5ab0 095a a1d4 6156 0a5a 400e 5aa0 815a     Z..Z..aV.Z@.Z..Z
    4c75:	b029 612c 005a b101 5a41 805a a166 5ab1     .)a,.Z..ZA.Z.fZ.
    4c85:	325a b511 5a4a 065a c509 5aa5 225a b532     2Z..ZJ.Z..Z."Z.2
    4c95:	6146 035a a137 635a a10a 614f 045a a1e0     aF.Z.7cZ..aO.Z..
    4ca5:	5ab1 3163 5aa1 bc63 5aa1 9863 5ab1 115a     Z.1cZ..cZ..cZ..Z
    4cb5:	b329 5ab5 125a 4a03 5ac5 0761 2c00 5aa5     .)Z..ZJ.Z..a,.Z.
    4cc5:	665a b532 6178 0e5a b009 6363 5a40 125a     fZ.2ax.Z..ccZ@.Z
    4cd5:	c00c 5aa0 665a b026 5a41 a25a a1e6 5ab1     ..Z.fZ.&ZA.Z..Z.
    4ce5:	255a b309 5ab3 295a b512 612c 005a 4a07     %Z..Z.)Z..a,.ZJ.
    4cf5:	5ac5 095a a5cb 5ab5 3161 4603 5aa1 c163     Z..Z..Z.1aF.Z..c
    4d05:	5aa1 9d61 4f04 5aa1 7c63 5ab0 065a a15d     Z..aO.Z.|cZ..Z.]
    4d15:	635a a18a 5ab1 2263 5a40 0e5a c00a 5aa0     cZ..Z."cZ@.Z..Z.
    4d25:	8a5a b026 5aa1 5a5a b309 5ab4 225a b511     .Z.&Z.ZZ..Z."Z..
    4d35:	5aa5 8a5a b52e 635a a12b 635a a1fd 5ab1     Z..Z..cZ.+cZ..Z.
    4d45:	2161 4e04 5aa1 d461 560a 5ab1 015a b329     !aN.Z..aV.Z..Z.)
    4d55:	5ab4 025a b50e 5a4a 045a a522 5ab5 3261     Z..Z..ZJ.Z."Z.2a
    4d65:	060b 5ab0 0661 560a 5ab0 2661 2d00 5ab3     ..Z..aV.Z.&a-.Z.
    4d75:	095a b512 5a4a 065a a598 5ab5 3161 780e     .Z..ZJ.Z..Z.1ax.
    4d85:	5ab0 0663 635a 4013 5ac0 0c5a a022 5ab0     Z..ccZ@.Z..Z."Z.
    4d95:	265a a1e6 5ab1 2561 2c00 5ab5 115a 4a03     &Z..Z.%a,.Z..ZJ.
    4da5:	5ac5 075a a566 5ab5 2e61 4603 5aa1 c163     Z..Z.fZ..aF.Z..c
    4db5:	5aa1 9d61 4e04 5aa1 7c63 5aa1 5d63 5aa1     Z..aN.Z.|cZ.]cZ.
    4dc5:	8a5a b122 635a a15a 5ab5 0e5a 4a07 5ac5     .Z."cZ.ZZ..ZJ.Z.
    4dd5:	095a a58a 5ab5 2e63 5aa1 2b63 5aa1 fd5a     .Z..Z..cZ.+cZ..Z
    4de5:	b121 614f 045a a1d4 6156 0a5a b006 5ab1     .!aO.Z..aV.Z..Z.
    4df5:	015a b329 5ab5 0e5a 4a03 5ac5 075a a598     .Z.)Z..ZJ.Z..Z..
    4e05:	5ab5 3561 8815 5a40 115a b026 5a41 805a     Z.5a..Z@.Z.&ZA.Z
    4e15:	a166 5ab1 325a b309 5ab5 155a 4a06 5ac5     .fZ.2Z..Z..ZJ.Z.
    4e25:	095a a581 5ab5 3563 5aa1 3763 5aa1 0a61     .Z..Z.5cZ.7cZ..a
    4e35:	4f04 5aa1 e05a b131 6146 035a a1bc 635a     O.Z..Z.1aF.Z..cZ
    4e45:	a198 635a b111 612c 005a 41a2 5aa1 e65a     ..cZ..a,.ZA.Z..Z
    4e55:	b125 5ab5 155a a58a 5ab5 3261 4603 5aa1     .%Z..Z..Z.2aF.Z.
    4e65:	c163 5aa1 9d61 4e04 5aa1 7c63 5ab0 065a     .cZ..aN.Z.|cZ..Z
    4e75:	a15d 635a a18a 5ab1 2263 5aa1 5a5a b329     .]cZ..Z."cZ.ZZ.)
    4e85:	5ab5 1261 2c00 5a4a 075a a522 5ab5 3261     Z..a,.ZJ.Z."Z.2a
    4e95:	4603 5aa1 2b61 4f04 5aa1 fd5a b121 635a     F.Z.+aO.Z..Z.!cZ
    4ea5:	a1d4 6156 0a5a 400c 5ac0 0a5a a098 5ab0     ..aV.Z@.Z..Z..Z.
    4eb5:	295a b101 5a41 805a a166 5ab1 325a b309     )Z..ZA.Z.fZ.2Z..
    4ec5:	612c 005a b512 5a4a 055a a598 5ab5 3161     a,.Z..ZJ.Z..Z.1a
    4ed5:	4603 5aa1 3761 4e04 5aa1 0a63 5aa1 e05a     F.Z.7aN.Z..cZ..Z
    4ee5:	b131 635a a1bc 635a a198 635a b111 5ab5     .1cZ..cZ..cZ..Z.
    4ef5:	115a 4a07 5aa5 8a5a b532 6189 155a 41a2     .ZJ.Z..Z.2a..ZA.
    4f05:	5aa1 e65a b125 5ab3 295a b512 5a4a 065a     Z..Z.%Z.)Z..ZJ.Z
    4f15:	a581 5ab5 3163 5aa1 c161 4e04 5aa1 9d63     ..Z.1cZ..aN.Z..c
    4f25:	5aa1 7c63 5aa1 5d63 5aa1 8a5a b122 6146     Z.|cZ.]cZ..Z."aF
    4f35:	035a a15a 612c 005a b309 5ab5 115a 4a08     .Z.Za,.Z..Z..ZJ.
    4f45:	5ac5 0b5a a5cb 5ab5 3161 4603 5aa1 2b61     Z..Z..Z.1aF.Z.+a
    4f55:	4f04 5aa1 fd5a b121 635a a1d4 635a b009     O.Z..Z.!cZ..cZ..
    4f65:	6363 5aa0 815a b029 612c 005a b101 5a41     ccZ..Z.)a,.Z..ZA
    4f75:	805a a166 5ab1 325a b511 5a4a 065a c509     .Z.fZ.2Z..ZJ.Z..
    4f85:	5aa5 225a b532 6146 035a a137 614e 045a     Z."Z.2aF.Z.7aN.Z
    4f95:	a10a 635a a1e0 5ab1 3163 5aa1 bc63 5aa1     ..cZ..Z.1cZ..cZ.
    4fa5:	9863 5ab1 115a b329 5ab5 125a 4a03 5ac5     .cZ..Z.)Z..ZJ.Z.
    4fb5:	0761 2c00 5aa5 665a b532 615d 155a b009     .a,.Z.fZ.2a].Z..
    4fc5:	5a40 105a c00c 5aa0 665a b026 5a41 a25a     Z@.Z..Z.fZ.&ZA.Z
    4fd5:	a1e6 5ab1 255a b309 612c 005a b329 5ab5     ..Z.%Z..a,.Z.)Z.
    4fe5:	125a 4a07 5ac5 095a a5cb 5ab5 3161 4603     .ZJ.Z..Z..Z.1aF.
    4ff5:	5aa1 c161 4e04 5aa1 9d63 5aa1 7c63 5aa1     Z..aN.Z..cZ.|cZ.
    5005:	5d63 5ab0 065a a18a 5ab1 2263 5a40 0d5a     ]cZ..Z..Z."cZ@.Z
    5015:	c00a 5aa0 8a5a b026 5aa1 5a5a b309 5ab4     ..Z..Z.&Z.ZZ..Z.
    5025:	225a b511 5aa5 8a5a b52e 635a a12b 614f     "Z..Z..Z..cZ.+aO
    5035:	045a a1fd 5ab1 2163 5aa1 d461 560a 5ab1     .Z..Z.!cZ..aV.Z.
    5045:	015a b329 5ab4 025a b50e 5a4a 045a a522     .Z.)Z..Z..ZJ.Z."
    5055:	5ab5 3261 060b 5ab0 0661 560a 5ab0 2661     Z.2a..Z..aV.Z.&a
    5065:	2c00 5ab3 095a b512 5a4a 065a a598 5ab5     ,.Z..Z..ZJ.Z..Z.
    5075:	3161 790e 5ab0 0663 635a 400e 5aa0 225a     1ay.Z..ccZ@.Z."Z
    5085:	b026 5aa1 e65a b125 612c 005a b511 5a4a     .&Z..Z.%a,.Z..ZJ
    5095:	035a c507 5aa5 665a b52e 6146 035a a1c1     .Z..Z.fZ..aF.Z..
    50a5:	614e 045a a19d 635a a17c 635a a15d 635a     aN.Z..cZ.|cZ.]cZ
    50b5:	a18a 5ab1 2263 5aa1 5a5a b50e 5a4a 075a     ..Z."cZ.ZZ..ZJ.Z
    50c5:	c509 5aa5 8a5a b52e 635a a12b 614f 045a     ..Z..Z..cZ.+aO.Z
    50d5:	a1fd 5ab1 2163 5aa1 d463 5ab0 0663 635a     ..Z.!cZ..cZ..ccZ
    50e5:	b101 5a4b 065a b329 5ab5 0e5a 4a03 5ac5     ..ZK.Z.)Z..ZJ.Z.
    50f5:	075a a598 5ab5 3561 8815 5a40 0d5a b026     .Z..Z.5a..Z@.Z.&
    5105:	5a41 805a a166 5ab1 325a b309 5ab5 155a     ZA.Z.fZ.2Z..Z..Z
    5115:	4a06 5ac5 095a a581 5ab5 3563 5aa1 3761     J.Z..Z..Z.5cZ.7a
    5125:	4f04 5aa1 0a63 5aa1 e05a b131 6146 035a     O.Z..cZ..Z.1aF.Z
    5135:	a1bc 635a a198 635a b111 612c 005a 41a2     ..cZ..cZ..a,.ZA.
    5145:	5aa1 e65a b125 5ab5 155a a58a 5ab5 3261     Z..Z.%Z..Z..Z.2a
    5155:	4603 5aa1 c161 4e04 5aa1 9d63 5ab0 065a     F.Z..aN.Z..cZ..Z
    5165:	a17c 635a a15d 635a a18a 5ab1 2263 5aa1     .|cZ.]cZ..Z."cZ.
    5175:	5a5a b329 612c 005a b512 5a4a 075a a522     ZZ.)a,.Z..ZJ.Z."
    5185:	5ab5 3261 4603 5aa1 2b61 4f04 5aa1 fd5a     Z.2aF.Z.+aO.Z..Z
    5195:	b121 635a a1d4 6156 0a5a 4009 5aa0 985a     .!cZ..aV.Z@.Z..Z
    51a5:	b029 5ab1 015a 4180 5aa1 665a b132 5ab3     .)Z..ZA.Z.fZ.2Z.
    51b5:	0961 2c00 5ab5 125a 4a05 5aa5 985a b531     .a,.Z..ZJ.Z..Z.1
    51c5:	6146 035a a137 614e 045a a10a 635a a1e0     aF.Z.7aN.Z..cZ..
    51d5:	5ab1 3163 5aa1 bc63 5aa1 9863 5ab1 115a     Z.1cZ..cZ..cZ..Z
    51e5:	b511 5a4a 075a a58a 5ab5 3261 8915 5a41     ..ZJ.Z..Z.2a..ZA
    51f5:	a25a a1e6 5ab1 255a b329 5ab5 125a 4a06     .Z..Z.%Z.)Z..ZJ.
    5205:	5aa5 815a b531 635a a1c1 614e 045a a19d     Z..Z.1cZ..aN.Z..
    5215:	635a a17c 635a a15d 635a a18a 5ab1 2263     cZ.|cZ.]cZ..Z."c
    5225:	5aa1 5a5a b309 5ab5 115a 4a08 5ac5 0b5a     Z.ZZ..Z..ZJ.Z..Z
    5235:	a5cb 5ab5 3161 4603 5aa1 2b61 4e04 5aa1     ..Z.1aF.Z.+aN.Z.
    5245:	fd5a b121 635a a1d4 635a b009 6363 5a40     .Z.!cZ..cZ..ccZ@
    5255:	0d5a a081 5ab0 2961 2d00 5ab1 015a 4180     .Z..Z.)a-.Z..ZA.
    5265:	5aa1 665a b132 5ab5 115a 4a06 5ac5 095a     Z.fZ.2Z..ZJ.Z..Z
    5275:	a522 5ab5 3261 4503 5aa1 3761 4f04 5aa1     ."Z.2aE.Z.7aO.Z.
    5285:	0a63 5aa1 e05a b131 635a a1bc 635a a198     .cZ..Z.1cZ..cZ..
    5295:	635a b111 5ab3 295a b512 5a4a 035a c507     cZ..Z.)Z..ZJ.Z..
    52a5:	612c 005a a566 5ab5 3261 ea11 5ab0 0963     a,.Z.fZ.2a..Z..c
    52b5:	5a40 0f5a a066 5ab0 265a 41a2 5aa1 e65a     Z@.Z.fZ.&ZA.Z..Z
    52c5:	b125 5ab3 095a b329 612d 005a b512 5a4a     .%Z..Z.)a-.Z..ZJ
    52d5:	075a c509 5aa5 cb5a b531 6122 045a a1c1     .Z..Z..Z.1a".Z..
    52e5:	635a a19d 635a a17c 635a b006 5aa1 5d63     cZ..cZ.|cZ..Z.]c
    52f5:	5aa1 8a5a b122 635a 400c 5aa0 8a5a b026     Z..Z."cZ@.Z..Z.&
    5305:	5aa1 5a5a b309 5ab4 225a b511 5aa5 8a5a     Z.ZZ..Z."Z..Z..Z
    5315:	b52e 614e 045a a12b 635a a1fd 5ab1 2163     ..aN.Z.+cZ..Z.!c
    5325:	5aa1 d461 560a 5ab1 015a b329 5ab4 025a     Z..aV.Z..Z.)Z..Z
    5335:	b50e 5a4a 045a a522 5ab5 3261 070b 5ab0     ..ZJ.Z."Z.2a..Z.
    5345:	0661 560a 5a40 0d5a b026 612c 005a b309     .aV.Z@.Z.&a,.Z..
    5355:	5ab5 125a 4a06 5aa5 985a b531 615c 155a     Z..ZJ.Z..Z.1a\.Z
    5365:	b006 5aa0 225a b026 612c 005a a1e6 5ab1     ..Z."Z.&a,.Z..Z.
    5375:	255a b511 5a4a 035a c507 5aa5 665a b52e     %Z..ZJ.Z..Z.fZ..
    5385:	6123 045a a1c1 635a a19d 635a a17c 635a     a#.Z..cZ..cZ.|cZ
    5395:	a15d 635a a18a 5ab1 2263 5aa1 5a5a b50e     .]cZ..Z."cZ.ZZ..
    53a5:	5a4a 075a c509 5aa5 8a5a b52e 614e 045a     ZJ.Z..Z..Z..aN.Z
    53b5:	a12b 635a a1fd 5ab1 2163 5aa1 d463 635a     .+cZ..Z.!cZ..ccZ
    53c5:	b006 635a b101 5ab3 295a b50e 5a4a 035a     ..cZ..Z.)Z..ZJ.Z
    53d5:	c507 5aa5 985a b535 6189 155a 4011 5ac0     ..Z..Z.5a..Z@.Z.
    53e5:	0c5a b026 5a41 805a a166 5ab1 325a b309     .Z.&ZA.Z.fZ.2Z..
    53f5:	5ab5 155a 4a06 5ac5 095a a581 5ab5 3561     Z..ZJ.Z..Z..Z.5a
    5405:	4e04 5aa1 3763 5aa1 0a63 5aa1 e05a b131     N.Z.7cZ..cZ..Z.1
    5415:	635a a1bc 6146 035a a198 635a b111 612c     cZ..aF.Z..cZ..a,
    5425:	005a 41a2 5aa1 e65a b125 5ab5 155a a58a     .ZA.Z..Z.%Z..Z..
    5435:	5ab5 3261 2304 5aa1 c163 5aa1 9d63 5ab0     Z.2a#.Z..cZ..cZ.
    5445:	065a a17c 635a a15d 635a a18a 5ab1 2263     .Z.|cZ.]cZ..Z."c
    5455:	5aa1 5a5a b329 612c 005a b512 5a4a 075a     Z.ZZ.)a,.Z..ZJ.Z
    5465:	a522 5ab5 3261 2204 5aa1 2b63 5aa1 fd5a     ."Z.2a".Z.+cZ..Z
    5475:	b121 635a a1d4 6156 0a5a 4007 5ac0 085a     .!cZ..aV.Z@.Z..Z
    5485:	a098 5ab0 295a b101 5a41 805a a166 5ab1     ..Z.)Z..ZA.Z.fZ.
    5495:	3261 2c00 5ab3 095a b512 5a4a 055a a598     2a,.Z..Z..ZJ.Z..
    54a5:	5ab5 3161 2304 5aa1 3763 5aa1 0a63 5aa1     Z.1a#.Z.7cZ..cZ.
    54b5:	e05a b131 635a a1bc 635a a198 635a b111     .Z.1cZ..cZ..cZ..
    54c5:	5ab5 115a 4a07 5aa5 8a5a b532 6188 155a     Z..ZJ.Z..Z.2a..Z
    54d5:	41a2 5aa1 e65a b125 5ab3 295a b512 5a4a     A.Z..Z.%Z.)Z..ZJ
    54e5:	065a a581 5ab5 3161 4f04 5aa1 c163 5aa1     .Z..Z.1aO.Z..cZ.
    54f5:	9d63 5aa1 7c63 5ab0 095a a15d 635a a18a     .cZ.|cZ..Z.]cZ..
    5505:	5ab1 2263 5a40 0a5a c00a 5aa0 815a b029     Z."cZ@.Z..Z..Z.)
    5515:	5aa1 5a5a b309 5ab5 115a 4a08 5ac5 0b5a     Z.ZZ..Z..ZJ.Z..Z
    5525:	a5cb 5ab5 3161 2204 5aa1 2b63 5aa1 fd5a     ..Z.1a".Z.+cZ..Z
    5535:	b121 635a a1d4 6156 0a5a b101 5a41 805a     .!cZ..aV.Z..ZA.Z
    5545:	a166 5ab1 3261 2c00 5ab5 115a 4a06 5ac5     .fZ.2a,.Z..ZJ.Z.
    5555:	095a a522 5ab5 3261 2304 5aa1 3763 5aa1     .Z."Z.2a#.Z.7cZ.
    5565:	0a63 5ab0 095a a1e0 5ab1 3163 5aa1 bc63     .cZ..Z..Z.1cZ..c
    5575:	5aa1 9863 5ab1 115a a166 5ab1 325a b329     Z..cZ..Z.fZ.2Z.)
    5585:	612c 005a b512 5a4a 035a c507 5aa5 665a     a,.Z..ZJ.Z..Z.fZ
    5595:	b532 6122 045a a137 635a a10a 635a a1e0     .2a".Z.7cZ..cZ..
    55a5:	5ab1 3163 5aa1 bc63 5aa1 9863 5ab1 115a     Z.1cZ..cZ..cZ..Z
    55b5:	41a2 5aa1 e65a b125 5ab3 095a b329 5ab4     A.Z..Z.%Z..Z.)Z.
    55c5:	2261 2c00 5ab5 125a 4a07 5ac5 095a a5cb     "a,.Z..ZJ.Z..Z..
    55d5:	5ab5 3161 2304 5aa1 c163 5aa1 9d63 5aa1     Z.1a#.Z..cZ..cZ.
    55e5:	7c63 5aa1 5d63 5aa1 8a5a b122 635a a15a     |cZ.]cZ..Z."cZ.Z
    55f5:	5ab3 095a b402 5ab5 115a a58a 5ab5 2e61     Z..Z..Z..Z..Z..a
    5605:	4e04 5aa1 2b63 5aa1 fd5a b121 635a a1d4     N.Z.+cZ..Z.!cZ..
    5615:	6156 0a5a b101 5ab4 225a b50e 5a4a 045a     aV.Z..Z."Z..ZJ.Z
    5625:	a522 5ab5 3261 5d15 5ab3 2961 2c00 5ab4     ."Z.2a].Z.)a,.Z.
    5635:	025a b512 5a4a 065a a598 5ab5 3161 3916     .Z..ZJ.Z..Z.1a9.
    5645:	5a40 0e5a a022 5ab0 265a a1e6 5ab1 2561     Z@.Z."Z.&Z..Z.%a
    5655:	2c00 5ac2 0e5a e203 5a42 005a 62f4 5a82     ,.Z..Z..ZB.Zb.Z.
    5665:	375a 222d 5ae5 025a 4500 5a65 f55a 8599     7Z"-Z..ZE.Ze.Z..
    5675:	5a25 2e5a 4507 5aa2 435a b232 5ab3 095a     Z%.ZE.Z.CZ.2Z..Z
    5685:	b511 5a4a 035a c507 5aa5 665a b52e 612c     ..ZJ.Z..Z.fZ..a,
    5695:	005a c60e 5af0 035a 5047 5a70 f35a 90b7     .Z..Z..ZPGZp.Z..
    56a5:	5a30 425a f300 5a53 045a 73f2 5a93 f25a     Z0BZ..ZS.Zs.Z..Z
    56b5:	3301 5aa6 815a b635 5ac7 0e5a f103 5a51     3.Z..Z.5Z..Z..ZQ
    56c5:	905a 71f3 5a91 f75a 3182 5af4 0061 2c00     .Zq.Z..Z1.Z..a,.
    56d5:	5a54 045a 74f2 5a94 f35a 3401 5aa7 815a     ZT.Zt.Z..Z4.Z..Z
    56e5:	b735 5ac8 0c5a f202 5a52 0f5a 72f2 5a92     .5Z..Z..ZR.Zr.Z.
    56f5:	035a 3264 5af5 035a 5500 5a75 f15a 9566     .Z2dZ..ZU.Zu.Z.f
    5705:	5a35 295a a8b1 5ab8 3162 7e5a a1c1 5ab2     Z5)Z..Z.1b~Z..Z.
    5715:	125a a699 5aa7 8e61 2c00 5aa8 ab61 4603     .Z..Z..a,.Z..aF.
    5725:	5aa1 9d5a a79b 5aa8 a563 5aa1 7c5a a89f     Z..Z..Z..cZ.|Z..
    5735:	635a a15d 5aa8 9863 5aa1 8a5a b122 614e     cZ.]Z..cZ..Z."aN
    5745:	045a a15a 5ab5 0e5a 4a07 5ac5 095a a58a     .Z.ZZ..ZJ.Z..Z..
    5755:	5ab5 2e63 5aa1 2b63 5aa1 fd5a b121 635a     Z..cZ.+cZ..Z.!cZ
    5765:	a1d4 635a b006 61c1 075a b101 5a4b 055a     ..cZ..a..Z..ZK.Z
    5775:	b329 5a4c 095a a466 5ab4 265a b50e 5a4a     .)ZL.Z.fZ.&Z..ZJ
    5785:	035a c507 5aa5 985a b535 613a 115a b406     .Z..Z..Z.5a:.Z..
    5795:	614e 045a 400f 5ab0 265a 4180 5aa1 665a     aN.Z@.Z.&ZA.Z.fZ
    57a5:	b132 5ab3 095a 4c0e 5aa4 435a b422 5ab5     .2Z..ZL.Z.CZ."Z.
    57b5:	155a 4a06 5ac5 095a a581 5ab5 3563 5aa1     .ZJ.Z..Z..Z.5cZ.
    57c5:	3763 5aa1 0a63 5aa1 e05a b131 635a a1bc     7cZ..cZ..Z.1cZ..
    57d5:	6146 035a a198 614e 045a b111 612d 005a     aF.Z..aN.Z..a-.Z
    57e5:	41a2 5aa1 e65a b125 5a45 0d5a a28a 5ab2     A.Z..Z.%ZE.Z..Z.
    57f5:	325a b402 5ab5 155a a58a 5ab5 3261 4503     2Z..Z..Z..Z.2aE.
    5805:	5aa1 c163 5ab0 065a a19d 635a a17c 635a     Z..cZ..Z..cZ.|cZ
    5815:	a15d 635a a18a 5ab1 2261 4f04 5aa1 5a5a     .]cZ..Z."aO.Z.ZZ
    5825:	b329 612c 005a b512 5a4a 075a a522 5ab5     .)a,.Z..ZJ.Z."Z.
    5835:	3261 4603 5aa1 2b63 5aa1 fd5a b121 635a     2aF.Z.+cZ..Z.!cZ
    5845:	a1d4 6132 0b5a 400a 5aa0 985a b029 5ab1     ..a2.Z@.Z..Z.)Z.
    5855:	015a 4180 5aa1 665a b132 612d 005a b309     .ZA.Z.fZ.2a-.Z..
    5865:	5a4c 075a a466 5ab4 265a b512 5a4a 055a     ZL.Z.fZ.&Z..ZJ.Z
    5875:	a598 5ab5 3161 4503 5aa1 3763 5aa1 0a63     ..Z.1aE.Z.7cZ..c
    5885:	5aa1 e05a b131 635a a1bc 635a a198 614f     Z..Z.1cZ..cZ..aO
    5895:	045a b111 5ab5 115a 4a07 5aa5 8a5a b532     .Z..Z..ZJ.Z..Z.2
    58a5:	6188 155a 41a2 5aa1 e65a b125 5ab2 125a     a..ZA.Z..Z.%Z..Z
    58b5:	4507 5aa2 435a b232 5ab3 295a b406 5ab5     E.Z.CZ.2Z.)Z..Z.
    58c5:	125a 4a06 5aa5 815a b531 635a a1c1 5ab2     .ZJ.Z..Z.1cZ..Z.
    58d5:	1263 5aa1 9d63 5aa1 7c63 5aa1 5d63 5aa1     .cZ..cZ.|cZ.]cZ.
    58e5:	8a5a b122 614f 045a a15a 5ab3 095a b511     .Z."aO.Z.ZZ..Z..
    58f5:	5a4a 085a c50b 5aa5 cb5a b531 6146 035a     ZJ.Z..Z..Z.1aF.Z
    5905:	a12b 635a a1fd 5ab1 2163 5ab0 0961 2c00     .+cZ..Z.!cZ..a,.
    5915:	5aa1 d461 060b 5a40 0e5a a081 5ab0 2961     Z..a..Z@.Z..Z.)a
    5925:	2c00 5ab1 015a 4180 5aa1 665a b132 5a4c     ,.Z..ZA.Z.fZ.2ZL
    5935:	065a b426 5ab5 115a 4a06 5ac5 095a a522     .Z.&Z..ZJ.Z..Z."
    5945:	5ab5 3261 4603 5aa1 3763 5aa1 0a63 5aa1     Z.2aF.Z.7cZ..cZ.
    5955:	e05a b131 635a a1bc 5ab4 0663 5aa1 9861     .Z.1cZ..Z..cZ..a
    5965:	4f04 5ab1 115a b329 5a4c 0a5a a443 5ab4     O.Z..Z.)ZL.Z.CZ.
    5975:	2261 2c00 5ab5 125a 4a03 5ac5 075a a566     "a,.Z..ZJ.Z..Z.f
    5985:	5ab5 3261 9c0d 5ab0 095a b615 5ab7 155a     Z.2a..Z..Z..Z..Z
    5995:	b811 61c0 075a 4012 5ac0 0c5a a066 5ab0     ..a..Z@.Z..Z.fZ.
    59a5:	265a 41a2 5aa1 e65a b125 5a45 045a a28a     &ZA.Z..Z.%ZE.Z..
    59b5:	5ab2 325a b309 612c 005a b329 5ab5 125a     Z.2Z..a,.Z.)Z..Z
    59c5:	4a07 5ac5 095a a5cb 5ab5 315a 504b 5aa6     J.Z..Z..Z.1ZPKZ.
    59d5:	575a b635 5a51 945a a757 5ab7 355a 5211     WZ.5ZQ.Z.WZ.5ZR.
    59e5:	5a55 025a a881 5ab8 3161 4603 5aa1 c15a     ZU.Z..Z.1aF.Z..Z
    59f5:	a66d 5aa7 635a a87c 635a a19d 5ab4 025a     .mZ.cZ.|cZ..Z..Z
    5a05:	a76f 5aa8 7763 5aa1 7c5a a872 635a b006     .oZ.wcZ.|Z.rcZ..
    5a15:	5aa1 5d5a a86c 635a a18a 5ab1 2261 4f04     Z.]Z.lcZ..Z."aO.
    5a25:	5a40 0e5a c00a 5aa0 8a5a b026 5aa1 5a5a     Z@.Z..Z..Z.&Z.ZZ
    5a35:	b309 5a4c 065a b422 5ab5 115a a58a 5ab5     ..ZL.Z."Z..Z..Z.
    5a45:	2e63 5aa1 2b63 5aa1 fd5a b121 635a a1d4     .cZ.+cZ..Z.!cZ..
    5a55:	6132 0b5a b101 5ab3 295a b402 5a4c 045a     a2.Z..Z.)Z..ZL.Z
    5a65:	a466 5ab4 265a b50e 5a4a 045a a522 5ab5     .fZ.&Z..ZJ.Z."Z.
    5a75:	3261 560a 5ab0 0661 330b 5ab0 265a b309     2aV.Z..a3.Z.&Z..
    5a85:	5ab5 125a 4a06 5aa5 985a b531 612a 0a5a     Z..ZJ.Z..Z.1a*.Z
    5a95:	b615 5ab7 1561 2c00 5ab8 1161 4603 5ab0     ..Z..a,.Z..aF.Z.
    5aa5:	065a b406 61c0 075a 4013 5ac0 0c5a a022     .Z..a..Z@.Z..Z."
    5ab5:	5ab0 265a a1e6 5ab1 2561 2c00 5ab2 125a     Z.&Z..Z.%a,.Z..Z
    5ac5:	4507 5aa2 435a b232 5ab5 115a 4a03 5ac5     E.Z.CZ.2Z..ZJ.Z.
    5ad5:	075a a566 5ab5 2e5a 5049 5aa6 815a b635     .Z.fZ..ZPIZ..Z.5
    5ae5:	5a51 925a a781 5ab7 355a 5210 5a55 015a     ZQ.Z..Z.5ZR.ZU.Z
    5af5:	a8b1 5ab8 3161 4603 5aa1 c15a b212 5aa6     ..Z.1aF.Z..Z..Z.
    5b05:	995a a78e 612c 005a a8ab 6146 035a a19d     .Z..a,.Z..aF.Z..
    5b15:	5aa7 9b5a a8a5 635a a17c 5aa8 9f63 5aa1     Z..Z..cZ.|Z..cZ.
    5b25:	5d5a a898 635a a18a 5ab1 2261 4f04 5aa1     ]Z..cZ..Z."aO.Z.
    5b35:	5a5a b50e 5a4a 075a c509 5aa5 8a5a b52e     ZZ..ZJ.Z..Z..Z..
    5b45:	635a a12b 635a a1fd 5ab1 2163 5aa1 d461     cZ.+cZ..Z.!cZ..a
    5b55:	320b 5ab0 065a b101 5ab3 295a 4c07 5ab4     2.Z..Z..Z.)ZL.Z.
    5b65:	265a b50e 5a4a 035a c507 5aa5 9861 2c00     &Z..ZJ.Z..Z..a,.
    5b75:	5ab5 3561 0e11 5ab4 0661 4f04 5a40 115a     Z.5a..Z..aO.Z@.Z
    5b85:	b026 5a41 805a a166 5ab1 325a b309 5a4c     .&ZA.Z.fZ.2Z..ZL
    5b95:	0d5a a443 5ab4 225a b515 5a4a 065a c509     .Z.CZ."Z..ZJ.Z..
    5ba5:	5aa5 815a b535 635a a137 635a a10a 635a     Z..Z.5cZ.7cZ..cZ
    5bb5:	a1e0 5ab1 3163 5aa1 bc63 5aa1 9861 2204     ..Z.1cZ..cZ..a".
    5bc5:	5ab1 1161 2c00 5a41 a25a a1e6 5ab1 255a     Z..a,.ZA.Z..Z.%Z
    5bd5:	4506 5aa2 8a5a b232 5ab4 025a b515 5aa5     E.Z..Z.2Z..Z..Z.
    5be5:	8a5a b532 6146 035a a1c1 635a a19d 635a     .Z.2aF.Z..cZ..cZ
    5bf5:	a17c 635a b006 5aa1 5d63 5aa1 8a5a b122     .|cZ..Z.]cZ..Z."
    5c05:	614f 045a a15a 5ab3 2961 2c00 5ab5 125a     aO.Z.ZZ.)a,.Z..Z
    5c15:	4a07 5aa5 225a b532 6146 035a a12b 635a     J.Z."Z.2aF.Z.+cZ
    5c25:	a1fd 5ab1 2163 5aa1 d461 320b 5a40 0c5a     ..Z.!cZ..a2.Z@.Z
    5c35:	c00a 5aa0 985a b029 5ab1 015a 4180 5aa1     ..Z..Z.)Z..ZA.Z.
    5c45:	665a b132 612c 005a b309 5a4c 045a a466     fZ.2a,.Z..ZL.Z.f
    5c55:	5ab4 265a b512 5a4a 055a a598 5ab5 3161     Z.&Z..ZJ.Z..Z.1a
    5c65:	4603 5aa1 3763 5aa1 0a63 5aa1 e05a b131     F.Z.7cZ..cZ..Z.1
    5c75:	635a a1bc 614f 045a a198 635a b111 5ab5     cZ..aO.Z..cZ..Z.
    5c85:	115a 4a07 5aa5 8a5a b532 6156 0a5a b406     .ZJ.Z..Z.2aV.Z..
    5c95:	6132 0b5a 41a2 5aa1 e65a b125 5ab2 125a     a2.ZA.Z..Z.%Z..Z
    5ca5:	a243 5ab2 325a b329 5ab5 125a 4a06 5aa5     .CZ.2Z.)Z..ZJ.Z.
    5cb5:	815a b531 635a a1c1 5ab2 1263 5aa1 9d63     .Z.1cZ..Z..cZ..c
    5cc5:	5aa1 7c63 5aa1 5d61 4f04 5aa1 8a5a b122     Z.|cZ.]aO.Z..Z."
    5cd5:	635a a15a 5ab3 095a b511 5a4a 085a c50b     cZ.ZZ..Z..ZJ.Z..
    5ce5:	5aa5 cb5a b531 635a a12b 6146 035a a1fd     Z..Z.1cZ.+aF.Z..
    5cf5:	5ab1 2163 5aa1 d463 5ab0 0961 c007 5aa0     Z.!cZ..cZ..a..Z.
    5d05:	815a b029 612c 005a b101 5a41 805a a166     .Z.)a,.Z..ZA.Z.f
    5d15:	5ab1 325a 4c06 5ab4 265a b511 5a4a 065a     Z.2ZL.Z.&Z..ZJ.Z
    5d25:	c509 5aa5 225a b532 6146 035a a137 635a     ..Z."Z.2aF.Z.7cZ
    5d35:	a10a 635a a1e0 5ab1 3163 5aa1 bc61 4f04     ..cZ..Z.1cZ..aO.
    5d45:	5aa1 985a b406 635a b111 5ab3 295a 4c0c     Z..Z..cZ..Z.)ZL.
    5d55:	5aa4 435a b422 612c 005a b512 5a4a 035a     Z.CZ."a,.Z..ZJ.Z
    5d65:	c507 5aa5 665a b532 61ea 115a b615 5ab7     ..Z.fZ.2a..Z..Z.
    5d75:	155a b811 635a b009 5a40 105a c00c 5aa0     .Z..cZ..Z@.Z..Z.
    5d85:	665a b026 5a41 a25a a1e6 5ab1 255a 4504     fZ.&ZA.Z..Z.%ZE.
    5d95:	5aa2 8a5a b232 612c 005a b309 5ab3 295a     Z..Z.2a,.Z..Z.)Z
    5da5:	b402 5ab5 125a 4a07 5ac5 095a a5cb 5ab5     ..Z..ZJ.Z..Z..Z.
    5db5:	315a a6cb 5ab6 355a a7cb 5ab7 3561 2c00     1Z..Z.5Z..Z.5a,.
    5dc5:	5aa8 035a b832 611a 035a a1c1 5aa6 e75a     Z..Z.2a..Z..Z..Z
    5dd5:	a7db 5aa8 fc5a b831 635a a19d 5aa7 ea5a     ..Z..Z.1cZ..Z..Z
    5de5:	a8f5 635a a17c 5aa8 ee63 5aa1 5d5a a8e6     ..cZ.|Z..cZ.]Z..
    5df5:	614f 045a b006 5aa1 8a5a b122 635a 400d     aO.Z..Z..Z."cZ@.
    5e05:	5ac0 0a5a a08a 5ab0 265a a15a 5ab3 095a     Z..Z..Z.&Z.ZZ..Z
    5e15:	4c06 5ab4 225a b511 5aa5 8a61 2c00 5ab5     L.Z."Z..Z..a,.Z.
    5e25:	2e61 4603 5aa1 2b63 5aa1 fd5a b121 635a     .aF.Z.+cZ..Z.!cZ
    5e35:	a1d4 6132 0b5a b101 5ab3 295a b402 5a4c     ..a2.Z..Z.)Z..ZL
    5e45:	045a a466 5ab4 265a b50e 5a4a 045a a522     .Z.fZ.&Z..ZJ.Z."
    5e55:	5ab5 3261 560a 5ab0 0661 330b 5ab0 265a     Z.2aV.Z..a3.Z.&Z
    5e65:	b309 5ab5 125a 4a06 5aa5 985a b531 6145     ..Z..ZJ.Z..Z.1aE
    5e75:	035a b406 6156 0a5a b006 5ab6 1561 2d00     .Z..aV.Z..Z..a-.
    5e85:	5ab7 155a b811 6194 075a 400e 5aa0 225a     Z..Z..a..Z@.Z."Z
    5e95:	b026 5aa1 e65a b125 612c 005a b212 5a45     .&Z..Z.%a,.Z..ZE
    5ea5:	065a a243 5ab2 325a b511 5a4a 035a c507     .Z.CZ.2Z..ZJ.Z..
    5eb5:	5aa5 665a b52e 5a50 4d5a a681 5ab6 355a     Z.fZ..ZPMZ..Z.5Z
    5ec5:	5196 5aa7 815a b735 5a52 125a 5503 5aa8     Q.Z..Z.5ZR.ZU.Z.
    5ed5:	b161 2c00 5ab8 3161 1a03 5aa1 c15a b212     .a,.Z.1a..Z..Z..
    5ee5:	5aa6 995a a78e 612c 005a a8ab 6146 035a     Z..Z..a,.Z..aF.Z
    5ef5:	a19d 5aa7 9b5a a8a5 635a a17c 5aa8 9f63     ..Z..Z..cZ.|Z..c
    5f05:	5aa1 5d5a a898 614e 045a a18a 5ab1 2263     Z.]Z..aN.Z..Z."c
    5f15:	5aa1 5a5a b50e 5a4a 075a c509 5aa5 8a5a     Z.ZZ..ZJ.Z..Z..Z
    5f25:	b52e 635a a12b 635a a1fd 5ab1 2163 5aa1     ..cZ.+cZ..Z.!cZ.
    5f35:	d463 5ab0 0661 c107 5ab1 015a 4b06 5ab3     .cZ..a..Z..ZK.Z.
    5f45:	295a 4c06 5ab4 265a b50e 5a4a 035a c507     )ZL.Z.&Z..ZJ.Z..
    5f55:	5aa5 985a b535 61c8 0d5a b406 61c0 075a     Z..Z.5a..Z..a..Z
    5f65:	400d 5ab0 265a 4180 5aa1 665a b132 5ab3     @.Z.&ZA.Z.fZ.2Z.
    5f75:	095a 4c0c 5aa4 435a b422 5ab5 155a 4a06     .ZL.Z.CZ."Z..ZJ.
    5f85:	5ac5 095a a581 5ab5 3563 5aa1 3763 5aa1     Z..Z..Z.5cZ.7cZ.
    5f95:	0a63 5aa1 e05a b131 635a a1bc 614f 045a     .cZ..Z.1cZ..aO.Z
    5fa5:	a198 635a b111 5a41 a25a a1e6 5ab1 255a     ..cZ..ZA.Z..Z.%Z
    5fb5:	a28a 5ab2 325a b402 5ab5 155a a58a 5ab5     ..Z.2Z..Z..Z..Z.
    5fc5:	3261 4603 5aa1 c163 5aa1 9d63 5ab0 065a     2aF.Z..cZ..cZ..Z
    5fd5:	a17c 635a a15d 614e 045a a18a 5ab1 2263     .|cZ.]aN.Z..Z."c
    5fe5:	5aa1 5a5a b329 612c 005a b512 5a4a 075a     Z.ZZ.)a,.Z..ZJ.Z
    5ff5:	a522 5ab5 3261 4603 5aa1 2b63 5aa1 fd5a     ."Z.2aF.Z.+cZ..Z
    6005:	b121 635a a1d4 6133 0b5a 4009 5aa0 985a     .!cZ..a3.Z@.Z..Z
    6015:	b029 5ab1 015a 4180 5aa1 665a b132 612c     .)Z..ZA.Z.fZ.2a,
    6025:	005a b309 5a4c 025a a466 5ab4 265a b512     .Z..ZL.Z.fZ.&Z..
    6035:	5a4a 055a a598 5ab5 3161 4603 5aa1 3763     ZJ.Z..Z.1aF.Z.7c
    6045:	5aa1 0a63 5aa1 e05a b131 635a a1bc 614e     Z..cZ..Z.1cZ..aN
    6055:	045a a198 635a b111 5ab5 115a 4a07 5aa5     .Z..cZ..Z..ZJ.Z.
    6065:	8a5a b532 6363 5ab4 0661 a50e 5a41 a25a     .Z.2ccZ..a..ZA.Z
    6075:	a1e6 5ab1 255a b212 5a45 075a a243 5ab2     ..Z.%Z..ZE.Z.CZ.
    6085:	325a b329 5ab5 125a 4a06 5aa5 815a b531     2Z.)Z..ZJ.Z..Z.1
    6095:	635a a1c1 5ab2 1263 5aa1 9d63 5aa1 7c63     cZ..Z..cZ..cZ.|c
    60a5:	5aa1 5d61 4e04 5aa1 8a5a b122 635a a15a     Z.]aN.Z..Z."cZ.Z
    60b5:	5ab3 095a b511 5a4a 085a c50b 5aa5 cb5a     Z..Z..ZJ.Z..Z..Z
    60c5:	b531 635a a12b 6146 035a a1fd 612c 005a     .1cZ.+aF.Z..a,.Z
    60d5:	b121 6146 035a a1d4 635a b009 61c1 075a     .!aF.Z..cZ..a..Z
    60e5:	400d 5aa0 815a b029 612c 005a b101 5a41     @.Z..Z.)a,.Z..ZA
    60f5:	805a a166 5ab1 325a 4c06 5ab4 265a b511     .Z.fZ.2ZL.Z.&Z..
    6105:	5a4a 065a c509 5aa5 225a b532 6146 035a     ZJ.Z..Z."Z.2aF.Z
    6115:	a137 635a a10a 635a a1e0 5ab1 3161 4e04     .7cZ..cZ..Z.1aN.
    6125:	5aa1 bc63 5aa1 985a b406 635a b111 5ab3     Z..cZ..Z..cZ..Z.
    6135:	295a 4c0a 5aa4 435a b422 612c 005a b512     )ZL.Z.CZ."a,.Z..
    6145:	5a4a 035a c507 5aa5 665a b532 61eb 115a     ZJ.Z..Z.fZ.2a..Z
    6155:	b009 635a 400f 5aa0 665a b026 5a41 a25a     ..cZ@.Z.fZ.&ZA.Z
    6165:	a1e6 5ab1 255a 4506 5aa2 8a5a b232 5ab3     ..Z.%ZE.Z..Z.2Z.
    6175:	0961 2c00 5ab3 295a b402 5ab5 125a 4a07     .a,.Z.)Z..Z..ZJ.
    6185:	5ac5 095a a5cb 5ab5 315a a600 5ab6 005a     Z..Z..Z.1Z..Z..Z
    6195:	a603 5ab6 365a a700 5ab7 005a a703 5ab7     ..Z.6Z..Z..Z..Z.
    61a5:	3661 2c00 5aa8 005a b800 5aa8 435a b832     6a,.Z..Z..Z.CZ.2
    61b5:	611a 035a a1c1 635a a19d 5aa6 245a a715     a..Z..cZ..Z.$Z..
    61c5:	5aa8 3b63 5aa1 7c5a a727 5aa8 3361 4e04     Z.;cZ.|Z.'Z.3aN.
    61d5:	5ab0 065a a15d 5aa8 2b63 5aa1 8a5a b122     Z..Z.]Z.+cZ..Z."
    61e5:	5aa8 2263 5a40 0c5a a08a 5ab0 265a a15a     Z."cZ@.Z..Z.&Z.Z
    61f5:	5ab3 095a 4c06 5ab4 225a b511 5aa5 8a5a     Z..ZL.Z."Z..Z..Z
    6205:	b52e 635a a12b 635a a1fd 5ab1 2163 5aa1     ..cZ.+cZ..Z.!cZ.
    6215:	d461 330b 5ab1 015a b329 5ab4 025a 4c02     .a3.Z..Z.)Z..ZL.
    6225:	5aa4 665a b426 5ab5 0e5a 4a04 5aa5 225a     Z.fZ.&Z..ZJ.Z."Z
    6235:	b532 6156 0a5a b006 6106 0b5a 400d 612c     .2aV.Z..a..Z@.a,
    6245:	005a b026 5ab3 095a b512 5a4a 065a a598     .Z.&Z..Z..ZJ.Z..
    6255:	5ab5 3161 2a0a 5ab4 0661 330b 5ab0 065a     Z.1a*.Z..a3.Z..Z
    6265:	a022 5ab0 2661 2c00 5aa1 e65a b125 5ab2     ."Z.&a,.Z..Z.%Z.
    6275:	125a 4504 5aa2 435a b232 5ab5 115a 4a03     .ZE.Z.CZ.2Z..ZJ.
    6285:	5ac5 075a a566 5ab5 2e5a b616 5aa6 435a     Z..Z.fZ..Z..Z.CZ
    6295:	b636 5ab7 1661 2c00 5aa7 435a b736 5ab8     .6Z..a,.Z.CZ.6Z.
    62a5:	125a a88a 5ab8 3261 1a03 5aa1 c15a b212     .Z..Z.2a..Z..Z..
    62b5:	5aa6 685a a757 612c 005a a881 6146 035a     Z.hZ.Wa,.Z..aF.Z
    62c5:	a19d 5aa7 6b5a a878 635a a17c 5aa8 6f61     ..Z.kZ.xcZ.|Z.oa
    62d5:	4e04 5aa1 5d5a a866 635a a18a 5ab1 2263     N.Z.]Z.fcZ..Z."c
    62e5:	5aa1 5a5a b50e 5a4a 075a c509 5aa5 8a5a     Z.ZZ..ZJ.Z..Z..Z
    62f5:	b52e 635a a12b 635a a1fd 5ab1 2163 5aa1     ..cZ.+cZ..Z.!cZ.
    6305:	d461 c107 5ab0 0663 5ab1 015a b329 5a4c     .a..Z..cZ..Z.)ZL
    6315:	075a b426 5ab5 0e5a 4a03 5ac5 075a a598     .Z.&Z..ZJ.Z..Z..
    6325:	5ab5 3561 1612 5ab4 0663 5a40 115a c00c     Z.5a..Z..cZ@.Z..
    6335:	5ab0 265a 4180 5aa1 665a b132 5ab3 095a     Z.&ZA.Z.fZ.2Z..Z
    6345:	4c0a 5aa4 435a b422 5ab5 155a 4a06 5ac5     L.Z.CZ."Z..ZJ.Z.
    6355:	095a a581 5ab5 3563 5aa1 3763 5aa1 0a63     .Z..Z.5cZ.7cZ..c
    6365:	5aa1 e05a b131 614f 045a a1bc 635a a198     Z..Z.1aO.Z..cZ..
    6375:	635a b111 5a41 a25a a1e6 5ab1 255a 4507     cZ..ZA.Z..Z.%ZE.
    6385:	5aa2 8a5a b232 5ab4 025a b515 5aa5 8a5a     Z..Z.2Z..Z..Z..Z
    6395:	b532 6146 035a a1c1 635a a19d 635a b006     .2aF.Z..cZ..cZ..
    63a5:	5aa1 7c61 4e04 5aa1 5d63 5aa1 8a5a b122     Z.|aN.Z.]cZ..Z."
    63b5:	635a a15a 5ab3 2961 2c00 5ab5 125a 4a07     cZ.ZZ.)a,.Z..ZJ.
    63c5:	5aa5 225a b532 6146 035a a12b 635a a1fd     Z."Z.2aF.Z.+cZ..
    63d5:	5ab1 2163 5aa1 d461 330b 5a40 075a c008     Z.!cZ..a3.Z@.Z..
    63e5:	5aa0 985a b029 5ab1 015a 4180 5aa1 665a     Z..Z.)Z..ZA.Z.fZ
    63f5:	b132 612c 005a b309 5a4c 045a a466 5ab4     .2a,.Z..ZL.Z.fZ.
    6405:	265a b512 5a4a 055a a598 5ab5 315a b616     &Z..ZJ.Z..Z.1Z..
    6415:	5aa6 035a b636 5ab7 165a a703 5ab7 3661     Z..Z.6Z..Z..Z.6a
    6425:	2c00 5ab8 125a a843 5ab8 3261 1a03 5aa1     ,.Z..Z.CZ.2a..Z.
    6435:	375a a624 5aa7 155a a83b 635a a10a 5aa7     7Z.$Z..Z.;cZ..Z.
    6445:	275a a833 635a a1e0 5ab1 315a a82b 614e     'Z.3cZ..Z.1Z.+aN
    6455:	045a a1bc 5aa8 2263 5aa1 9863 5ab1 115a     .Z..Z."cZ..cZ..Z
    6465:	b511 5a4a 075a a58a 5ab5 3261 a50e 5ab4     ..ZJ.Z..Z.2a..Z.
    6475:	0663 635a 41a2 5aa1 e65a b125 5ab2 125a     .ccZA.Z..Z.%Z..Z
    6485:	4506 5aa2 435a b232 5ab3 295a b512 5a4a     E.Z.CZ.2Z.)Z..ZJ
    6495:	065a a581 5ab5 3163 5aa1 c15a b212 635a     .Z..Z.1cZ..Z..cZ
    64a5:	a19d 635a a17c 614e 045a b009 5aa1 5d63     ..cZ.|aN.Z..Z.]c
    64b5:	5aa1 8a5a b122 635a 400a 5ac0 0a5a a081     Z..Z."cZ@.Z..Z..
    64c5:	5ab0 295a a15a 5ab3 095a 4c02 5ab4 265a     Z.)Z.ZZ..ZL.Z.&Z
    64d5:	b511 5a4a 085a c50b 5aa5 cb5a b531 635a     ..ZJ.Z..Z..Z.1cZ
    64e5:	a12b 6146 035a a1fd 612c 005a b121 6146     .+aF.Z..a,.Z.!aF
    64f5:	035a a1d4 61c0 075a b406 635a b101 5a41     .Z..a..Z..cZ..ZA
    6505:	8061 2d00 5aa1 665a b132 5ab5 115a 4a06     .a-.Z.fZ.2Z..ZJ.
    6515:	5ac5 095a a522 5ab5 3261 4503 5aa1 3763     Z..Z."Z.2aE.Z.7c
    6525:	5aa1 0a63 5ab0 095a a1e0 5ab1 3161 4f04     Z..cZ..Z..Z.1aO.
    6535:	5aa1 bc63 5aa1 9863 5ab1 115a a166 5ab1     Z..cZ..cZ..Z.fZ.
    6545:	325a b329 612c 005a 4c07 5ab4 265a b512     2Z.)a,.ZL.Z.&Z..
    6555:	5a4a 035a c507 5aa5 665a b532 6146 035a     ZJ.Z..Z.fZ.2aF.Z
    6565:	a137 635a a10a 635a a1e0 5ab1 3161 4e04     .7cZ..cZ..Z.1aN.
    6575:	5aa1 bc63 5aa1 985a b406 635a b111 5a41     Z..cZ..Z..cZ..ZA
    6585:	a25a a1e6 5ab1 255a a28a 5ab2 325a b309     .Z..Z.%Z..Z.2Z..
    6595:	5ab3 2961 2d00 5a4c 065a a443 5ab4 225a     Z.)a-.ZL.Z.CZ."Z
    65a5:	b512 5a4a 075a c509 5aa5 cb5a b531 6145     ..ZJ.Z..Z..Z.1aE
    65b5:	035a a1c1 635a a19d 635a a17c 614f 045a     .Z..cZ..cZ.|aO.Z
    65c5:	a15d 635a a18a 5ab1 2263 5aa1 5a5a b309     .]cZ..Z."cZ.ZZ..
    65d5:	5ab4 025a b511 5aa5 8a5a b52e 635a a12b     Z..Z..Z..Z..cZ.+
    65e5:	635a a1fd 5ab1 2163 5aa1 d461 320b 5ab1     cZ..Z.!cZ..a2.Z.
    65f5:	015a 4c04 5aa4 665a b426 5ab5 0e5a 4a04     .ZL.Z.fZ.&Z..ZJ.
    6605:	5aa5 225a b532 6189 155a b329 5ab5 125a     Z."Z.2a..Z.)Z..Z
    6615:	4a06 5aa5 985a b531 6178 0e5a b406 5ab6     J.Z..Z.1ax.Z..Z.
    6625:	1661 2c00 5ab7 165a b812 61b8 065a 400e     .a,.Z..Z..a..Z@.
    6635:	5aa0 225a b026 5aa1 e661 2c00 5ab1 255a     Z."Z.&Z..a,.Z.%Z
    6645:	b212 5a45 025a a243 5ab2 325a b309 5ab5     ..ZE.Z.CZ.2Z..Z.
    6655:	115a 4a03 5ac5 075a a566 5ab5 2e5a a681     .ZJ.Z..Z.fZ..Z..
    6665:	5ab6 355a a781 5ab7 3561 2d00 5aa8 b15a     Z.5Z..Z.5a-.Z..Z
    6675:	b831 6119 035a a1c1 5ab2 125a a699 612c     .1a..Z..Z..Z..a,
    6685:	005a a78e 5aa8 ab61 4603 5aa1 9d5a a79b     .Z..Z..aF.Z..Z..
    6695:	5aa8 a561 4f04 5aa1 7c5a a89f 635a a15d     Z..aO.Z.|Z..cZ.]
    66a5:	5aa8 9863 5aa1 8a5a b122 635a a15a 5ab5     Z..cZ..Z."cZ.ZZ.
    66b5:	0e5a 4a07 5ac5 095a a58a 5ab5 2e63 5aa1     .ZJ.Z..Z..Z..cZ.
    66c5:	2b63 5aa1 fd5a b121 614e 045a a1d4 635a     +cZ..Z.!aN.Z..cZ
    66d5:	b006 6363 5ab1 015a 4b05 5ab3 295a b426     ..ccZ..ZK.Z.)Z.&
    66e5:	5ab5 0e5a 4a03 5ac5 075a a598 5ab5 3561     Z..ZJ.Z..Z..Z.5a
    66f5:	1712 5ab4 0663 5a40 0f5a b026 5a41 805a     ..Z..cZ@.Z.&ZA.Z
    6705:	a166 5ab1 325a b309 5a4c 0e5a a443 5ab4     .fZ.2Z..ZL.Z.CZ.
    6715:	225a b515 5a4a 065a c509 5aa5 815a b535     "Z..ZJ.Z..Z..Z.5
    6725:	635a a137 635a a10a 614e 045a a1e0 5ab1     cZ.7cZ..aN.Z..Z.
    6735:	3163 5aa1 bc63 5aa1 9863 5ab1 115a 41a2     1cZ..cZ..cZ..ZA.
    6745:	5aa1 e65a b125 5a45 065a a28a 5ab2 325a     Z..Z.%ZE.Z..Z.2Z
    6755:	b515 5aa5 8a5a b532 6146 035a a1c1 612c     ..Z..Z.2aF.Z..a,
    6765:	005a b402 6146 035a b006 612c 005a a19d     .Z..aF.Z..a,.Z..
    6775:	6123 045a a17c 635a a15d 635a a18a 5ab1     a#.Z.|cZ.]cZ..Z.
    6785:	2263 5aa1 5a5a b329 612c 005a b512 5a4a     "cZ.ZZ.)a,.Z..ZJ
    6795:	075a a522 5ab5 3261 4603 5aa1 2b63 5aa1     .Z."Z.2aF.Z.+cZ.
    67a5:	fd5a b121 614e 045a a1d4 6156 0a5a 400a     .Z.!aN.Z..aV.Z@.
    67b5:	5aa0 985a b029 5ab1 015a 4180 5aa1 665a     Z..Z.)Z..ZA.Z.fZ
    67c5:	b132 612c 005a b309 5a4c 045a a466 5ab4     .2a,.Z..ZL.Z.fZ.
    67d5:	265a b512 5a4a 055a a598 5ab5 3161 4603     &Z..ZJ.Z..Z.1aF.
    67e5:	5aa1 3763 5aa1 0a61 4f04 5aa1 e05a b131     Z.7cZ..aO.Z..Z.1
    67f5:	635a a1bc 635a a198 635a b111 5ab5 115a     cZ..cZ..cZ..Z..Z
    6805:	4a07 5aa5 8a5a b532 6132 0b5a b406 6156     J.Z..Z.2a2.Z..aV
    6815:	0a5a 41a2 5aa1 e65a b125 5ab2 125a a243     .ZA.Z..Z.%Z..Z.C
    6825:	5ab2 325a b329 5ab5 125a 4a06 5aa5 815a     Z.2Z.)Z..ZJ.Z..Z
    6835:	b531 635a a1c1 5ab2 1263 5aa1 9d61 4f04     .1cZ..Z..cZ..aO.
    6845:	5aa1 7c63 5aa1 5d63 5aa1 8a5a b122 635a     Z.|cZ.]cZ..Z."cZ
    6855:	a15a 5ab3 095a b511 5a4a 085a c50b 5aa5     .ZZ..Z..ZJ.Z..Z.
    6865:	cb5a b531 635a a12b 635a a1fd 5ab1 2161     .Z.1cZ.+cZ..Z.!a
    6875:	4e04 5ab0 095a a1d4 612a 0a5a 400e 5aa0     N.Z..Z..a*.Z@.Z.
    6885:	8161 2c00 5ab0 295a b101 5a41 805a a166     .a,.Z.)Z..ZA.Z.f
    6895:	5ab1 325a b426 5ab5 115a 4a06 5ac5 095a     Z.2Z.&Z..ZJ.Z..Z
    68a5:	a522 5ab5 3261 4603 5aa1 3763 5aa1 0a61     ."Z.2aF.Z.7cZ..a
    68b5:	4f04 5aa1 e05a b131 635a a1bc 635a a198     O.Z..Z.1cZ..cZ..
    68c5:	5ab4 0663 5ab1 115a b329 5a4c 0e5a a443     Z..cZ..Z.)ZL.Z.C
    68d5:	612c 005a b422 5ab5 125a 4a03 5ac5 075a     a,.Z."Z..ZJ.Z..Z
    68e5:	a566 5ab5 3261 780e 5ab0 0963 635a 4012     .fZ.2ax.Z..ccZ@.
    68f5:	5ac0 0c5a a066 5ab0 265a 41a2 5aa1 e65a     Z..Z.fZ.&ZA.Z..Z
    6905:	b125 5aa2 8a5a b232 612c 005a b309 5ab3     .%Z..Z.2a,.Z..Z.
    6915:	295a b512 5a4a 075a c509 5aa5 cb5a b531     )Z..ZJ.Z..Z..Z.1
    6925:	5a50 495a a600 5ab6 005a a657 5ab6 355a     ZPIZ..Z..Z.WZ.5Z
    6935:	5192 5aa7 005a b700 5aa7 575a b735 5a52     Q.Z..Z..Z.WZ.5ZR
    6945:	105a 5501 612c 005a a800 5ab8 005a a881     .ZU.a,.Z..Z..Z..
    6955:	5ab8 3161 1a03 5aa1 c15a b402 635a a19d     Z.1a..Z..Z..cZ..
    6965:	5aa6 6d5a a763 5aa8 7c61 4f04 5aa1 7c5a     Z.mZ.cZ.|aO.Z.|Z
    6975:	a76f 5aa8 7763 5ab0 065a a15d 5aa8 7263     .oZ.wcZ..Z.]Z.rc
    6985:	5aa1 8a5a b122 5aa8 6c63 5a40 0e5a c00a     Z..Z."Z.lcZ@.Z..
    6995:	5aa0 8a5a b026 5aa1 5a5a b309 5a4c 065a     Z..Z.&Z.ZZ..ZL.Z
    69a5:	b422 5ab5 1161 2c00 5aa5 8a5a b52e 6146     ."Z..a,.Z..Z..aF
    69b5:	035a a12b 635a a1fd 5ab1 2161 4e04 5aa1     .Z.+cZ..Z.!aN.Z.
    69c5:	d461 560a 5ab1 015a b329 5ab4 025a 4c04     .aV.Z..Z.)Z..ZL.
    69d5:	5aa4 665a b426 5ab5 0e5a 4a04 5aa5 225a     Z.fZ.&Z..ZJ.Z."Z
    69e5:	b532 6133 0b5a b006 6156 0a5a b026 5ab3     .2a3.Z..aV.Z.&Z.
    69f5:	095a b512 5a4a 065a a598 5ab5 3161 b806     .Z..ZJ.Z..Z.1a..
    6a05:	5ab4 0661 c007 5ab0 0663 635a 4013 5ac0     Z..a..Z..ccZ@.Z.
    6a15:	0c5a a022 5ab0 265a a1e6 612c 005a b125     .Z."Z.&Z..a,.Z.%
    6a25:	5ab2 125a a243 5ab2 325a b511 5a4a 035a     Z..Z.CZ.2Z..ZJ.Z
    6a35:	c507 5aa5 665a b52e 5ab6 155a 504d 5aa6     ..Z.fZ..Z..ZPMZ.
    6a45:	815a b635 5ab7 155a 5196 5aa7 8161 2c00     .Z.5Z..ZQ.Z..a,.
    6a55:	5ab7 355a b811 5a52 125a 5503 5aa8 b15a     Z.5Z..ZR.ZU.Z..Z
    6a65:	b831 611a 035a a1c1 5ab2 125a a699 5aa7     .1a..Z..Z..Z..Z.
    6a75:	8e61 2c00 5aa8 ab61 4603 5aa1 9d5a a79b     .a,.Z..aF.Z..Z..
    6a85:	5aa8 a561 4f04 5aa1 7c5a a89f 635a a15d     Z..aO.Z.|Z..cZ.]
    6a95:	5aa8 9863 5aa1 8a5a b122 635a a15a 5ab5     Z..cZ..Z."cZ.ZZ.
    6aa5:	0e5a 4a07 5ac5 095a a58a 5ab5 2e63 5aa1     .ZJ.Z..Z..Z..cZ.
    6ab5:	2b63 5aa1 fd5a b121 614e 045a a1d4 6156     +cZ..Z.!aN.Z..aV
    6ac5:	0a5a b006 5ab1 015a b329 5a4c 065a b426     .Z..Z..Z.)ZL.Z.&
    6ad5:	5ab5 0e5a 4a03 5ac5 0761 2c00 5aa5 985a     Z..ZJ.Z..a,.Z..Z
    6ae5:	b535 61eb 115a b406 635a 4011 5ab0 265a     .5a..Z..cZ@.Z.&Z
    6af5:	4180 5aa1 665a b132 5ab3 095a 4c0c 5aa4     A.Z.fZ.2Z..ZL.Z.
    6b05:	435a b422 5ab5 155a 4a06 5ac5 095a a581     CZ."Z..ZJ.Z..Z..
    6b15:	5ab5 3563 5aa1 3763 5aa1 0a61 4e04 5aa1     Z.5cZ.7cZ..aN.Z.
    6b25:	e05a b131 635a a1bc 635a a198 635a b111     .Z.1cZ..cZ..cZ..
    6b35:	5a41 a25a a1e6 5ab1 255a 4507 5aa2 8a5a     ZA.Z..Z.%ZE.Z..Z
    6b45:	b232 5ab5 155a a58a 5ab5 3261 4603 5aa1     .2Z..Z..Z.2aF.Z.
    6b55:	c161 2c00 5ab4 0261 4603 5aa1 9d61 4e04     .a,.Z..aF.Z..aN.
    6b65:	5aa1 7c63 5ab0 065a a15d 635a a18a 5ab1     Z.|cZ..Z.]cZ..Z.
    6b75:	2263 5aa1 5a5a b329 612d 005a b512 5a4a     "cZ.ZZ.)a-.Z..ZJ
    6b85:	075a a522 5ab5 3261 4503 5aa1 2b61 4f04     .Z."Z.2aE.Z.+aO.
    6b95:	5aa1 fd5a b121 635a a1d4 6156 0a5a 400c     Z..Z.!cZ..aV.Z@.
    6ba5:	5ac0 0a5a a098 5ab0 295a b101 5a41 805a     Z..Z..Z.)Z..ZA.Z
    6bb5:	a166 5ab1 3261 2c00 5ab3 095a 4c02 5aa4     .fZ.2a,.Z..ZL.Z.
    6bc5:	665a b426 5ab5 125a 4a05 5aa5 985a b531     fZ.&Z..ZJ.Z..Z.1
    6bd5:	6146 035a a137 614e 045a a10a 635a a1e0     aF.Z.7aN.Z..cZ..
    6be5:	5ab1 3163 5aa1 bc63 5aa1 9863 5ab1 115a     Z.1cZ..cZ..cZ..Z
    6bf5:	b511 5a4a 075a a58a 5ab5 3261 c107 5ab4     ..ZJ.Z..Z.2a..Z.
    6c05:	0661 c80d 5a41 a25a a1e6 5ab1 255a b212     .a..ZA.Z..Z.%Z..
    6c15:	5a45 045a a243 5ab2 325a b329 5ab5 125a     ZE.Z.CZ.2Z.)Z..Z
    6c25:	4a06 5aa5 815a b531 635a a1c1 5ab2 1261     J.Z..Z.1cZ..Z..a
    6c35:	4e04 5aa1 9d63 5aa1 7c63 5aa1 5d63 5aa1     N.Z..cZ.|cZ.]cZ.
    6c45:	8a5a b122 635a a15a 5ab3 095a b511 5a4a     .Z."cZ.ZZ..Z..ZJ
    6c55:	085a c50b 5aa5 cb5a b531 635a a12b 614f     .Z..Z..Z.1cZ.+aO
    6c65:	045a a1fd 5ab1 2161 4603 5aa1 d463 5ab0     .Z..Z.!aF.Z..cZ.
    6c75:	0963 635a a081 612c 005a b029 5ab1 015a     .ccZ..a,.Z.)Z..Z
    6c85:	4180 5aa1 665a b132 5a4c 065a b426 5ab5     A.Z.fZ.2ZL.Z.&Z.
    6c95:	115a 4a06 5ac5 095a a522 5ab5 3261 4603     .ZJ.Z..Z."Z.2aF.
    6ca5:	5aa1 3761 4e04 5aa1 0a63 5aa1 e05a b131     Z.7aN.Z..cZ..Z.1
    6cb5:	635a a1bc 635a a198 5ab4 0663 5ab1 115a     cZ..cZ..Z..cZ..Z
    6cc5:	b329 5a4c 095a a443 612c 005a b422 5ab5     .)ZL.Z.Ca,.Z."Z.
    6cd5:	125a 4a03 5ac5 075a a566 5ab5 3261 5d15     .ZJ.Z..Z.fZ.2a].
    6ce5:	5ab0 095a 4010 5ac0 0c5a a066 5ab0 265a     Z..Z@.Z..Z.fZ.&Z
    6cf5:	41a2 5aa1 e65a b125 5a45 065a a28a 612c     A.Z..Z.%ZE.Z..a,
    6d05:	005a b232 5ab3 095a b329 5ab5 125a 4a07     .Z.2Z..Z.)Z..ZJ.
    6d15:	5ac5 095a a5cb 5ab5 315a 504b 5aa6 005a     Z..Z..Z.1ZPKZ..Z
    6d25:	b600 5aa6 cb5a b635 5a51 945a a700 5ab7     ..Z..Z.5ZQ.Z..Z.
    6d35:	005a a7cb 5ab7 3561 2c00 5a52 115a 5502     .Z..Z.5a,.ZR.ZU.
    6d45:	5aa8 005a b800 5aa8 035a b832 611a 035a     Z..Z..Z..Z.2a..Z
    6d55:	a1c1 5ab4 0261 4e04 5aa1 9d5a a6e7 5aa7     ..Z..aN.Z..Z..Z.
    6d65:	db5a a8fc 5ab8 3163 5aa1 7c5a a7ea 5aa8     .Z..Z.1cZ.|Z..Z.
    6d75:	f563 5aa1 5d5a a8ee 635a b006 5aa1 8a5a     .cZ.]Z..cZ..Z..Z
    6d85:	b122 5aa8 e663 5a40 0d5a c00a 5aa0 8a5a     ."Z..cZ@.Z..Z..Z
    6d95:	b026 5aa1 5a5a b309 5a4c 065a b422 5ab5     .&Z.ZZ..ZL.Z."Z.
    6da5:	1161 2c00 5aa5 8a5a b52e 6146 035a a12b     .a,.Z..Z..aF.Z.+
    6db5:	614f 045a a1fd 5ab1 2163 5aa1 d461 560a     aO.Z..Z.!cZ..aV.
    6dc5:	5ab1 015a b329 5ab4 025a 4c04 5aa4 665a     Z..Z.)Z..ZL.Z.fZ
    6dd5:	b426 5ab5 0e5a 4a04 5aa5 225a b532 6132     .&Z..ZJ.Z."Z.2a2
    6de5:	0b5a b006 6156 0a5a b026 5ab3 095a b512     .Z..aV.Z.&Z..Z..
    6df5:	5a4a 065a a598 5ab5 3161 9507 5ab4 0663     ZJ.Z..Z.1a..Z..c
    6e05:	635a b006 635a b615 5ab7 1561 2c00 5ab8     cZ..cZ..Z..a,.Z.
    6e15:	1161 4603 5a40 0e5a a022 5ab0 2661 2c00     .aF.Z@.Z."Z.&a,.
    6e25:	5aa1 e65a b125 5ab2 125a a243 5ab2 325a     Z..Z.%Z..Z.CZ.2Z
    6e35:	b511 5a4a 035a c507 5aa5 665a b52e 5a50     ..ZJ.Z..Z.fZ..ZP
    6e45:	4e5a a681 5ab6 355a 5197 5aa7 815a b735     NZ..Z.5ZQ.Z..Z.5
    6e55:	5a52 1261 2c00 5a55 035a a8b1 5ab8 3161     ZR.a,.ZU.Z..Z.1a
    6e65:	1a03 5aa1 c15a b212 5aa6 9961 2c00 5aa7     ..Z..Z..Z..a,.Z.
    6e75:	8e5a a8ab 6122 045a a19d 5aa7 9b5a a8a5     .Z..a".Z..Z..Z..
    6e85:	635a a17c 5aa8 9f63 5aa1 5d5a a898 635a     cZ.|Z..cZ.]Z..cZ
    6e95:	a18a 5ab1 2263 5aa1 5a5a b50e 5a4a 075a     ..Z."cZ.ZZ..ZJ.Z
    6ea5:	c509 5aa5 8a5a b52e 635a a12b 614f 045a     ..Z..Z..cZ.+aO.Z
    6eb5:	a1fd 5ab1 2163 5aa1 d463 5ab0 0663 635a     ..Z.!cZ..cZ..ccZ
    6ec5:	b101 5a4b 065a b329 5a4c 065a b426 5ab5     ..ZK.Z.)ZL.Z.&Z.
    6ed5:	0e5a 4a03 5ac5 075a a598 5ab5 3561 1612     .ZJ.Z..Z..Z.5a..
    6ee5:	5ab4 0663 5a40 0d5a b026 5a41 805a a166     Z..cZ@.Z.&ZA.Z.f
    6ef5:	5ab1 325a b309 5a4c 0c5a a443 5ab4 225a     Z.2Z..ZL.Z.CZ."Z
    6f05:	b515 5a4a 065a c509 5aa5 815a b535 635a     ..ZJ.Z..Z..Z.5cZ
    6f15:	a137 614f 045a a10a 635a a1e0 5ab1 3163     .7aO.Z..cZ..Z.1c
    6f25:	5aa1 bc63 5aa1 9863 5ab1 115a 41a2 5aa1     Z..cZ..cZ..ZA.Z.
    6f35:	e65a b125 5aa2 8a5a b232 5ab4 025a b515     .Z.%Z..Z.2Z..Z..
    6f45:	5aa5 8a5a b532 635a a1c1 6122 045a a19d     Z..Z.2cZ..a".Z..
    6f55:	635a b006 612c 005a a17c 6146 035a a15d     cZ..a,.Z.|aF.Z.]
    6f65:	635a a18a 5ab1 2263 5aa1 5a61 2c00 5ab3     cZ..Z."cZ.Za,.Z.
    6f75:	295a b512 5a4a 075a a522 5ab5 3261 4603     )Z..ZJ.Z."Z.2aF.
    6f85:	5aa1 2b61 4f04 5aa1 fd5a b121 635a a1d4     Z.+aO.Z..Z.!cZ..
    6f95:	6363 5ab6 155a b715 5ab8 1163 5a40 095a     ccZ..Z..Z..cZ@.Z
    6fa5:	a098 5ab0 295a b101 5a41 805a a166 612c     ..Z.)Z..ZA.Z.fa,
    6fb5:	005a b132 5ab3 095a 4c02 5aa4 665a b426     .Z.2Z..ZL.Z.fZ.&
    6fc5:	5ab5 125a 4a05 5aa5 985a b531 5a50 4d5a     Z..ZJ.Z..Z.1ZPMZ
    6fd5:	a66c 5ab6 355a 5196 5aa7 6c5a b735 612c     .lZ.5ZQ.Z.lZ.5a,
    6fe5:	005a b831 611a 035a a137 5aa6 825a a778     .Z.1a..Z.7Z..Z.x
    6ff5:	5aa8 9361 4e04 5aa1 0a5a a784 5aa8 8d63     Z..aN.Z..Z..Z..c
    7005:	5aa1 e05a b131 5aa8 8763 5aa1 bc5a a881     Z..Z.1Z..cZ..Z..
    7015:	635a a198 635a b111 5ab5 115a 4a07 5aa5     cZ..cZ..Z..ZJ.Z.
    7025:	8a5a b532 61c1 075a b406 61c8 0d5a 41a2     .Z.2a..Z..a..ZA.
    7035:	5aa1 e65a b125 5ab2 125a a243 5ab2 325a     Z..Z.%Z..Z.CZ.2Z
    7045:	b329 5ab5 125a 4a06 5aa5 8161 2c00 5ab5     .)Z..ZJ.Z..a,.Z.
    7055:	3161 4603 5aa1 c15a b212 614e 045a a19d     1aF.Z..Z..aN.Z..
    7065:	635a a17c 635a a15d 635a a18a 5ab1 2263     cZ.|cZ.]cZ..Z."c
    7075:	5aa1 5a5a b309 5ab5 115a 4a08 5ac5 0b5a     Z.ZZ..Z..ZJ.Z..Z
    7085:	a5cb 5ab5 3163 5aa1 2b61 4f04 5aa1 fd5a     ..Z.1cZ.+aO.Z..Z
    7095:	b121 635a a1d4 6146 035a b009 6363 5a40     .!cZ..aF.Z..ccZ@
    70a5:	0d61 2c00 5aa0 815a b029 5ab1 015a 4180     .a,.Z..Z.)Z..ZA.
    70b5:	5aa1 665a b132 5a4c 075a b426 5ab5 115a     Z.fZ.2ZL.Z.&Z..Z
    70c5:	4a06 5ac5 095a a522 5ab5 3261 4603 5aa1     J.Z..Z."Z.2aF.Z.
    70d5:	3761 4e04 5aa1 0a63 5aa1 e05a b131 635a     7aN.Z..cZ..Z.1cZ
    70e5:	a1bc 635a a198 5ab4 0663 5ab1 115a b329     ..cZ..Z..cZ..Z.)
    70f5:	5a4c 0e61 2c00 5aa4 435a b422 5ab5 125a     ZL.a,.Z.CZ."Z..Z
    7105:	4a03 5ac5 075a a566 5ab5 3261 070b 5ab6     J.Z..Z.fZ.2a..Z.
    7115:	155a b715 5ab8 1163 635a b009 635a 400f     .Z..Z..ccZ..cZ@.
    7125:	5aa0 665a b026 5a41 a25a a1e6 5ab1 255a     Z.fZ.&ZA.Z..Z.%Z
    7135:	4509 5aa2 8a5a b232 612c 005a b309 5ab3     E.Z..Z.2a,.Z..Z.
    7145:	295a b402 5ab5 125a 4a07 5ac5 095a a5cb     )Z..Z..ZJ.Z..Z..
    7155:	5ab5 315a 5049 5aa6 665a b632 5a51 925a     Z.1ZPIZ.fZ.2ZQ.Z
    7165:	a766 5ab7 325a 5210 612c 005a 5501 5aa8     .fZ.2ZR.a,.ZU.Z.
    7175:	575a b831 61f6 035a a1c1 5aa6 8c5a a77b     WZ.1a..Z..Z..Z.{
    7185:	5aa8 5363 5aa1 9d5a a78f 5aa8 4e63 5aa1     Z.ScZ..Z..Z.NcZ.
    7195:	7c5a a849 635a b006 5aa1 5d5a a88a 5ab8     |Z.IcZ..Z.]Z..Z.
    71a5:	2e63 5aa1 8a5a b122 635a 400c 5aa0 8a5a     .cZ..Z."cZ@.Z..Z
    71b5:	b026 5aa1 5a5a b309 5a4c 065a a466 5ab4     .&Z.ZZ..ZL.Z.fZ.
    71c5:	265a b511 612c 005a a58a 5ab5 2e61 2304     &Z..a,.Z..Z..a#.
    71d5:	5aa1 2b63 5aa1 fd5a b121 635a a1d4 5ab4     Z.+cZ..Z.!cZ..Z.
    71e5:	0661 560a 5ab1 015a b329 5a4c 0d5a a443     .aV.Z..Z.)ZL.Z.C
    71f5:	5ab4 225a b50e 5a4a 045a a522 5ab5 3261     Z."Z..ZJ.Z."Z.2a
    7205:	320b 5ab0 0663 5ab4 0261 b806 5a40 0d61     2.Z..cZ..a..Z@.a
    7215:	2c00 5ab0 265a b309 5a4c 075a a466 5ab4     ,.Z.&Z..ZL.Z.fZ.
    7225:	265a b512 5a4a 065a a598 5ab5 3161 060b     &Z..ZJ.Z..Z.1a..
    7235:	5ab4 0663 635a b612 5ab7 1261 2d00 5ab8     Z..ccZ..Z..a-.Z.
    7245:	0e61 4503 5ab0 065a a022 612d 005a b026     .aE.Z..Z."a-.Z.&
    7255:	5aa1 e65a b125 5ab2 125a 4506 5aa2 435a     Z..Z.%Z..ZE.Z.CZ
    7265:	b232 5ab5 115a 4a03 5ac5 075a a566 5ab5     .2Z..ZJ.Z..Z.fZ.
    7275:	2e5a a603 5ab6 325a a703 612c 005a b732     .Z..Z.2Z..a,.Z.2
    7285:	5aa8 435a b82e 61f6 035a a1c1 5ab2 125a     Z.CZ..a..Z..Z..Z
    7295:	a624 612c 005a a715 5aa8 3b61 4603 5aa1     .$a,.Z..Z.;aF.Z.
    72a5:	9d5a a727 5aa8 3363 5aa1 7c5a a82b 635a     .Z.'Z.3cZ.|Z.+cZ
    72b5:	a15d 5aa8 2263 5aa1 8a5a b122 635a a15a     .]Z."cZ..Z."cZ.Z
    72c5:	5ab5 0e5a 4a07 5ac5 095a a58a 5ab5 2e61     Z..ZJ.Z..Z..Z..a
    72d5:	4e04 5aa1 2b63 5aa1 fd5a b121 635a a1d4     N.Z.+cZ..Z.!cZ..
    72e5:	6363 5ab0 0663 5ab1 015a b329 5a4c 065a     ccZ..cZ..Z.)ZL.Z
    72f5:	b426 5ab5 0e5a 4a03 5ac5 075a a598 612d     .&Z..ZJ.Z..Z..a-
    7305:	005a b535 6178 0e5a b406 6363 5a40 115a     .Z.5ax.Z..ccZ@.Z
    7315:	c00c 5ab0 265a 4180 5aa1 665a b132 5ab3     ..Z.&ZA.Z.fZ.2Z.
    7325:	095a 4c0d 5aa4 435a b422 5ab5 155a 4a06     .ZL.Z.CZ."Z..ZJ.
    7335:	5ac5 095a a581 5ab5 3561 4e04 5aa1 3763     Z..Z..Z.5aN.Z.7c
    7345:	5aa1 0a63 5aa1 e05a b131 635a a1bc 635a     Z..cZ..Z.1cZ..cZ
    7355:	a198 635a b111 5a41 a25a a1e6 5ab1 255a     ..cZ..ZA.Z..Z.%Z
    7365:	a28a 5ab2 325a b515 5aa5 8a5a b532 614f     ..Z.2Z..Z..Z.2aO
    7375:	045a a1c1 5ab4 0261 4603 5aa1 9d63 5ab0     .Z..Z..aF.Z..cZ.
    7385:	0661 2c00 5aa1 7c61 4603 5aa1 5d63 5aa1     .a,.Z.|aF.Z.]cZ.
    7395:	8a5a b122 635a a15a 612c 005a b329 5ab5     .Z."cZ.Za,.Z.)Z.
    73a5:	125a 4a07 5aa5 225a b532 6122 045a a12b     .ZJ.Z."Z.2a".Z.+
    73b5:	635a a1fd 5ab1 2163 5aa1 d461 560a 5a40     cZ..Z.!cZ..aV.Z@
    73c5:	075a c008 5aa0 985a b029 5ab1 015a 4180     .Z..Z..Z.)Z..ZA.
    73d5:	5aa1 6661 2c00 5ab1 325a b309 5a4c 025a     Z.fa,.Z.2Z..ZL.Z
    73e5:	a466 5ab4 265a b512 5a4a 055a a598 5ab5     .fZ.&Z..ZJ.Z..Z.
    73f5:	3161 2304 5aa1 3763 5aa1 0a63 5aa1 e05a     1a#.Z.7cZ..cZ..Z
    7405:	b131 635a a1bc 635a a198 635a b111 5ab5     .1cZ..cZ..cZ..Z.
    7415:	115a 4a07 5aa5 8a5a b532 614e 045a b406     .ZJ.Z..Z.2aN.Z..
    7425:	613a 115a 41a2 5aa1 e65a b125 5ab2 125a     a:.ZA.Z..Z.%Z..Z
    7435:	450a 5aa2 435a b232 5ab3 295a b512 5a4a     E.Z.CZ.2Z.)Z..ZJ
    7445:	065a a581 612c 005a b531 6123 045a a1c1     .Z..a,.Z.1a#.Z..
    7455:	5ab2 1263 5aa1 9d63 5aa1 7c63 5ab0 095a     Z..cZ..cZ.|cZ..Z
    7465:	a15d 635a a18a 5ab1 2263 5a40 0a5a c00a     .]cZ..Z."cZ@.Z..
    7475:	5aa0 815a b029 5aa1 5a5a b309 5ab4 265a     Z..Z.)Z.ZZ..Z.&Z
    7485:	b511 5a4a 085a c50b 5aa5 cb5a b531 614e     ..ZJ.Z..Z..Z.1aN
    7495:	045a a12b 635a a1fd 5ab1 2163 5aa1 d45a     .Z.+cZ..Z.!cZ..Z
    74a5:	b406 612a 0a5a b101 612c 005a 4180 5aa1     ..a*.Z..a,.ZA.Z.
    74b5:	665a b132 5ab5 115a 4a06 5ac5 095a a522     fZ.2Z..ZJ.Z..Z."
    74c5:	5ab5 3261 2304 5aa1 3763 5aa1 0a63 5ab0     Z.2a#.Z.7cZ..cZ.
    74d5:	095a a1e0 5ab1 3163 5aa1 bc63 5aa1 9863     .Z..Z.1cZ..cZ..c
    74e5:	5ab1 115a a166 5ab1 3261 2c00 5ab3 295a     Z..Z.fZ.2a,.Z.)Z
    74f5:	4c07 5ab4 265a b512 5a4a 035a c507 5aa5     L.Z.&Z..ZJ.Z..Z.
    7505:	665a b532 6122 045a a137 635a a10a 5ab4     fZ.2a".Z.7cZ..Z.
    7515:	0663 5aa1 e05a b131 635a a1bc 635a a198     .cZ..Z.1cZ..cZ..
    7525:	635a b111 5a41 a25a a1e6 5ab1 255a 4509     cZ..ZA.Z..Z.%ZE.
    7535:	5ab2 325a b309 612c 005a b329 5a4c 065a     Z.2Z..a,.Z.)ZL.Z
    7545:	a443 5ab4 225a b512 5a4a 075a c509 5aa5     .CZ."Z..ZJ.Z..Z.
    7555:	cb5a b531 6123 045a a1c1 5ab2 1263 5aa1     .Z.1a#.Z..Z..cZ.
    7565:	9d63 5aa1 7c63 5aa1 5d63 5aa1 8a5a b122     .cZ.|cZ.]cZ..Z."
    7575:	635a a15a 5ab3 095a b402 5ab5 115a a58a     cZ.ZZ..Z..Z..Z..
    7585:	5ab5 2e61 4e04 5aa1 2b63 5aa1 fd5a b121     Z..aN.Z.+cZ..Z.!
    7595:	635a a1d4 6156 0a5a b101 5a4c 025a a466     cZ..aV.Z..ZL.Z.f
    75a5:	5ab4 265a b50e 5a4a 045a a522 5ab5 3261     Z.&Z..ZJ.Z."Z.2a
    75b5:	c107 5ab4 0661 c80d 5ab3 295a b512 5a4a     ..Z..a..Z.)Z..ZJ
    75c5:	065a a598 5ab5 3161 9407 5ab6 1261 2c00     .Z..Z.1a..Z..a,.
    75d5:	5ab7 125a b80e 6179 0e5a 400e 5aa0 225a     Z..Z..ay.Z@.Z."Z
    75e5:	b026 612c 005a a1e6 5ab1 255a 450c 5ab2     .&a,.Z..Z.%ZE.Z.
    75f5:	325a b309 5ab5 115a c50c 5aea 025a 4a8a     2Z..Z..Z..Z..ZJ.
    7605:	5a6a f65a 8a6e 5a2a 215a 6df5 5a8d 065a     Zj.Z.nZ*!Zm.Z..Z
    7615:	2d01 5aa5 225a b526 612c 005a c60c 5af0     -.Z."Z.&a,.Z..Z.
    7625:	005a 5017 5a70 135a 9004 5a30 405a f303     .ZP.Zp.Z..Z0@Z..
    7635:	5a73 405a 93f3 5a33 705a 530c 5aa6 985a     Zs@Z..Z3pZS.Z..Z
    7645:	b635 5ac7 0c5a f100 5a51 165a 7143 5a91     .5Z..Z..ZQ.ZqCZ.
    7655:	c45a 3140 5af4 035a 74d0 612c 005a 94c3     .Z1@Z..Zt.a,.Z..
    7665:	5a34 705a 540a 5aa7 8a5a b732 5af2 005a     Z4pZT.Z..Z.2Z..Z
    7675:	5216 5a72 935a 92c4 5a32 005a 5504 5a75     R.Zr.Z..Z2.ZU.Zu
    7685:	605a 95f3 5a35 f05a 550a 5ab8 3262 7e5a     `Z..Z5.ZU.Z.2b~Z
    7695:	a1c1 5ab2 125a a78b 612c 005a a823 6146     ..Z..Z..a,.Z.#aF
    76a5:	035a a19d 635a a17c 635a a15d 635a a18a     .Z..cZ.|cZ.]cZ..
    76b5:	5ab1 2261 4e04 5aa1 5a5a b232 635a a12b     Z."aN.Z.ZZ.2cZ.+
    76c5:	5ab2 1263 5aa1 fd5a b121 635a a1d4 635a     Z..cZ..Z.!cZ..cZ
    76d5:	b006 61c1 075a b101 5ab2 325a 4b05 5ab3     ..a..Z..Z.2ZK.Z.
    76e5:	295a b506 5ab5 2a63 5ab2 1263 5ab5 0a61     )Z..Z.*cZ..cZ..a
    76f5:	a40e 5a40 0f5a b026 5a41 805a a166 5ab1     ..Z@.Z.&ZA.Z.fZ.
    7705:	325a b309 5aa5 985a b52d 635a a137 635a     2Z..Z..Z.-cZ.7cZ
    7715:	a10a 635a a1e0 5ab1 3163 5aa1 bc63 5aa1     ..cZ..Z.1cZ..cZ.
    7725:	985a b50d 614f 045a b111 5a41 a25a a1e6     .Z..aO.Z..ZA.Z..
    7735:	5ab1 255a b232 5aa5 225a b526 635a a1c1     Z.%Z.2Z."Z.&cZ..
    7745:	5ab2 1263 5ab0 065a a19d 6146 035a a17c     Z..cZ..Z..aF.Z.|
    7755:	635a a15d 635a a18a 5ab1 2261 4e04 5aa1     cZ.]cZ..Z."aN.Z.
    7765:	5a61 2c00 5ab2 325a b329 5aa5 005a b500     Za,.Z.2Z.)Z..Z..
    7775:	5aa5 225a b52a 6146 035a a12b 5ab2 1263     Z."Z.*aF.Z.+Z..c
    7785:	5aa1 fd5a b121 635a a1d4 5ab5 0a61 330b     Z..Z.!cZ..Z..a3.
    7795:	5a40 0a5a a098 5ab0 295a b101 5a41 805a     Z@.Z..Z.)Z..ZA.Z
    77a5:	a166 612c 005a b132 5a45 005a a28a 5ab2     .fa,.Z.2ZE.Z..Z.
    77b5:	325a b309 5aa5 6c5a b52d 6146 035a a137     2Z..Z.lZ.-aF.Z.7
    77c5:	635a a10a 635a a1e0 5ab1 3163 5aa1 bc63     cZ..cZ..Z.1cZ..c
    77d5:	5aa1 985a b50d 614e 045a b111 5aa5 8a5a     Z..Z..aN.Z..Z..Z
    77e5:	b52a 613a 115a b50a 614f 045a 41a2 5aa1     .*a:.Z..aO.ZA.Z.
    77f5:	e65a b125 5ab2 125a 450c 5aa2 435a b232     .Z.%Z..ZE.Z.CZ.2
    7805:	5ab3 295a a566 5ab5 2a63 5aa1 c15a b212     Z.)Z.fZ.*cZ..Z..
    7815:	635a a19d 635a a17c 635a a15d 635a a18a     cZ..cZ.|cZ.]cZ..
    7825:	5ab1 2261 4e04 5aa1 5a5a b232 5ab3 095a     Z."aN.Z.ZZ.2Z..Z
    7835:	b50a 5aa5 8a5a b52a 635a a12b 5ab2 1263     ..Z..Z.*cZ.+Z..c
    7845:	5aa1 fd5a b121 635a b009 5aa1 d45a b50a     Z..Z.!cZ..Z..Z..
    7855:	6106 0b5a 400e 612d 005a a081 5ab0 295a     a..Z@.a-.Z..Z.)Z
    7865:	b101 5a41 805a a166 5ab1 325a a522 5ab5     ..ZA.Z.fZ.2Z."Z.
    7875:	2e61 4503 5aa1 3763 5aa1 0a63 5aa1 e05a     .aE.Z.7cZ..cZ..Z
    7885:	b131 5ab5 0e63 5aa1 bc63 5aa1 9861 4f04     .1Z..cZ..cZ..aO.
    7895:	5ab1 115a b329 5aa5 8a61 2c00 5ab5 2a61     Z..Z.)Z..a,.Z.*a
    78a5:	b806 5ab5 0a63 635a b009 61c0 075a 4012     ..Z..ccZ..a..Z@.
    78b5:	5ac0 0c5a a066 5ab0 265a 41a2 5aa1 e65a     Z..Z.fZ.&ZA.Z..Z
    78c5:	b125 5ab2 3261 2d00 5ab3 095a b329 5aa5     .%Z.2a-.Z..Z.)Z.
    78d5:	225a b52e 6145 035a a1c1 5ab2 1263 5aa1     "Z..aE.Z..Z..cZ.
    78e5:	9d63 5aa1 7c63 5ab0 065a a15d 635a a18a     .cZ.|cZ..Z.]cZ..
    78f5:	5ab1 2261 4f04 5a40 0e5a c00a 5aa0 8a5a     Z."aO.Z@.Z..Z..Z
    7905:	b026 5aa1 5a5a b232 5ab3 095a 4c06 5aa4     .&Z.ZZ.2Z..ZL.Z.
    7915:	435a b422 612c 005a b50e 6146 035a a12b     CZ."a,.Z..aF.Z.+
    7925:	5ab2 1263 5aa1 fd5a b121 635a a1d4 6132     Z..cZ..Z.!cZ..a2
    7935:	0b5a b101 5ab3 295a b402 5aa5 e65a b52d     .Z..Z.)Z..Z..Z.-
    7945:	6156 0a5a b006 6363 5ab6 155a b712 5ab8     aV.Z..ccZ..Z..Z.
    7955:	1261 4f04 5ab0 265a b232 5ab3 0961 4603     .aO.Z.&Z.2Z..aF.
    7965:	5ab2 1261 560a 5ab0 0661 c007 5a40 135a     Z..aV.Z..a..Z@.Z
    7975:	c00c 5aa0 225a b026 612c 005a a1e6 5ab1     ..Z."Z.&a,.Z..Z.
    7985:	255a b232 5ab5 0d5a a522 5ab5 265a 530a     %Z.2Z..Z."Z.&ZS.
    7995:	5ab6 355a a766 5ab7 325a a8e6 5ab8 3161     Z.5Z.fZ.2Z..Z.1a
    79a5:	4603 5aa1 c15a b212 5aa7 6763 5aa1 9d63     F.Z..Z..Z.gcZ..c
    79b5:	5aa1 7c63 5aa1 5d63 5aa1 8a5a b122 614f     Z.|cZ.]cZ..Z."aO
    79c5:	045a a15a 5ab2 3263 5aa1 2b5a b212 635a     .Z.ZZ.2cZ.+Z..cZ
    79d5:	a1fd 5ab1 2163 5aa1 d461 320b 5ab0 065a     ..Z.!cZ..a2.Z..Z
    79e5:	b101 5ab2 325a b329 5aa5 005a b500 5aa5     ..Z.2Z.)Z..Z..Z.
    79f5:	2261 2c00 5ab5 2a61 4603 5ab2 1263 5ab5     "a,.Z.*aF.Z..cZ.
    7a05:	0a61 a50e 5a40 115a b026 5a41 805a a166     .a..Z@.Z.&ZA.Z.f
    7a15:	5ab1 325a b309 5aa5 985a b52d 635a a137     Z.2Z..Z..Z.-cZ.7
    7a25:	635a a10a 635a a1e0 5ab1 3163 5aa1 bc5a     cZ..cZ..Z.1cZ..Z
    7a35:	b50d 635a a198 614e 045a b111 5a41 a25a     ..cZ..aN.Z..ZA.Z
    7a45:	a1e6 5ab1 255a b232 5aa5 225a b526 635a     ..Z.%Z.2Z."Z.&cZ
    7a55:	a1c1 5ab2 1263 5aa1 9d61 4603 5aa1 7c63     ..Z..cZ..aF.Z.|c
    7a65:	5ab0 0661 2c00 5aa1 5d61 4603 5aa1 8a5a     Z..a,.Z.]aF.Z..Z
    7a75:	b122 614f 045a a15a 612c 005a b232 5ab3     ."aO.Z.Za,.Z.2Z.
    7a85:	295a b506 5ab5 2a61 4603 5aa1 2b5a b212     )Z..Z.*aF.Z.+Z..
    7a95:	635a a1fd 5ab1 2163 5aa1 d45a b50a 6132     cZ..Z.!cZ..Z..a2
    7aa5:	0b5a 400c 5ac0 0a5a a098 5ab0 295a b101     .Z@.Z..Z..Z.)Z..
    7ab5:	5a41 8061 2c00 5aa1 665a b132 5a45 005a     ZA.a,.Z.fZ.2ZE.Z
    7ac5:	a28a 5ab2 325a b309 5aa5 6c5a b52d 6146     ..Z.2Z..Z.lZ.-aF
    7ad5:	035a a137 635a a10a 635a a1e0 5ab1 3163     .Z.7cZ..cZ..Z.1c
    7ae5:	5aa1 bc61 4f04 5aa1 985a b50d 635a b111     Z..aO.Z..Z..cZ..
    7af5:	5aa5 8a5a b52a 61c8 0d5a b50a 61c0 075a     Z..Z.*a..Z..a..Z
    7b05:	41a2 5aa1 e65a b125 5ab2 125a 450c 5aa2     A.Z..Z.%Z..ZE.Z.
    7b15:	435a b232 5ab3 295a a566 5ab5 2a63 5aa1     CZ.2Z.)Z.fZ.*cZ.
    7b25:	c15a b212 635a a19d 635a a17c 635a a15d     .Z..cZ..cZ.|cZ.]
    7b35:	614f 045a a18a 5ab1 2263 5aa1 5a5a b232     aO.Z..Z."cZ.ZZ.2
    7b45:	5ab3 095a b50a 5aa5 8a5a b52a 635a a12b     Z..Z..Z..Z.*cZ.+
    7b55:	5ab2 1263 5aa1 fd5a b121 635a a1d4 635a     Z..cZ..Z.!cZ..cZ
    7b65:	b009 5ab5 0a61 c007 5aa0 815a b029 5ab1     ..Z..a..Z..Z.)Z.
    7b75:	015a 4180 5aa1 665a b132 5aa5 e65a b52d     .ZA.Z.fZ.2Z..Z.-
    7b85:	6146 035a a137 635a a10a 635a a1e0 5ab1     aF.Z.7cZ..cZ..Z.
    7b95:	3163 5aa1 bc5a b50d 614f 045a a198 635a     1cZ..Z..aO.Z..cZ
    7ba5:	b111 5ab3 295a a58a 612c 005a b52a 61b8     ..Z.)Z..a,.Z.*a.
    7bb5:	065a b50a 61a4 0e5a b009 5a40 105a c00c     .Z..a..Z..Z@.Z..
    7bc5:	5aa0 665a b026 5a41 a25a a1e6 5ab1 2561     Z.fZ.&ZA.Z..Z.%a
    7bd5:	2c00 5ab2 325a b309 5ab3 295a a522 5ab5     ,.Z.2Z..Z.)Z."Z.
    7be5:	2e61 4603 5aa1 c15a b212 635a a19d 635a     .aF.Z..Z..cZ..cZ
    7bf5:	a17c 5ab5 0e63 5aa1 5d61 4f04 5ab0 065a     .|Z..cZ.]aO.Z..Z
    7c05:	a18a 5ab1 2263 5a40 0d5a c00a 5aa0 8a5a     ..Z."cZ@.Z..Z..Z
    7c15:	b026 5aa1 5a5a b232 5ab3 095a b422 612c     .&Z.ZZ.2Z..Z."a,
    7c25:	005a a58a 5ab5 2a61 4603 5aa1 2b5a b212     .Z..Z.*aF.Z.+Z..
    7c35:	635a a1fd 5ab1 215a b50a 635a a1d4 6132     cZ..Z.!Z..cZ..a2
    7c45:	0b5a b101 5ab3 295a b402 5aa5 e65a b52d     .Z..Z.)Z..Z..Z.-
    7c55:	6156 0a5a b006 61c1 075a b615 5ab8 1163     aV.Z..a..Z..Z..c
    7c65:	5ab0 265a b309 5ab7 1261 9c0d 5ab0 0661     Z.&Z..Z..a..Z..a
    7c75:	c007 5a40 0e5a a022 5ab0 2661 2c00 5aa1     ..Z@.Z."Z.&a,.Z.
    7c85:	e65a b125 5ab2 325a a500 5ab5 005a a522     .Z.%Z.2Z..Z..Z."
    7c95:	5ab5 265a 5308 5aa6 6c5a b635 5aa7 225a     Z.&ZS.Z.lZ.5Z."Z
    7ca5:	b732 5a55 0b5a a8cb 5ab8 3161 4603 5aa1     .2ZU.Z..Z.1aF.Z.
    7cb5:	c15a b212 5aa7 2363 5aa1 9d63 5aa1 7c63     .Z..Z.#cZ..cZ.|c
    7cc5:	5aa1 5d61 4f04 5aa1 8a5a b122 635a a15a     Z.]aO.Z..Z."cZ.Z
    7cd5:	5ab2 3263 5aa1 2b5a b212 635a a1fd 5ab1     Z.2cZ.+Z..cZ..Z.
    7ce5:	2163 5aa1 d463 5ab0 0661 4e04 5ab5 0663     !cZ..cZ..aN.Z..c
    7cf5:	5ab1 015a b232 5a4b 065a b329 5ab5 2a63     Z..Z.2ZK.Z.)Z.*c
    7d05:	5ab2 1263 5ab5 0a61 a50e 5a40 0d5a b026     Z..cZ..a..Z@.Z.&
    7d15:	5a41 805a a166 5ab1 325a b309 5aa5 985a     ZA.Z.fZ.2Z..Z..Z
    7d25:	b52d 635a a137 635a a10a 635a a1e0 5ab1     .-cZ.7cZ..cZ..Z.
    7d35:	3163 5aa1 bc5a b50d 614e 045a a198 635a     1cZ..Z..aN.Z..cZ
    7d45:	b111 5a41 a25a a1e6 5ab1 255a b232 5aa5     ..ZA.Z..Z.%Z.2Z.
    7d55:	225a b526 635a a1c1 5ab2 1263 5aa1 9d63     "Z.&cZ..Z..cZ..c
    7d65:	5ab0 065a a17c 6146 035a a15d 614e 045a     Z..Z.|aF.Z.]aN.Z
    7d75:	a18a 5ab1 2263 5aa1 5a61 2d00 5ab2 325a     ..Z."cZ.Za-.Z.2Z
    7d85:	b329 5ab5 065a b52a 6145 035a a12b 5ab2     .)Z..Z.*aE.Z.+Z.
    7d95:	1263 5aa1 fd5a b121 635a a1d4 61c1 075a     .cZ..Z.!cZ..a..Z
    7da5:	b50a 635a 4009 5aa0 985a b029 5ab1 015a     ..cZ@.Z..Z.)Z..Z
    7db5:	4180 612c 005a a166 5ab1 325a 4500 5aa2     A.a,.Z.fZ.2ZE.Z.
    7dc5:	8a5a b232 5ab3 095a a56c 5ab5 2d61 4603     .Z.2Z..Z.lZ.-aF.
    7dd5:	5aa1 3763 5aa1 0a63 5aa1 e05a b131 635a     Z.7cZ..cZ..Z.1cZ
    7de5:	a1bc 614e 045a a198 5ab5 0d63 5ab1 115a     ..aN.Z..Z..cZ..Z
    7df5:	a58a 5ab5 2a61 c80d 5ab5 0a61 c107 5a41     ..Z.*a..Z..a..ZA
    7e05:	a25a a1e6 5ab1 255a b212 5a45 0c5a a243     .Z..Z.%Z..ZE.Z.C
    7e15:	5ab2 325a b329 5aa5 665a b52a 635a a1c1     Z.2Z.)Z.fZ.*cZ..
    7e25:	5ab2 1263 5aa1 9d63 5aa1 7c63 5aa1 5d61     Z..cZ..cZ.|cZ.]a
    7e35:	4e04 5aa1 8a5a b122 635a a15a 5ab2 325a     N.Z..Z."cZ.ZZ.2Z
    7e45:	b309 5ab5 0a5a a58a 5ab5 2a63 5aa1 2b5a     ..Z..Z..Z.*cZ.+Z
    7e55:	b212 635a a1fd 5ab1 2163 5aa1 d45a b50a     ..cZ..Z.!cZ..Z..
    7e65:	635a b009 6195 075a 400d 612c 005a a081     cZ..a..Z@.a,.Z..
    7e75:	5ab0 295a b101 5a41 805a a166 5ab1 325a     Z.)Z..ZA.Z.fZ.2Z
    7e85:	a5e6 5ab5 2d61 4603 5aa1 3763 5aa1 0a63     ..Z.-aF.Z.7cZ..c
    7e95:	5aa1 e05a b131 614e 045a a1bc 635a a198     Z..Z.1aN.Z..cZ..
    7ea5:	635a b111 5ab3 295a a500 612c 005a b500     cZ..Z.)Z..a,.Z..
    7eb5:	5aa5 8a5a b52a 61b8 065a b50a 6133 0b5a     Z..Z.*a..Z..a3.Z
    7ec5:	b009 635a 400f 5aa0 665a b026 5a41 a25a     ..cZ@.Z.fZ.&ZA.Z
    7ed5:	a1e6 5ab1 255a b232 612c 005a b309 5ab3     ..Z.%Z.2a,.Z..Z.
    7ee5:	295a a598 5ab5 2d61 4603 5aa1 c15a b212     )Z..Z.-aF.Z..Z..
    7ef5:	635a a19d 635a a17c 614e 045a b006 5aa1     cZ..cZ.|aN.Z..Z.
    7f05:	5d63 5aa1 8a5a b122 635a 400c 5aa0 8a5a     ]cZ..Z."cZ@.Z..Z
    7f15:	b026 5aa1 5a5a b232 5ab3 095a b422 635a     .&Z.ZZ.2Z..Z."cZ
    7f25:	a12b 5ab2 1263 5aa1 fd5a b121 5ab7 125a     .+Z..cZ..Z.!Z..Z
    7f35:	b811 635a a1d4 614f 045a b615 6363 5ab1     ..cZ..aO.Z..ccZ.
    7f45:	015a b329 5ab4 025a b50d 5aa5 6c5a b52d     .Z.)Z..Z..Z.lZ.-
    7f55:	6156 0a5a b006 6132 0b5a 400d 5ab0 265a     aV.Z..a2.Z@.Z.&Z
    7f65:	b232 5ab3 0963 5ab2 1261 eb11 5ab0 0661     .2Z..cZ..a..Z..a
    7f75:	2c00 5aa0 225a b026 5aa1 e65a b125 5ab2     ,.Z."Z.&Z..Z.%Z.
    7f85:	325a a500 5ab5 005a a522 5ab5 265a 5309     2Z..Z..Z."Z.&ZS.
    7f95:	5aa6 e65a b635 5aa7 6c5a b735 5aa8 225a     Z..Z.5Z.lZ.5Z."Z
    7fa5:	b832 6146 035a a1c1 5ab2 1261 2c00 5aa8     .2aF.Z..Z..a,.Z.
    7fb5:	2361 4603 5aa1 9d63 5aa1 7c61 4e04 5aa1     #aF.Z..cZ.|aN.Z.
    7fc5:	5d63 5aa1 8a5a b122 635a a15a 5ab2 3263     ]cZ..Z."cZ.ZZ.2c
    7fd5:	5aa1 2b5a b212 635a a1fd 5ab1 2163 5aa1     Z.+Z..cZ..Z.!cZ.
    7fe5:	d461 4f04 5ab5 0663 5ab0 0663 5ab1 015a     .aO.Z..cZ..cZ..Z
    7ff5:	b232 5ab3 295a b52a 635a b212 635a b50a     .2Z.)Z.*cZ..cZ..
    8005:	61a4 0e5a 4011 5ac0 0c5a b026 5a41 805a     a..Z@.Z..Z.&ZA.Z
    8015:	a166 5ab1 325a b309 5aa5 985a b52d 635a     .fZ.2Z..Z..Z.-cZ
    8025:	a137 635a a10a 635a a1e0 5ab1 3161 4f04     .7cZ..cZ..Z.1aO.
    8035:	5aa1 bc63 5aa1 985a b50d 635a b111 5a41     Z..cZ..Z..cZ..ZA
    8045:	a25a a1e6 5ab1 255a b232 5aa5 225a b526     .Z..Z.%Z.2Z."Z.&
    8055:	635a a1c1 5ab2 1263 5aa1 9d63 5ab0 065a     cZ..Z..cZ..cZ..Z
    8065:	a17c 6122 045a a15d 635a a18a 5ab1 2261     .|a".Z.]cZ..Z."a
    8075:	2c00 5ab5 0661 4603 5aa1 5a61 2c00 5ab2     ,.Z..aF.Z.Za,.Z.
    8085:	325a b329 5ab5 2a61 4603 5aa1 2b5a b212     2Z.)Z.*aF.Z.+Z..
    8095:	635a a1fd 5ab1 2163 5aa1 d45a b50a 6133     cZ..Z.!cZ..Z..a3
    80a5:	0b5a 4007 5ac0 085a a098 5ab0 295a b101     .Z@.Z..Z..Z.)Z..
    80b5:	5a41 8061 2c00 5aa1 665a b132 5a45 005a     ZA.a,.Z.fZ.2ZE.Z
    80c5:	a28a 5ab2 325a b309 5aa5 6c5a b52d 6146     ..Z.2Z..Z.lZ.-aF
    80d5:	035a a137 635a a10a 635a a1e0 5ab1 3161     .Z.7cZ..cZ..Z.1a
    80e5:	4e04 5aa1 bc5a b50d 635a a198 635a b111     N.Z..Z..cZ..cZ..
    80f5:	5aa5 8a5a b52a 61a5 0e5a b50a 6363 5a41     Z..Z.*a..Z..ccZA
    8105:	a25a a1e6 5ab1 255a b212 5a45 0c5a a243     .Z..Z.%Z..ZE.Z.C
    8115:	5ab2 325a b329 5aa5 665a b52a 635a a1c1     Z.2Z.)Z.fZ.*cZ..
    8125:	5ab2 1263 5aa1 9d63 5aa1 7c61 4e04 5ab0     Z..cZ..cZ.|aN.Z.
    8135:	095a a15d 635a a18a 5ab1 2263 5a40 0a5a     .Z.]cZ..Z."cZ@.Z
    8145:	c00a 5aa0 815a b029 5aa1 5a5a b232 5ab3     ..Z..Z.)Z.ZZ.2Z.
    8155:	095a b50a 5aa5 8a5a b52a 635a a12b 5ab2     .Z..Z..Z.*cZ.+Z.
    8165:	1263 5aa1 fd5a b121 635a a1d4 5ab5 0a61     .cZ..Z.!cZ..Z..a
    8175:	330b 5ab1 015a 4180 5aa1 665a b132 5aa5     3.Z..ZA.Z.fZ.2Z.
    8185:	6c5a b52d 6146 035a a137 635a a10a 635a     lZ.-aF.Z.7cZ..cZ
    8195:	b009 5aa1 e05a b131 612c 005a b50d 6122     ..Z..Z.1a,.Z..a"
    81a5:	045a a1bc 635a a198 635a b111 5aa1 665a     .Z..cZ..cZ..Z.fZ
    81b5:	b132 612c 005a b329 5aa5 8a5a b52a 5ab6     .2a,.Z.)Z..Z.*Z.
    81c5:	155a b715 5ab8 1261 4603 5aa1 3763 5aa1     .Z..Z..aF.Z.7cZ.
    81d5:	0a5a b50a 635a a1e0 5ab1 3161 4f04 5aa1     .Z..cZ..Z.1aO.Z.
    81e5:	bc63 5aa1 9863 5ab1 115a 41a2 5aa1 e65a     .cZ..cZ..ZA.Z..Z
    81f5:	b125 5ab2 325a b309 612c 005a b329 5ab4     .%Z.2Z..a,.Z.)Z.
    8205:	225a a598 5ab5 2d5a 530c 5aa6 cb5a b635     "Z..Z.-ZS.Z..Z.5
    8215:	5a54 0d5a b735 5a55 0d5a a822 5ab8 3261     ZT.Z.5ZU.Z."Z.2a
    8225:	4603 5aa1 c15a b212 5aa8 2363 5aa1 9d63     F.Z..Z..Z.#cZ..c
    8235:	5aa1 7c61 4e04 5aa1 5d63 5aa1 8a5a b122     Z.|aN.Z.]cZ..Z."
    8245:	635a a15a 5ab2 325a b309 5ab4 0263 5aa1     cZ.ZZ.2Z..Z..cZ.
    8255:	2b5a b212 635a a1fd 5ab1 2163 5aa1 d461     +Z..cZ..Z.!cZ..a
    8265:	c107 5ab5 0d63 5ab1 015a b232 5ab4 225a     ..Z..cZ..Z.2Z."Z
    8275:	a56c 5ab5 2d63 5ab2 1261 1612 5ab2 325a     .lZ.-cZ..a..Z.2Z
    8285:	b329 5ab4 0263 5ab2 1261 ea11 5a40 0e5a     .)Z..cZ..a..Z@.Z
    8295:	a022 5ab0 2661 2c00 5aa1 e65a b125 5ab2     ."Z.&a,.Z..Z.%Z.
    82a5:	325a b309 5aa5 005a b500 5aa5 225a b526     2Z..Z..Z..Z."Z.&
    82b5:	5a53 0a5a a600 5ab6 005a a698 5ab6 355a     ZS.Z..Z..Z..Z.5Z
    82c5:	540b 5aa7 005a b700 5aa7 8a5a b732 5ab8     T.Z..Z..Z..Z.2Z.
    82d5:	1261 2d00 5a55 0b5a a822 5ab8 3261 1903     .a-.ZU.Z."Z.2a..
    82e5:	5aa1 c15a b212 612c 005a a823 6146 035a     Z..Z..a,.Z.#aF.Z
    82f5:	a19d 5aa7 8b61 4f04 5aa1 7c63 5aa1 5d63     ..Z..aO.Z.|cZ.]c
    8305:	5aa1 8a5a b122 635a a15a 5ab2 3263 5aa1     Z..Z."cZ.ZZ.2cZ.
    8315:	2b5a b212 635a a1fd 5ab1 2161 4e04 5aa1     +Z..cZ..Z.!aN.Z.
    8325:	d463 5ab0 0663 5ab5 0663 5ab1 015a b232     .cZ..cZ..cZ..Z.2
    8335:	5a4b 055a b329 5ab5 2a63 5ab2 1263 5ab5     ZK.Z.)Z.*cZ..cZ.
    8345:	0a61 a50e 5a40 0f5a b026 5a41 805a a166     .a..Z@.Z.&ZA.Z.f
    8355:	5ab1 325a b309 5aa5 985a b52d 635a a137     Z.2Z..Z..Z.-cZ.7
    8365:	635a a10a 614e 045a a1e0 5ab1 3163 5aa1     cZ..aN.Z..Z.1cZ.
    8375:	bc5a b50d 635a a198 635a b111 5a41 a25a     .Z..cZ..cZ..ZA.Z
    8385:	a1e6 5ab1 255a b232 5aa5 225a b526 5ab8     ..Z.%Z.2Z."Z.&Z.
    8395:	1263 5aa1 c15a b212 635a b006 5aa1 9d61     .cZ..Z..cZ..Z..a
    83a5:	4f04 5aa1 7c61 4603 5aa1 5d63 5aa1 8a5a     O.Z.|aF.Z.]cZ..Z
    83b5:	b122 612c 005a b506 6146 035a a15a 612c     ."a,.Z..aF.Z.Za,
    83c5:	005a b232 5ab3 295a b52a 6146 035a a12b     .Z.2Z.)Z.*aF.Z.+
    83d5:	612c 005a b212 6146 035a a1fd 5ab1 2161     a,.Z..aF.Z..Z.!a
    83e5:	4e04 5aa1 d45a b50a 6156 0a5a 400a 5aa0     N.Z..Z..aV.Z@.Z.
    83f5:	985a b029 5ab1 0161 2c00 5a41 805a a166     .Z.)Z..a,.ZA.Z.f
    8405:	5ab1 325a 4500 5aa2 8a5a b232 5ab3 095a     Z.2ZE.Z..Z.2Z..Z
    8415:	a56c 5ab5 2d61 4603 5aa1 3763 5aa1 0a61     .lZ.-aF.Z.7cZ..a
    8425:	4f04 5aa1 e05a b131 635a a1bc 635a a198     O.Z..Z.1cZ..cZ..
    8435:	5ab5 0d63 5ab1 115a a58a 5ab5 2a61 a40e     Z..cZ..Z..Z.*a..
    8445:	5ab5 0a63 635a 41a2 5aa1 e65a b125 5ab2     Z..ccZA.Z..Z.%Z.
    8455:	125a 450c 5aa2 435a b232 5ab3 295a a566     .ZE.Z.CZ.2Z.)Z.f
    8465:	5ab5 2a63 5aa1 c15a b212 635a a19d 614f     Z.*cZ..Z..cZ..aO
    8475:	045a a17c 635a a15d 635a a18a 5ab1 2263     .Z.|cZ.]cZ..Z."c
    8485:	5aa1 5a5a b232 5ab3 095a a500 5ab5 005a     Z.ZZ.2Z..Z..Z..Z
    8495:	a58a 5ab5 2a63 5aa1 2b5a b212 635a a1fd     ..Z.*cZ.+Z..cZ..
    84a5:	5ab1 2161 4e04 5ab0 095a a1d4 635a b50a     Z.!aN.Z..Z..cZ..
    84b5:	61b8 065a 400e 612c 005a a081 5ab0 295a     a..Z@.a,.Z..Z.)Z
    84c5:	b101 5a41 805a a166 5ab1 325a a5e6 5ab5     ..ZA.Z.fZ.2Z..Z.
    84d5:	2d61 4603 5aa1 3763 5aa1 0a61 4f04 5aa1     -aF.Z.7cZ..aO.Z.
    84e5:	e05a b131 635a a1bc 5ab5 0d63 5aa1 9863     .Z.1cZ..Z..cZ..c
    84f5:	5ab1 115a b329 612c 005a a58a 5ab5 2a61     Z..Z.)a,.Z..Z.*a
    8505:	b806 5ab5 0a61 c007 5ab0 0963 635a 4012     ..Z..a..Z..ccZ@.
    8515:	5ac0 0c5a a066 5ab0 265a 41a2 5aa1 e65a     Z..Z.fZ.&ZA.Z..Z
    8525:	b125 5ab2 3261 2c00 5ab3 095a b329 5aa5     .%Z.2a,.Z..Z.)Z.
    8535:	225a b52e 6146 035a a1c1 5ab2 1263 5aa1     "Z..aF.Z..Z..cZ.
    8545:	9d61 4f04 5aa1 7c63 5ab0 065a a15d 635a     .aO.Z.|cZ..Z.]cZ
    8555:	a18a 5ab1 2263 5a40 0e5a c00a 5aa0 8a5a     ..Z."cZ@.Z..Z..Z
    8565:	b026 5aa1 5a5a b232 5ab3 095a b422 635a     .&Z.ZZ.2Z..Z."cZ
    8575:	a12b 5ab2 1263 5aa1 fd5a b121 614e 045a     .+Z..cZ..Z.!aN.Z
    8585:	a1d4 6156 0a5a b101 5ab3 295a b402 5ab5     ..aV.Z..Z.)Z..Z.
    8595:	0e5a a5e6 5ab5 2d61 330b 5ab0 0661 560a     .Z..Z.-a3.Z..aV.
    85a5:	5ab0 265a b232 5ab3 095a b615 5ab7 1263     Z.&Z.2Z..Z..Z..c
    85b5:	5ab2 1261 060b 5ab0 0663 635a 4013 5ac0     Z..a..Z..ccZ@.Z.
    85c5:	0c5a a022 5ab0 2661 2c00 5aa1 e65a b125     .Z."Z.&a,.Z..Z.%
    85d5:	5ab2 325a a500 5ab5 005a a522 5ab5 265a     Z.2Z..Z..Z."Z.&Z
    85e5:	5309 5ab6 355a a766 5ab7 325a 550a 5aa8     S.Z.5Z.fZ.2ZU.Z.
    85f5:	e65a b831 6146 035a a1c1 5ab2 1261 2c00     .Z.1aF.Z..Z..a,.
    8605:	5aa7 6761 4603 5aa1 9d61 4f04 5aa1 7c63     Z.gaF.Z..aO.Z.|c
    8615:	5aa1 5d63 5aa1 8a5a b122 635a a15a 5ab2     Z.]cZ..Z."cZ.ZZ.
    8625:	3263 5aa1 2b5a b212 635a a1fd 5ab1 2161     2cZ.+Z..cZ..Z.!a
    8635:	4e04 5aa1 d463 635a b506 635a b006 5ab1     N.Z..ccZ..cZ..Z.
    8645:	015a b232 5ab3 295a b52a 635a b212 5ab5     .Z.2Z.)Z.*cZ..Z.
    8655:	0a61 1712 5a40 115a b026 5a41 805a a166     .a..Z@.Z.&ZA.Z.f
    8665:	5ab1 325a b309 5aa5 985a b52d 635a a137     Z.2Z..Z..Z.-cZ.7
    8675:	635a a10a 614e 045a a1e0 5ab1 3163 5aa1     cZ..aN.Z..Z.1cZ.
    8685:	bc63 5aa1 985a b50d 635a b111 5a41 a25a     .cZ..Z..cZ..ZA.Z
    8695:	a1e6 5ab1 255a b232 5aa5 225a b526 635a     ..Z.%Z.2Z."Z.&cZ
    86a5:	a1c1 5ab2 1263 5aa1 9d61 4f04 5aa1 7c63     ..Z..cZ..aO.Z.|c
    86b5:	5ab0 065a a15d 6145 035a a18a 5ab1 2261     Z..Z.]aE.Z..Z."a
    86c5:	2d00 5ab5 0661 4503 5aa1 5a61 2d00 5ab2     -.Z..aE.Z.Za-.Z.
    86d5:	325a b329 5ab5 2a61 4503 5aa1 2b61 2d00     2Z.)Z.*aE.Z.+a-.
    86e5:	5ab2 1261 2204 5aa1 fd5a b121 635a a1d4     Z..a".Z..Z.!cZ..
    86f5:	5ab5 0a61 560a 5a40 0c5a c00a 5aa0 985a     Z..aV.Z@.Z..Z..Z
    8705:	b029 5ab1 0161 2c00 5a41 805a a166 5ab1     .)Z..a,.ZA.Z.fZ.
    8715:	325a 4500 5aa2 8a5a b232 5ab3 095a a56c     2ZE.Z..Z.2Z..Z.l
    8725:	5ab5 2d61 4603 5aa1 3761 4e04 5aa1 0a63     Z.-aF.Z.7aN.Z..c
    8735:	5aa1 e05a b131 635a a1bc 635a a198 635a     Z..Z.1cZ..cZ..cZ
    8745:	b111 5ab5 0d5a a58a 5ab5 2a61 a50e 5ab5     ..Z..Z..Z.*a..Z.
    8755:	0a63 635a 41a2 5aa1 e65a b125 5ab2 125a     .ccZA.Z..Z.%Z..Z
    8765:	450c 5aa2 435a b232 5ab3 295a a566 5ab5     E.Z.CZ.2Z.)Z.fZ.
    8775:	2a63 5aa1 c15a b212 614e 045a a19d 635a     *cZ..Z..aN.Z..cZ
    8785:	a17c 635a a15d 635a a18a 5ab1 2263 5aa1     .|cZ.]cZ..Z."cZ.
    8795:	5a5a b232 5ab3 095a b50a 5aa5 8a5a b52a     ZZ.2Z..Z..Z..Z.*
    87a5:	635a a12b 5ab2 1261 4f04 5aa1 fd5a b121     cZ.+Z..aO.Z..Z.!
    87b5:	635a a1d4 5ab5 0a63 5ab0 0963 635a a081     cZ..Z..cZ..ccZ..
    87c5:	5ab0 295a b101 5a41 805a a166 5ab1 325a     Z.)Z..ZA.Z.fZ.2Z
    87d5:	a598 5ab5 2d61 4603 5aa1 3761 4e04 5aa1     ..Z.-aF.Z.7aN.Z.
    87e5:	0a63 5aa1 e05a b131 635a a1bc 635a a198     .cZ..Z.1cZ..cZ..
    87f5:	635a b111 5ab3 2961 2c00 5aa5 005a b500     cZ..Z.)a,.Z..Z..
    8805:	5aa5 8a5a b52a 6195 075a b50a 61c8 0d5a     Z..Z.*a..Z..a..Z
    8815:	b009 5a40 105a c00c 5aa0 665a b026 5a41     ..Z@.Z..Z.fZ.&ZA
    8825:	a25a a1e6 5ab1 2561 2c00 5ab2 325a b309     .Z..Z.%a,.Z.2Z..
    8835:	5ab3 295a a56c 5ab5 2d61 4603 5aa1 c15a     Z.)Z.lZ.-aF.Z..Z
    8845:	b212 614e 045a a19d 635a a17c 635a a15d     ..aN.Z..cZ.|cZ.]
    8855:	635a b006 5aa1 8a5a b122 635a 400d 5ac0     cZ..Z..Z."cZ@.Z.
    8865:	0a5a a08a 5ab0 265a a15a 5ab2 325a b309     .Z..Z.&Z.ZZ.2Z..
    8875:	612c 005a b422 6146 035a a12b 5ab2 1261     a,.Z."aF.Z.+Z..a
    8885:	4f04 5aa1 fd5a b121 635a a1d4 6156 0a5a     O.Z..Z.!cZ..aV.Z
    8895:	b101 5ab3 295a b402 6132 0b5a b006 6363     ..Z.)Z..a2.Z..cc
    88a5:	5ab8 1163 5ab0 265a b309 5ab6 1563 5ab7     Z..cZ.&Z..Z..cZ.
    88b5:	1261 070b 5ab0 0663 5ab5 0d63 5a40 0e5a     .a..Z..cZ..cZ@.Z
    88c5:	a022 612c 005a b026 5aa1 e65a b125 5ab2     ."a,.Z.&Z..Z.%Z.
    88d5:	325a a522 5ab5 265a 530a 5aa6 6c5a b635     2Z."Z.&ZS.Z.lZ.5
    88e5:	5a54 0a5a a722 5ab7 325a 550c 5aa8 cb5a     ZT.Z."Z.2ZU.Z..Z
    88f5:	b831 6146 035a a1c1 5ab2 1261 2c00 5aa7     .1aF.Z..Z..a,.Z.
    8905:	2361 2204 5aa1 9d63 5aa1 7c63 5aa1 5d63     #a".Z..cZ.|cZ.]c
    8915:	5aa1 8a5a b122 635a a15a 5ab2 3263 5aa1     Z..Z."cZ.ZZ.2cZ.
    8925:	2b5a b212 614f 045a a1fd 5ab1 2163 5aa1     +Z..aO.Z..Z.!cZ.
    8935:	d463 5ab0 065a b506 6363 5ab1 015a b232     .cZ..Z..ccZ..Z.2
    8945:	5a4b 065a b329 5ab5 2a63 5ab2 125a b50a     ZK.Z.)Z.*cZ..Z..
    8955:	6116 125a 400d 5ab0 265a 4180 5aa1 665a     a..Z@.Z.&ZA.Z.fZ
    8965:	b132 5ab3 095a a598 5ab5 2d63 5aa1 3761     .2Z..Z..Z.-cZ.7a
    8975:	4f04 5aa1 0a63 5aa1 e05a b131 635a a1bc     O.Z..cZ..Z.1cZ..
    8985:	635a a198 5ab5 0d63 5ab1 115a 41a2 5aa1     cZ..Z..cZ..ZA.Z.
    8995:	e65a b125 5ab2 325a a522 5ab5 2663 5aa1     .Z.%Z.2Z."Z.&cZ.
    89a5:	c15a b212 614e 045a a19d 635a b006 5aa1     .Z..aN.Z..cZ..Z.
    89b5:	7c63 5aa1 5d61 4603 5aa1 8a5a b122 635a     |cZ.]aF.Z..Z."cZ
    89c5:	a15a 612c 005a b232 5ab3 295a b506 5ab5     .Za,.Z.2Z.)Z..Z.
    89d5:	2a61 4603 5aa1 2b61 2c00 5ab2 1261 2304     *aF.Z.+a,.Z..a#.
    89e5:	5aa1 fd5a b121 635a a1d4 5ab5 0a61 560a     Z..Z.!cZ..Z..aV.
    89f5:	5a40 095a a098 5ab0 295a b101 612c 005a     Z@.Z..Z.)Z..a,.Z
    8a05:	4180 5aa1 665a b132 5a45 005a a28a 5ab2     A.Z.fZ.2ZE.Z..Z.
    8a15:	325a b309 5aa5 6c5a b52d 6146 035a a137     2Z..Z.lZ.-aF.Z.7
    8a25:	614e 045a a10a 635a a1e0 5ab1 3163 5aa1     aN.Z..cZ..Z.1cZ.
    8a35:	bc5a b50d 635a a198 635a b111 5aa5 8a5a     .Z..cZ..cZ..Z..Z
    8a45:	b52a 6133 0b5a b50a 6156 0a5a 41a2 5aa1     .*a3.Z..aV.ZA.Z.
    8a55:	e65a b125 5ab2 125a 450c 5aa2 435a b232     .Z.%Z..ZE.Z.CZ.2
    8a65:	5ab3 295a a566 5ab5 2a63 5aa1 c15a b212     Z.)Z.fZ.*cZ..Z..
    8a75:	614e 045a a19d 635a a17c 635a a15d 635a     aN.Z..cZ.|cZ.]cZ
    8a85:	a18a 5ab1 225a b50a 635a a15a 5ab2 325a     ..Z."Z..cZ.ZZ.2Z
    8a95:	b309 5aa5 8a5a b52a 635a a12b 5ab2 1261     ..Z..Z.*cZ.+Z..a
    8aa5:	4f04 5aa1 fd5a b121 635a a1d4 5ab5 0a63     O.Z..Z.!cZ..Z..c
    8ab5:	5ab0 0963 635a 400d 5aa0 815a b029 5ab1     Z..ccZ@.Z..Z.)Z.
    8ac5:	015a 4180 5aa1 665a b132 5aa5 665a b52a     .ZA.Z.fZ.2Z.fZ.*
    8ad5:	6146 035a a137 614e 045a a10a 635a a1e0     aF.Z.7aN.Z..cZ..
    8ae5:	5ab1 3163 5aa1 bc63 5aa1 985a b50a 635a     Z.1cZ..cZ..Z..cZ
    8af5:	b111 5ab3 2961 2c00 5aa5 8a5a b52a 61eb     ..Z.)a,.Z..Z.*a.
    8b05:	115a b009 635a 400f 5aa0 665a b026 5a41     .Z..cZ@.Z.fZ.&ZA
    8b15:	a25a a1e6 5ab1 2561 2c00 5ab2 325a b309     .Z..Z.%a,.Z.2Z..
    8b25:	5ab3 295a b50a 5aa5 665a b52a 6122 045a     Z.)Z..Z.fZ.*a".Z
    8b35:	a1c1 5ab2 1263 5aa1 9d63 5aa1 7c63 5ab0     ..Z..cZ..cZ.|cZ.
    8b45:	065a a15d 635a a18a 5ab1 2263 5a40 0c5a     .Z.]cZ..Z."cZ@.Z
    8b55:	a08a 5ab0 265a a15a 5ab2 325a b309 612c     ..Z.&Z.ZZ.2Z..a,
    8b65:	005a b422 6123 045a a12b 5ab2 1263 5aa1     .Z."a#.Z.+Z..cZ.
    8b75:	fd5a b121 635a a1d4 635a b50a 6363 5ab1     .Z.!cZ..cZ..ccZ.
    8b85:	015a b329 5ab4 025a a58a 5ab5 2a61 c007     .Z.)Z..Z..Z.*a..
    8b95:	5ab7 125a b811 635a b006 635a b615 6363     Z..Z..cZ..cZ..cc
    8ba5:	5a40 0d5a b026 5ab2 325a b309 614f 045a     Z@.Z.&Z.2Z..aO.Z
    8bb5:	b212 610d 115a b006 612d 005a a022 5ab0     ..a..Z..a-.Z."Z.
    8bc5:	265a a1e6 5ab1 255a b232 5ab5 0a5a a522     &Z..Z.%Z.2Z..Z."
    8bd5:	5ab5 265a 530c 5aa6 985a b635 5aa7 8a5a     Z.&ZS.Z..Z.5Z..Z
    8be5:	b732 5a55 0a5a a822 5ab8 3261 2204 5aa1     .2ZU.Z."Z.2a".Z.
    8bf5:	c15a b212 612c 005a a78b 5aa8 2361 4603     .Z..a,.Z..Z.#aF.
    8c05:	5aa1 9d63 5aa1 7c63 5aa1 5d63 5aa1 8a5a     Z..cZ.|cZ.]cZ..Z
    8c15:	b122 635a a15a 5ab2 3261 4e04 5aa1 2b5a     ."cZ.ZZ.2aN.Z.+Z
    8c25:	b212 635a a1fd 5ab1 2163 5aa1 d463 635a     ..cZ..Z.!cZ..ccZ
    8c35:	b006 5ab5 0663 5ab1 015a b232 5ab3 295a     ..Z..cZ..Z.2Z.)Z
    8c45:	b52a 614f 045a b212 635a b50a 61c8 0d5a     .*aO.Z..cZ..a..Z
    8c55:	4011 5ac0 0c5a b026 5a41 805a a166 5ab1     @.Z..Z.&ZA.Z.fZ.
    8c65:	325a b309 5aa5 985a b52d 614e 045a a137     2Z..Z..Z.-aN.Z.7
    8c75:	635a a10a 635a a1e0 5ab1 3163 5aa1 bc63     cZ..cZ..Z.1cZ..c
    8c85:	5aa1 985a b50d 635a b111 5a41 a25a a1e6     Z..Z..cZ..ZA.Z..
    8c95:	5ab1 255a b232 5aa5 225a b526 614f 045a     Z.%Z.2Z."Z.&aO.Z
    8ca5:	a1c1 5ab2 1263 5aa1 9d63 5ab0 065a a17c     ..Z..cZ..cZ..Z.|
    8cb5:	635a a15d 6146 035a a18a 612c 005a b122     cZ.]aF.Z..a,.Z."
    8cc5:	6146 035a a15a 612c 005a b232 5ab3 295a     aF.Z.Za,.Z.2Z.)Z
    8cd5:	b506 5ab5 2a61 2204 5aa1 2b61 2c00 5ab2     ..Z.*a".Z.+a,.Z.
    8ce5:	1261 4603 5aa1 fd5a b121 612c 005a b50a     .aF.Z..Z.!a,.Z..
    8cf5:	6146 035a a1d4 6156 0a5a 4007 5ac0 085a     aF.Z..aV.Z@.Z..Z
    8d05:	a098 5ab0 295a b101 612c 005a 4180 5aa1     ..Z.)Z..a,.ZA.Z.
    8d15:	665a b132 5a45 005a a28a 5ab2 325a b309     fZ.2ZE.Z..Z.2Z..
    8d25:	5aa5 6c5a b52d 6123 045a a137 635a a10a     Z.lZ.-a#.Z.7cZ..
    8d35:	635a a1e0 5ab1 3163 5aa1 bc5a b50d 635a     cZ..Z.1cZ..Z..cZ
    8d45:	a198 635a b111 5aa5 985a b52d 61c0 075a     ..cZ..Z..Z.-a..Z
    8d55:	b50d 61c8 0d5a 41a2 5aa1 e65a b125 5ab2     ..a..ZA.Z..Z.%Z.
    8d65:	125a 450c 5aa2 435a b232 5ab3 295a b52d     .ZE.Z.CZ.2Z.)Z.-
    8d75:	614f 045a a1c1 5ab2 1263 5aa1 9d63 5aa1     aO.Z..Z..cZ..cZ.
    8d85:	7c5a b50d 635a b009 5aa1 5d63 5aa1 8a5a     |Z..cZ..Z.]cZ..Z
    8d95:	b122 635a 400a 5ac0 0a5a a081 5ab0 295a     ."cZ@.Z..Z..Z.)Z
    8da5:	a15a 5ab2 325a b309 5ab5 2d61 4e04 5aa1     .ZZ.2Z..Z.-aN.Z.
    8db5:	2b5a b212 635a a1fd 5ab1 215a b50d 635a     +Z..cZ..Z.!Z..cZ
    8dc5:	a1d4 6156 0a5a b101 5a41 805a a166 5ab1     ..aV.Z..ZA.Z.fZ.
    8dd5:	325a b52d 6123 045a a137 635a a10a 635a     2Z.-a#.Z.7cZ..cZ
    8de5:	b009 612c 005a a1e0 5ab1 3161 4603 5aa1     ..a,.Z..Z.1aF.Z.
    8df5:	bc61 2c00 5ab5 0d61 4603 5aa1 9863 5ab1     .a,.Z..aF.Z..cZ.
    8e05:	115a a166 612c 005a b132 5ab3 295a a522     .Z.fa,.Z.2Z.)Z."
    8e15:	5ab5 2a61 2204 5aa1 3763 5aa1 0a5a b50a     Z.*a".Z.7cZ..Z..
    8e25:	635a a1e0 5ab1 3163 5aa1 bc63 5aa1 9863     cZ..Z.1cZ..cZ..c
    8e35:	5ab1 115a 41a2 5aa1 e65a b125 5ab2 3261     Z..ZA.Z..Z.%Z.2a
    8e45:	2c00 5ab3 095a b329 5ab4 225a a56c 5ab5     ,.Z..Z.)Z."Z.lZ.
    8e55:	2d61 2304 5aa1 c15a b212 635a a19d 635a     -a#.Z..Z..cZ..cZ
    8e65:	a17c 5ab5 0d63 5aa1 5d63 5aa1 8a5a b122     .|Z..cZ.]cZ..Z."
    8e75:	635a a15a 5ab2 325a b309 5ab4 025a a522     cZ.ZZ.2Z..Z..Z."
    8e85:	5ab5 2a61 4e04 5aa1 2b5a b212 635a a1fd     Z.*aN.Z.+Z..cZ..
    8e95:	5ab1 215a b50a 635a a1d4 6156 0a5a b101     Z.!Z..cZ..aV.Z..
    8ea5:	5ab2 325a b422 5ab5 2a5a b615 5ab7 125a     Z.2Z."Z.*Z..Z..Z
    8eb5:	b812 614f 045a b212 6156 0a5a b50a 6363     ..aO.Z..aV.Z..cc
    8ec5:	5ab2 325a b329 5ab4 0261 4e04 5ab2 1261     Z.2Z.)Z..aN.Z..a
    8ed5:	eb11 5a40 0e5a a022 612c 005a b026 5aa1     ..Z@.Z."a,.Z.&Z.
    8ee5:	e65a b125 5ab2 325a b309 5ac5 015a ea00     .Z.%Z.2Z..Z..Z..
    8ef5:	5a4a 005a 6af8 5a8a b25a 2a0c 5a6d d65a     ZJ.Zj.Z..Z*.Zm.Z
    8f05:	8d44 5a2d 005a b532 612c 005a b635 5aa7     .DZ-.Z.2a,.Z.5Z.
    8f15:	8a5a b732 5aa8 225a b832 611a 035a a1c1     .Z.2Z."Z.2a..Z..
    8f25:	5ab2 1261 2c00 5aa7 8b5a a823 6146 035a     Z..a,.Z..Z.#aF.Z
    8f35:	a19d 635a a17c 635a a15d 635a a18a 5ab1     ..cZ.|cZ.]cZ..Z.
    8f45:	2261 4e04 5aa1 5a5a b232 5ab5 1263 5aa1     "aN.Z.ZZ.2Z..cZ.
    8f55:	2b5a b212 635a a1fd 5ab1 2163 5aa1 d463     +Z..cZ..Z.!cZ..c
    8f65:	5ab0 0661 c107 5ab1 015a b232 5a4b 055a     Z..a..Z..Z.2ZK.Z
    8f75:	b329 5aa5 665a b532 635a b212 6116 125a     .)Z.fZ.2cZ..a..Z
    8f85:	400f 5ab0 265a 4180 5aa1 665a b132 5ab3     @.Z.&ZA.Z.fZ.2Z.
    8f95:	095a b512 635a a137 635a a10a 635a a1e0     .Z..cZ.7cZ..cZ..
    8fa5:	5ab1 3163 5aa1 bc63 5aa1 9861 4f04 5ab1     Z.1cZ..cZ..aO.Z.
    8fb5:	115a 41a2 5aa1 e65a b125 5ab2 325a a58a     .ZA.Z..Z.%Z.2Z..
    8fc5:	5ab5 3263 5aa1 c15a b212 635a b006 5aa1     Z.2cZ..Z..cZ..Z.
    8fd5:	9d63 5aa1 7c63 5aa1 5d61 4603 5aa1 8a61     .cZ.|cZ.]aF.Z..a
    8fe5:	2c00 5ab1 2261 2204 5aa1 5a61 2c00 5ab2     ,.Z."a".Z.Za,.Z.
    8ff5:	325a b329 5ab5 1261 4603 5aa1 2b61 2c00     2Z.)Z..aF.Z.+a,.
    9005:	5ab2 1261 4603 5aa1 fd5a b121 635a a1d4     Z..aF.Z..Z.!cZ..
    9015:	6133 0b5a 400a 5aa0 985a b029 5ab1 0161     a3.Z@.Z..Z.)Z..a
    9025:	2c00 5a41 805a a166 5ab1 325a 4500 5aa2     ,.ZA.Z.fZ.2ZE.Z.
    9035:	8a5a b232 5ab3 095a a522 5ab5 3661 4603     .Z.2Z..Z."Z.6aF.
    9045:	5aa1 3763 5aa1 0a63 5aa1 e05a b131 635a     Z.7cZ..cZ..Z.1cZ
    9055:	a1bc 635a a198 614e 045a b111 5ab5 1661     ..cZ..aN.Z..Z..a
    9065:	8915 5a41 a25a a1e6 5ab1 255a b212 5a45     ..ZA.Z..Z.%Z..ZE
    9075:	0c5a a243 5ab2 325a b329 5aa5 815a b535     .Z.CZ.2Z.)Z..Z.5
    9085:	635a a1c1 5ab2 1263 5aa1 9d63 5aa1 7c63     cZ..Z..cZ..cZ.|c
    9095:	5aa1 5d63 5aa1 8a5a b122 614e 045a a15a     Z.]cZ..Z."aN.Z.Z
    90a5:	5ab2 325a b309 5ab5 1563 5aa1 2b5a b212     Z.2Z..Z..cZ.+Z..
    90b5:	635a a1fd 5ab1 2163 5ab0 095a a1d4 6133     cZ..Z.!cZ..Z..a3
    90c5:	0b5a 400e 5aa0 815a b029 5ab1 015a 4180     .Z@.Z..Z.)Z..ZA.
    90d5:	5aa1 665a b132 5aa5 8a5a b532 6145 035a     Z.fZ.2Z..Z.2aE.Z
    90e5:	a137 635a a10a 635a a1e0 5ab1 3163 5aa1     .7cZ..cZ..Z.1cZ.
    90f5:	bc63 5aa1 9861 4f04 5ab1 1161 2c00 5ab3     .cZ..aO.Z..a,.Z.
    9105:	295a b512 619c 0d5a b009 61c0 075a 4012     )Z..a..Z..a..Z@.
    9115:	5ac0 0c5a a066 5ab0 265a 41a2 5aa1 e65a     Z..Z.fZ.&ZA.Z..Z
    9125:	b125 612d 005a b232 5ab3 095a b329 5aa5     .%a-.Z.2Z..Z.)Z.
    9135:	985a b535 6145 035a a1c1 5ab2 1263 5aa1     .Z.5aE.Z..Z..cZ.
    9145:	9d63 5aa1 7c63 5ab0 065a a15d 635a a18a     .cZ.|cZ..Z.]cZ..
    9155:	5ab1 2261 4f04 5a40 0e5a c00a 5aa0 8a5a     Z."aO.Z@.Z..Z..Z
    9165:	b026 5aa1 5a5a b232 5ab3 0961 2c00 5ab4     .&Z.ZZ.2Z..a,.Z.
    9175:	225a b515 6146 035a a12b 5ab2 1263 5aa1     "Z..aF.Z.+Z..cZ.
    9185:	fd5a b121 635a a1d4 6132 0b5a b101 5ab3     .Z.!cZ..a2.Z..Z.
    9195:	295a b402 5aa5 e65a b535 6156 0a5a b006     )Z..Z..Z.5aV.Z..
    91a5:	6363 5ab6 155a b712 5ab8 1261 4f04 5ab0     ccZ..Z..Z..aO.Z.
    91b5:	265a b232 5ab3 095a b515 635a b212 6156     &Z.2Z..Z..cZ..aV
    91c5:	0a5a b006 6194 075a 4013 5ac0 0c61 2c00     .Z..a..Z@.Z..a,.
    91d5:	5aa0 225a b026 5aa1 e65a b125 5ab2 325a     Z."Z.&Z..Z.%Z.2Z
    91e5:	a522 5ab5 325a 530a 5ab6 355a a766 5ab7     ."Z.2ZS.Z.5Z.fZ.
    91f5:	325a a8e6 5ab8 3161 4603 5aa1 c161 2c00     2Z..Z.1aF.Z..a,.
    9205:	5ab2 125a a767 6146 035a a19d 635a a17c     Z..Z.gaF.Z..cZ.|
    9215:	635a a15d 635a a18a 5ab1 2261 4f04 5aa1     cZ.]cZ..Z."aO.Z.
    9225:	5a5a b232 5ab5 1263 5aa1 2b5a b212 635a     ZZ.2Z..cZ.+Z..cZ
    9235:	a1fd 5ab1 2163 5aa1 d461 320b 5ab0 065a     ..Z.!cZ..a2.Z..Z
    9245:	b101 5ab2 325a b329 5aa5 6661 2c00 5ab5     ..Z.2Z.)Z.fa,.Z.
    9255:	3261 4603 5ab2 1261 1712 5a40 115a b026     2aF.Z..a..Z@.Z.&
    9265:	5a41 805a a166 5ab1 325a b309 5ab5 1263     ZA.Z.fZ.2Z..Z..c
    9275:	5aa1 3763 5aa1 0a63 5aa1 e05a b131 635a     Z.7cZ..cZ..Z.1cZ
    9285:	a1bc 635a a198 614e 045a b111 5a41 a25a     ..cZ..aN.Z..ZA.Z
    9295:	a1e6 5ab1 255a b232 5aa5 8a5a b532 635a     ..Z.%Z.2Z..Z.2cZ
    92a5:	a1c1 5ab2 1263 5aa1 9d63 5aa1 7c63 5ab0     ..Z..cZ..cZ.|cZ.
    92b5:	065a a15d 635a a18a 5ab1 2261 2304 5aa1     .Z.]cZ..Z."a#.Z.
    92c5:	5a61 2c00 5ab2 325a b329 5ab5 1261 4603     Za,.Z.2Z.)Z..aF.
    92d5:	5aa1 2b61 2c00 5ab2 1261 4603 5aa1 fd5a     Z.+a,.Z..aF.Z..Z
    92e5:	b121 635a a1d4 6132 0b5a 400c 5ac0 0a5a     .!cZ..a2.Z@.Z..Z
    92f5:	a098 5ab0 2961 2c00 5ab1 015a 4180 5aa1     ..Z.)a,.Z..ZA.Z.
    9305:	665a b132 5a45 005a a28a 5ab2 325a b309     fZ.2ZE.Z..Z.2Z..
    9315:	5aa5 225a b536 6146 035a a137 635a a10a     Z."Z.6aF.Z.7cZ..
    9325:	635a a1e0 5ab1 3163 5aa1 bc61 4f04 5aa1     cZ..Z.1cZ..aO.Z.
    9335:	9863 5ab1 115a b516 6188 155a 41a2 5aa1     .cZ..Z..a..ZA.Z.
    9345:	e65a b125 5ab2 125a 450c 5aa2 435a b232     .Z.%Z..ZE.Z.CZ.2
    9355:	5ab3 295a a581 5ab5 3563 5aa1 c15a b212     Z.)Z..Z.5cZ..Z..
    9365:	635a a19d 635a a17c 635a a15d 614f 045a     cZ..cZ.|cZ.]aO.Z
    9375:	a18a 5ab1 2263 5aa1 5a5a b232 5ab3 095a     ..Z."cZ.ZZ.2Z..Z
    9385:	b515 635a a12b 5ab2 1263 5aa1 fd5a b121     ..cZ.+Z..cZ..Z.!
    9395:	635a a1d4 635a b009 61c0 075a a081 5ab0     cZ..cZ..a..Z..Z.
    93a5:	295a b101 5a41 805a a166 5ab1 325a a58a     )Z..ZA.Z.fZ.2Z..
    93b5:	5ab5 3263 5aa1 3761 4603 5aa1 0a63 5aa1     Z.2cZ.7aF.Z..cZ.
    93c5:	e05a b131 635a a1bc 614f 045a a198 635a     .Z.1cZ..aO.Z..cZ
    93d5:	b111 612c 005a b329 5ab5 1261 5c15 5ab0     ..a,.Z.)Z..a\.Z.
    93e5:	095a 4010 5ac0 0c5a a066 5ab0 265a 41a2     .Z@.Z..Z.fZ.&ZA.
    93f5:	5aa1 e661 2c00 5ab1 255a b232 5ab3 095a     Z..a,.Z.%Z.2Z..Z
    9405:	b329 5aa5 985a b535 6146 035a a1c1 5ab2     .)Z..Z.5aF.Z..Z.
    9415:	1263 5aa1 9d63 5aa1 7c63 5aa1 5d61 4f04     .cZ..cZ.|cZ.]aO.
    9425:	5ab0 065a a18a 5ab1 2263 5a40 0d5a c00a     Z..Z..Z."cZ@.Z..
    9435:	5aa0 8a5a b026 5aa1 5a5a b232 5ab3 0961     Z..Z.&Z.ZZ.2Z..a
    9445:	2c00 5ab4 225a b515 6146 035a a12b 5ab2     ,.Z."Z..aF.Z.+Z.
    9455:	1263 5aa1 fd5a b121 635a a1d4 6132 0b5a     .cZ..Z.!cZ..a2.Z
    9465:	b101 5ab3 295a b402 5aa5 e65a b535 6156     ..Z.)Z..Z..Z.5aV
    9475:	0a5a b006 61c1 075a b615 5ab8 1163 5ab0     .Z..a..Z..Z..cZ.
    9485:	265a b309 5ab5 155a b712 61c8 0d5a b006     &Z..Z..Z..a..Z..
    9495:	6194 075a 400e 612c 005a a022 5ab0 265a     a..Z@.a,.Z."Z.&Z
    94a5:	a1e6 5ab1 255a b232 5aa5 225a b532 5a53     ..Z.%Z.2Z."Z.2ZS
    94b5:	085a a66c 5ab6 355a a722 5ab7 325a 550b     .Z.lZ.5Z."Z.2ZU.
    94c5:	5aa8 cb5a b831 6146 035a a1c1 612c 005a     Z..Z.1aF.Z..a,.Z
    94d5:	b212 5aa7 2361 4603 5aa1 9d63 5aa1 7c63     ..Z.#aF.Z..cZ.|c
    94e5:	5aa1 5d61 4f04 5aa1 8a5a b122 635a a15a     Z.]aO.Z..Z."cZ.Z
    94f5:	5ab2 325a b512 635a a12b 5ab2 1263 5aa1     Z.2Z..cZ.+Z..cZ.
    9505:	fd5a b121 635a a1d4 635a b006 61c0 075a     .Z.!cZ..cZ..a..Z
    9515:	b101 5ab2 325a 4b06 5ab3 295a a566 5ab5     ..Z.2ZK.Z.)Z.fZ.
    9525:	3263 5ab2 1261 1712 5a40 0d5a b026 5a41     2cZ..a..Z@.Z.&ZA
    9535:	805a a166 5ab1 325a b309 5ab5 1263 5aa1     .Z.fZ.2Z..Z..cZ.
    9545:	3763 5aa1 0a63 5aa1 e05a b131 635a a1bc     7cZ..cZ..Z.1cZ..
    9555:	614e 045a a198 635a b111 5a41 a25a a1e6     aN.Z..cZ..ZA.Z..
    9565:	5ab1 255a b232 5aa5 8a5a b532 635a a1c1     Z.%Z.2Z..Z.2cZ..
    9575:	5ab2 1263 5aa1 9d63 5ab0 065a a17c 635a     Z..cZ..cZ..Z.|cZ
    9585:	a15d 614f 045a a18a 5ab1 2261 4503 5aa1     .]aO.Z..Z."aE.Z.
    9595:	5a61 2d00 5ab2 325a b329 5ab5 1261 4503     Za-.Z.2Z.)Z..aE.
    95a5:	5aa1 2b61 2d00 5ab2 1261 4503 5aa1 fd5a     Z.+a-.Z..aE.Z..Z
    95b5:	b121 635a a1d4 6133 0b5a 4009 5aa0 985a     .!cZ..a3.Z@.Z..Z
    95c5:	b029 612c 005a b101 5a41 805a a166 5ab1     .)a,.Z..ZA.Z.fZ.
    95d5:	325a 4500 5aa2 8a5a b232 5ab3 095a a522     2ZE.Z..Z.2Z..Z."
    95e5:	5ab5 3661 4603 5aa1 3763 5aa1 0a63 5aa1     Z.6aF.Z.7cZ..cZ.
    95f5:	e05a b131 635a a1bc 614e 045a a198 635a     .Z.1cZ..aN.Z..cZ
    9605:	b111 5ab5 1661 8915 5a41 a25a a1e6 5ab1     ..Z..a..ZA.Z..Z.
    9615:	255a b212 5a45 0c5a a243 5ab2 325a b329     %Z..ZE.Z.CZ.2Z.)
    9625:	5aa5 815a b535 635a a1c1 5ab2 1263 5aa1     Z..Z.5cZ..Z..cZ.
    9635:	9d63 5aa1 7c63 5aa1 5d61 4e04 5aa1 8a5a     .cZ.|cZ.]aN.Z..Z
    9645:	b122 635a a15a 5ab2 325a b309 5ab5 1563     ."cZ.ZZ.2Z..Z..c
    9655:	5aa1 2b5a b212 635a a1fd 5ab1 2163 5aa1     Z.+Z..cZ..Z.!cZ.
    9665:	d463 5ab0 0961 c107 5a40 0d5a a081 5ab0     .cZ..a..Z@.Z..Z.
    9675:	295a b101 5a41 805a a166 5ab1 325a a58a     )Z..ZA.Z.fZ.2Z..
    9685:	5ab5 3263 5aa1 3761 4603 5aa1 0a63 5aa1     Z.2cZ.7aF.Z..cZ.
    9695:	e05a b131 614e 045a a1bc 635a a198 635a     .Z.1aN.Z..cZ..cZ
    96a5:	b111 612c 005a b329 5ab5 1261 eb11 5ab0     ..a,.Z.)Z..a..Z.
    96b5:	0963 5a40 0f5a a066 5ab0 265a 41a2 5aa1     .cZ@.Z.fZ.&ZA.Z.
    96c5:	e65a b125 612c 005a b232 5ab3 095a b329     .Z.%a,.Z.2Z..Z.)
    96d5:	5aa5 985a b535 6146 035a a1c1 5ab2 1263     Z..Z.5aF.Z..Z..c
    96e5:	5aa1 9d63 5aa1 7c61 4e04 5ab0 065a a15d     Z..cZ.|aN.Z..Z.]
    96f5:	635a a18a 5ab1 2263 5a40 0c5a a08a 5ab0     cZ..Z."cZ@.Z..Z.
    9705:	265a a15a 5ab2 325a b309 612c 005a b422     &Z.ZZ.2Z..a,.Z."
    9715:	5ab5 1561 4603 5aa1 2b5a b212 635a a1fd     Z..aF.Z.+Z..cZ..
    9725:	5ab1 215a b712 5ab8 1163 5aa1 d461 4f04     Z.!Z..Z..cZ..aO.
    9735:	5ab6 1563 635a b101 5ab3 295a b402 5aa5     Z..ccZ..Z.)Z..Z.
    9745:	e65a b535 6156 0a5a b006 6132 0b5a 400d     .Z.5aV.Z..a2.Z@.
    9755:	5ab0 265a b232 5ab3 095a b515 635a b212     Z.&Z.2Z..Z..cZ..
    9765:	61eb 115a b006 612c 005a a022 5ab0 265a     a..Z..a,.Z."Z.&Z
    9775:	a1e6 5ab1 255a b232 5aa5 225a b532 5a53     ..Z.%Z.2Z."Z.2ZS
    9785:	095a a6e6 5ab6 355a a76c 5ab7 355a a822     .Z..Z.5Z.lZ.5Z."
    9795:	5ab8 3261 4603 5aa1 c161 2c00 5ab2 125a     Z.2aF.Z..a,.Z..Z
    97a5:	a823 6146 035a a19d 635a a17c 614e 045a     .#aF.Z..cZ.|aN.Z
    97b5:	a15d 635a a18a 5ab1 2263 5aa1 5a5a b232     .]cZ..Z."cZ.ZZ.2
    97c5:	612c 005a b512 6146 035a a12b 5ab2 1263     a,.Z..aF.Z.+Z..c
    97d5:	5aa1 fd5a b121 635a a1d4 61c1 075a b006     Z..Z.!cZ..a..Z..
    97e5:	635a b101 5ab2 325a b329 5aa5 665a b532     cZ..Z.2Z.)Z.fZ.2
    97f5:	635a b212 6116 125a 4011 5ac0 0c5a b026     cZ..a..Z@.Z..Z.&
    9805:	5a41 805a a166 5ab1 325a b309 5ab5 1263     ZA.Z.fZ.2Z..Z..c
    9815:	5aa1 3763 5aa1 0a63 5aa1 e05a b131 614f     Z.7cZ..cZ..Z.1aO
    9825:	045a a1bc 635a a198 635a b111 5a41 a25a     .Z..cZ..cZ..ZA.Z
    9835:	a1e6 5ab1 255a b232 5aa5 8a5a b532 635a     ..Z.%Z.2Z..Z.2cZ
    9845:	a1c1 5ab2 1263 5aa1 9d63 5ab0 065a a17c     ..Z..cZ..cZ..Z.|
    9855:	614e 045a a15d 635a a18a 5ab1 2263 5aa1     aN.Z.]cZ..Z."cZ.
    9865:	5a5a b232 5ab3 295a b512 6146 035a a12b     ZZ.2Z.)Z..aF.Z.+
    9875:	612c 005a b212 6146 035a a1fd 5ab1 2163     a,.Z..aF.Z..Z.!c
    9885:	5aa1 d461 330b 5a40 075a c008 5aa0 985a     Z..a3.Z@.Z..Z..Z
    9895:	b029 612c 005a b101 5a41 805a a166 5ab1     .)a,.Z..ZA.Z.fZ.
    98a5:	325a 4500 5aa2 8a5a b232 5ab3 095a a522     2ZE.Z..Z.2Z..Z."
    98b5:	5ab5 3661 4603 5aa1 3763 5aa1 0a63 5aa1     Z.6aF.Z.7cZ..cZ.
    98c5:	e05a b131 614e 045a a1bc 635a a198 635a     .Z.1aN.Z..cZ..cZ
    98d5:	b111 5ab5 1661 8915 5a41 a25a a1e6 5ab1     ..Z..a..ZA.Z..Z.
    98e5:	255a b212 5a45 0c5a a243 5ab2 325a b329     %Z..ZE.Z.CZ.2Z.)
    98f5:	5aa5 815a b535 635a a1c1 5ab2 1263 5aa1     Z..Z.5cZ..Z..cZ.
    9905:	9d63 5aa1 7c61 4e04 5ab0 095a a15d 635a     .cZ.|aN.Z..Z.]cZ
    9915:	a18a 5ab1 2263 5a40 0a5a c00a 5aa0 815a     ..Z."cZ@.Z..Z..Z
    9925:	b029 5aa1 5a5a b232 5ab3 095a b515 635a     .)Z.ZZ.2Z..Z..cZ
    9935:	a12b 5ab2 1263 5aa1 fd5a b121 635a a1d4     .+Z..cZ..Z.!cZ..
    9945:	6133 0b5a b101 5a41 805a a166 5ab1 325a     a3.Z..ZA.Z.fZ.2Z
    9955:	a58a 5ab5 3263 5aa1 3763 5aa1 0a63 5ab0     ..Z.2cZ.7cZ..cZ.
    9965:	095a a1e0 5ab1 3161 2204 5aa1 bc63 5aa1     .Z..Z.1a".Z..cZ.
    9975:	9863 5ab1 1161 2c00 5aa1 665a b132 5ab3     .cZ..a,.Z.fZ.2Z.
    9985:	295a b512 5ab6 155a b715 5ab8 1261 4603     )Z..Z..Z..Z..aF.
    9995:	5aa1 3763 5aa1 0a63 5aa1 e05a b131 614f     Z.7cZ..cZ..Z.1aO
    99a5:	045a a1bc 635a a198 635a b111 5a41 a25a     .Z..cZ..cZ..ZA.Z
    99b5:	a1e6 5ab1 255a b232 612c 005a b309 5ab3     ..Z.%Z.2a,.Z..Z.
    99c5:	295a b422 5aa5 665a b536 5a53 0c5a a6cb     )Z."Z.fZ.6ZS.Z..
    99d5:	5ab6 355a 540d 5ab7 355a 550d 5aa8 225a     Z.5ZT.Z.5ZU.Z."Z
    99e5:	b832 6146 035a a1c1 5ab2 125a a823 635a     .2aF.Z..Z..Z.#cZ
    99f5:	a19d 635a a17c 614e 045a a15d 635a a18a     ..cZ.|aN.Z.]cZ..
    9a05:	5ab1 2263 5aa1 5a5a b232 5ab3 095a b402     Z."cZ.ZZ.2Z..Z..
    9a15:	5ab5 1663 5aa1 2b5a b212 635a a1fd 5ab1     Z..cZ.+Z..cZ..Z.
    9a25:	2163 5aa1 d461 330b 5ab1 015a b232 5ab4     !cZ..a3.Z..Z.2Z.
    9a35:	225a a522 5ab5 3663 5ab2 1261 1612 5ab2     "Z."Z.6cZ..a..Z.
    9a45:	325a b329 5ab4 025a b516 635a b212 61ea     2Z.)Z..Z..cZ..a.
    9a55:	115a 400e 612d 005a a022 5ab0 265a a1e6     .Z@.a-.Z."Z.&Z..
    9a65:	5ab1 255a b232 5ab3 095a b532 5a53 0a5a     Z.%Z.2Z..Z.2ZS.Z
    9a75:	a600 5ab6 005a a698 5ab6 355a 540b 5aa7     ..Z..Z..Z.5ZT.Z.
    9a85:	005a b700 5aa7 8a5a b732 612c 005a b812     .Z..Z..Z.2a,.Z..
    9a95:	5a55 0b5a a822 5ab8 3261 1903 5aa1 c161     ZU.Z."Z.2a..Z..a
    9aa5:	2d00 5ab2 125a a823 6145 035a a19d 5aa7     -.Z..Z.#aE.Z..Z.
    9ab5:	8b61 4f04 5aa1 7c63 5aa1 5d63 5aa1 8a5a     .aO.Z.|cZ.]cZ..Z
    9ac5:	b122 635a a15a 5ab2 3261 2c00 5ab5 1261     ."cZ.ZZ.2a,.Z..a
    9ad5:	4603 5aa1 2b5a b212 635a a1fd 5ab1 2161     F.Z.+Z..cZ..Z.!a
    9ae5:	4e04 5aa1 d463 5ab0 0663 635a b101 5ab2     N.Z..cZ..ccZ..Z.
    9af5:	325a 4b05 5ab3 295a a566 5ab5 3263 5ab2     2ZK.Z.)Z.fZ.2cZ.
    9b05:	1261 1712 5a40 0f5a b026 5a41 805a a166     .a..Z@.Z.&ZA.Z.f
    9b15:	5ab1 325a b309 5ab5 1263 5aa1 3763 5aa1     Z.2Z..Z..cZ.7cZ.
    9b25:	0a61 4e04 5aa1 e05a b131 635a a1bc 635a     .aN.Z..Z.1cZ..cZ
    9b35:	a198 635a b111 5a41 a25a a1e6 5ab1 255a     ..cZ..ZA.Z..Z.%Z
    9b45:	b232 5aa5 8a5a b532 5ab8 1263 5aa1 c15a     .2Z..Z.2Z..cZ..Z
    9b55:	b212 635a b006 5aa1 9d61 4f04 5aa1 7c63     ..cZ..Z..aO.Z.|c
    9b65:	5aa1 5d63 5aa1 8a5a b122 635a a15a 5ab2     Z.]cZ..Z."cZ.ZZ.
    9b75:	325a b329 5ab5 1261 4603 5aa1 2b61 2c00     2Z.)Z..aF.Z.+a,.
    9b85:	5ab2 1261 4603 5aa1 fd5a b121 614e 045a     Z..aF.Z..Z.!aN.Z
    9b95:	a1d4 6156 0a5a 400a 5aa0 985a b029 612c     ..aV.Z@.Z..Z.)a,
    9ba5:	005a b101 5a41 805a a166 5ab1 325a 4500     .Z..ZA.Z.fZ.2ZE.
    9bb5:	5aa2 8a5a b232 5ab3 095a a522 5ab5 3661     Z..Z.2Z..Z."Z.6a
    9bc5:	4603 5aa1 3763 5aa1 0a61 4f04 5aa1 e05a     F.Z.7cZ..aO.Z..Z
    9bd5:	b131 635a a1bc 635a a198 635a b111 5ab5     .1cZ..cZ..cZ..Z.
    9be5:	1661 8815 5a41 a25a a1e6 5ab1 255a b212     .a..ZA.Z..Z.%Z..
    9bf5:	5a45 0c5a a243 5ab2 325a b329 5aa5 8161     ZE.Z.CZ.2Z.)Z..a
    9c05:	2c00 5ab5 3561 4603 5aa1 c15a b212 635a     ,.Z.5aF.Z..Z..cZ
    9c15:	a19d 614f 045a a17c 635a a15d 635a a18a     ..aO.Z.|cZ.]cZ..
    9c25:	5ab1 2263 5aa1 5a5a b232 5ab3 095a b515     Z."cZ.ZZ.2Z..Z..
    9c35:	635a a12b 5ab2 1263 5aa1 fd5a b121 614e     cZ.+Z..cZ..Z.!aN
    9c45:	045a b009 5aa1 d461 560a 5a40 0e5a a081     .Z..Z..aV.Z@.Z..
    9c55:	5ab0 295a b101 5a41 805a a166 5ab1 325a     Z.)Z..ZA.Z.fZ.2Z
    9c65:	a58a 5ab5 3263 5aa1 3763 5aa1 0a61 2304     ..Z.2cZ.7cZ..a#.
    9c75:	5aa1 e061 2c00 5ab1 3161 4603 5aa1 bc63     Z..a,.Z.1aF.Z..c
    9c85:	5aa1 9863 5ab1 1161 2c00 5ab3 295a b512     Z..cZ..a,.Z.)Z..
    9c95:	6178 0e5a b009 6363 5a40 125a c00c 5aa0     ax.Z..ccZ@.Z..Z.
    9ca5:	665a b026 5a41 a25a a1e6 5ab1 2561 2c00     fZ.&ZA.Z..Z.%a,.
    9cb5:	5ab2 325a b309 5ab3 295a a598 5ab5 3561     Z.2Z..Z.)Z..Z.5a
    9cc5:	4603 5aa1 c15a b212 635a a19d 614f 045a     F.Z..Z..cZ..aO.Z
    9cd5:	a17c 635a b006 5aa1 5d63 5aa1 8a5a b122     .|cZ..Z.]cZ..Z."
    9ce5:	635a 400e 5ac0 0a5a a08a 5ab0 265a a15a     cZ@.Z..Z..Z.&Z.Z
    9cf5:	5ab2 325a b309 612c 005a b515 6146 035a     Z.2Z..a,.Z..aF.Z
    9d05:	a12b 5ab2 1263 5aa1 fd5a b121 614e 045a     .+Z..cZ..Z.!aN.Z
    9d15:	a1d4 6156 0a5a b101 5ab3 295a a5e6 5ab5     ..aV.Z..Z.)Z..Z.
    9d25:	3561 330b 5ab0 0661 560a 5ab0 265a b232     5a3.Z..aV.Z.&Z.2
    9d35:	5ab3 095a b515 5ab6 155a b712 635a b212     Z..Z..Z..Z..cZ..
    9d45:	6132 0b5a b006 61b8 065a 4013 612c 005a     a2.Z..a..Z@.a,.Z
    9d55:	c00c 5aa0 225a b026 5aa1 e65a b125 5ab2     ..Z."Z.&Z..Z.%Z.
    9d65:	325a a522 5ab5 325a 5309 5ab6 355a a766     2Z."Z.2ZS.Z.5Z.f
    9d75:	5ab7 325a 550a 5aa8 e65a b831 6146 035a     Z.2ZU.Z..Z.1aF.Z
    9d85:	a1c1 612c 005a b212 5aa7 6761 4603 5aa1     ..a,.Z..Z.gaF.Z.
    9d95:	9d61 4f04 5aa1 7c63 5aa1 5d63 5aa1 8a5a     .aO.Z.|cZ.]cZ..Z
    9da5:	b122 635a a15a 5ab2 3261 2c00 5ab5 1261     ."cZ.ZZ.2a,.Z..a
    9db5:	4603 5aa1 2b5a b212 635a a1fd 5ab1 2161     F.Z.+Z..cZ..Z.!a
    9dc5:	4e04 5aa1 d461 560a 5ab0 065a b101 5ab2     N.Z..aV.Z..Z..Z.
    9dd5:	325a b329 612c 005a a566 5ab5 3261 4603     2Z.)a,.Z.fZ.2aF.
    9de5:	5ab2 1261 1712 5a40 115a b026 5a41 805a     Z..a..Z@.Z.&ZA.Z
    9df5:	a166 5ab1 325a b309 5ab5 1263 5aa1 3763     .fZ.2Z..Z..cZ.7c
    9e05:	5aa1 0a61 4e04 5aa1 e05a b131 635a a1bc     Z..aN.Z..Z.1cZ..
    9e15:	635a a198 635a b111 5a41 a25a a1e6 5ab1     cZ..cZ..ZA.Z..Z.
    9e25:	255a b232 5aa5 8a5a b532 635a a1c1 5ab2     %Z.2Z..Z.2cZ..Z.
    9e35:	1263 5aa1 9d61 4f04 5aa1 7c63 5ab0 065a     .cZ..aO.Z.|cZ..Z
    9e45:	a15d 635a a18a 5ab1 2263 5aa1 5a5a b232     .]cZ..Z."cZ.ZZ.2
    9e55:	5ab3 295a b512 6146 035a a12b 612c 005a     Z.)Z..aF.Z.+a,.Z
    9e65:	b212 6122 045a a1fd 5ab1 2163 5aa1 d461     ..a".Z..Z.!cZ..a
    9e75:	560a 5a40 0c5a c00a 5aa0 985a b029 612c     V.Z@.Z..Z..Z.)a,
    9e85:	005a b101 5a41 805a a166 5ab1 325a 4500     .Z..ZA.Z.fZ.2ZE.
    9e95:	5aa2 8a5a b232 5ab3 095a a522 5ab5 3661     Z..Z.2Z..Z."Z.6a
    9ea5:	4603 5aa1 3761 4f04 5aa1 0a63 5aa1 e05a     F.Z.7aO.Z..cZ..Z
    9eb5:	b131 635a a1bc 635a a198 635a b111 5ab5     .1cZ..cZ..cZ..Z.
    9ec5:	1661 8815 5a41 a25a a1e6 5ab1 255a b212     .a..ZA.Z..Z.%Z..
    9ed5:	5a45 0c5a a243 5ab2 325a b329 5aa5 8161     ZE.Z.CZ.2Z.)Z..a
    9ee5:	2c00 5ab5 3561 4603 5aa1 c15a b212 614f     ,.Z.5aF.Z..Z..aO
    9ef5:	045a a19d 635a a17c 635a a15d 635a a18a     .Z..cZ.|cZ.]cZ..
    9f05:	5ab1 2263 5aa1 5a5a b232 5ab3 095a b515     Z."cZ.ZZ.2Z..Z..
    9f15:	635a a12b 5ab2 1261 4e04 5aa1 fd5a b121     cZ.+Z..aN.Z..Z.!
    9f25:	635a a1d4 635a b009 6363 5aa0 815a b029     cZ..cZ..ccZ..Z.)
    9f35:	5ab1 015a 4180 5aa1 665a b132 5aa5 8a5a     Z..ZA.Z.fZ.2Z..Z
    9f45:	b532 635a a137 614f 045a a10a 6145 035a     .2cZ.7aO.Z..aE.Z
    9f55:	a1e0 612d 005a b131 6145 035a a1bc 635a     ..a-.Z.1aE.Z..cZ
    9f65:	a198 635a b111 612d 005a b329 5ab5 1261     ..cZ..a-.Z.)Z..a
    9f75:	5c15 5ab0 095a 4010 5ac0 0c5a a066 5ab0     \.Z..Z@.Z..Z.fZ.
    9f85:	265a 41a2 5aa1 e661 2c00 5ab1 255a b232     &ZA.Z..a,.Z.%Z.2
    9f95:	5ab3 095a b329 5aa5 985a b535 6146 035a     Z..Z.)Z..Z.5aF.Z
    9fa5:	a1c1 5ab2 1261 4e04 5aa1 9d63 5aa1 7c63     ..Z..aN.Z..cZ.|c
    9fb5:	5aa1 5d63 5ab0 065a a18a 5ab1 2263 5a40     Z.]cZ..Z..Z."cZ@
    9fc5:	0d5a c00a 5aa0 8a5a b026 5aa1 5a5a b232     .Z..Z..Z.&Z.ZZ.2
    9fd5:	5ab3 0961 2d00 5ab5 1561 4503 5aa1 2b5a     Z..a-.Z..aE.Z.+Z
    9fe5:	b212 614f 045a a1fd 5ab1 2163 5aa1 d461     ..aO.Z..Z.!cZ..a
    9ff5:	560a 5ab1 015a b329 5aa5 e65a b535 6132     V.Z..Z.)Z..Z.5a2
    a005:	0b5a b006 6363 5ab8 1163 5ab0 265a b309     .Z..ccZ..cZ.&Z..
    a015:	5ab5 155a b615 635a b712 6133 0b5a b006     Z..Z..cZ..a3.Z..
    a025:	61b8 065a 400e 612c 005a a022 5ab0 265a     a..Z@.a,.Z."Z.&Z
    a035:	a1e6 5ab1 255a b232 5aa5 225a b532 5a53     ..Z.%Z.2Z."Z.2ZS
    a045:	0a5a a66c 5ab6 355a 540a 5aa7 225a b732     .Z.lZ.5ZT.Z."Z.2
    a055:	5a55 0c5a a8cb 5ab8 3161 4603 5aa1 c161     ZU.Z..Z.1aF.Z..a
    a065:	2c00 5ab2 125a a723 6122 045a a19d 635a     ,.Z..Z.#a".Z..cZ
    a075:	a17c 635a a15d 635a a18a 5ab1 2263 5aa1     .|cZ.]cZ..Z."cZ.
    a085:	5a5a b232 612c 005a b512 6146 035a a12b     ZZ.2a,.Z..aF.Z.+
    a095:	5ab2 1261 4f04 5aa1 fd5a b121 635a a1d4     Z..aO.Z..Z.!cZ..
    a0a5:	635a b006 6363 5ab1 015a b232 5a4b 065a     cZ..ccZ..Z.2ZK.Z
    a0b5:	b329 5aa5 665a b532 635a b212 6116 125a     .)Z.fZ.2cZ..a..Z
    a0c5:	400d 5ab0 265a 4180 5aa1 665a b132 5ab3     @.Z.&ZA.Z.fZ.2Z.
    a0d5:	095a b512 635a a137 614f 045a a10a 635a     .Z..cZ.7aO.Z..cZ
    a0e5:	a1e0 5ab1 3163 5aa1 bc63 5aa1 9863 5ab1     ..Z.1cZ..cZ..cZ.
    a0f5:	115a 41a2 5aa1 e65a b125 5ab2 325a a58a     .ZA.Z..Z.%Z.2Z..
    a105:	5ab5 3263 5aa1 c15a b212 614e 045a a19d     Z.2cZ..Z..aN.Z..
    a115:	635a b006 5aa1 7c63 5aa1 5d63 5aa1 8a5a     cZ..Z.|cZ.]cZ..Z
    a125:	b122 635a a15a 5ab2 325a b329 5ab5 1263     ."cZ.ZZ.2Z.)Z..c
    a135:	5aa1 2b5a b212 6123 045a a1fd 612c 005a     Z.+Z..a#.Z..a,.Z
    a145:	b121 6146 035a a1d4 6156 0a5a 4009 5aa0     .!aF.Z..aV.Z@.Z.
    a155:	985a b029 612c 005a b101 5a41 805a a166     .Z.)a,.Z..ZA.Z.f
    a165:	5ab1 325a 4500 5aa2 8a5a b232 5ab3 095a     Z.2ZE.Z..Z.2Z..Z
    a175:	a522 5ab5 3661 4603 5aa1 3761 4e04 5aa1     ."Z.6aF.Z.7aN.Z.
    a185:	0a63 5aa1 e05a b131 635a a1bc 635a a198     .cZ..Z.1cZ..cZ..
    a195:	635a b111 5ab5 1661 8915 5a41 a25a a1e6     cZ..Z..a..ZA.Z..
    a1a5:	5ab1 255a b212 5a45 0c5a a243 5ab2 325a     Z.%Z..ZE.Z.CZ.2Z
    a1b5:	b329 5aa5 815a b535 635a a1c1 5ab2 1261     .)Z..Z.5cZ..Z..a
    a1c5:	4e04 5aa1 9d63 5aa1 7c63 5aa1 5d63 5aa1     N.Z..cZ.|cZ.]cZ.
    a1d5:	8a5a b122 635a a15a 5ab2 325a b309 5ab5     .Z."cZ.ZZ.2Z..Z.
    a1e5:	1563 5aa1 2b5a b212 614f 045a a1fd 5ab1     .cZ.+Z..aO.Z..Z.
    a1f5:	2163 5aa1 d463 5ab0 0963 635a 400d 5aa0     !cZ..cZ..ccZ@.Z.
    a205:	815a b029 5ab1 015a 4180 5aa1 665a b132     .Z.)Z..ZA.Z.fZ.2
    a215:	5aa5 8a5a b532 635a a137 614e 045a a10a     Z..Z.2cZ.7aN.Z..
    a225:	635a a1e0 5ab1 3161 4603 5aa1 bc63 5aa1     cZ..Z.1aF.Z..cZ.
    a235:	9863 5ab1 1161 2c00 5ab3 295a b512 61eb     .cZ..a,.Z.)Z..a.
    a245:	115a b009 635a 400f 5aa0 665a b026 5a41     .Z..cZ@.Z.fZ.&ZA
    a255:	a25a a1e6 5ab1 2561 2c00 5ab2 325a b309     .Z..Z.%a,.Z.2Z..
    a265:	5ab3 295a a598 5ab5 3561 2204 5aa1 c15a     Z.)Z..Z.5a".Z..Z
    a275:	b212 635a a19d 635a a17c 635a b006 5aa1     ..cZ..cZ.|cZ..Z.
    a285:	5d63 5aa1 8a5a b122 635a 400c 5aa0 8a5a     ]cZ..Z."cZ@.Z..Z
    a295:	b026 5aa1 5a5a b232 5ab3 0961 2c00 5ab5     .&Z.ZZ.2Z..a,.Z.
    a2a5:	1561 2304 5aa1 2b5a b212 635a a1fd 5ab1     .a#.Z.+Z..cZ..Z.
    a2b5:	2163 5aa1 d461 560a 5ab1 015a b329 5aa5     !cZ..aV.Z..Z.)Z.
    a2c5:	e65a b535 61c0 075a b712 5ab8 1163 5ab0     .Z.5a..Z..Z..cZ.
    a2d5:	0663 5ab6 1563 635a 400d 5ab0 265a b232     .cZ..ccZ@.Z.&Z.2
    a2e5:	5ab3 095a b515 614f 045a b212 613a 115a     Z..Z..aO.Z..a:.Z
    a2f5:	b006 5aa0 225a b026 5aa1 e65a b125 5ab2     ..Z."Z.&Z..Z.%Z.
    a305:	325a a522 5ab5 325a 530c 5aa6 985a b635     2Z."Z.2ZS.Z..Z.5
    a315:	5aa7 8a5a b732 6122 045a a1c1 612c 005a     Z..Z.2a".Z..a,.Z
    a325:	b212 5aa7 8b61 4603 5aa1 9d63 5aa1 7c63     ..Z..aF.Z..cZ.|c
    a335:	5aa1 5d63 5aa1 8a5a b122 635a a15a 5ab2     Z.]cZ..Z."cZ.ZZ.
    a345:	3261 2c00 5ab5 1261 2304 5aa1 2b5a b212     2a,.Z..a#.Z.+Z..
    a355:	635a a1fd 5ab1 2163 5aa1 d463 635a b006     cZ..Z.!cZ..ccZ..
    a365:	635a b101 5ab2 325a b329 5aa5 6661 2c00     cZ..Z.2Z.)Z.fa,.
    a375:	5ab5 3261 2204 5ab2 1261 3a11 5a40 115a     Z.2a".Z..a:.Z@.Z
    a385:	c00c 5ab0 265a 4180 5aa1 665a b132 5ab3     ..Z.&ZA.Z.fZ.2Z.
    a395:	095a b512 614f 045a a137 635a a10a 635a     .Z..aO.Z.7cZ..cZ
    a3a5:	a1e0 5ab1 3163 5aa1 bc63 5aa1 9863 5ab1     ..Z.1cZ..cZ..cZ.
    a3b5:	115a 41a2 5aa1 e65a b125 5ab2 325a a58a     .ZA.Z..Z.%Z.2Z..
    a3c5:	5ab5 3261 4e04 5aa1 c15a b212 635a a19d     Z.2aN.Z..Z..cZ..
    a3d5:	635a b006 5aa1 7c63 5aa1 5d63 5aa1 8a5a     cZ..Z.|cZ.]cZ..Z
    a3e5:	b122 635a a15a 5ab2 325a b329 5ab5 1261     ."cZ.ZZ.2Z.)Z..a
    a3f5:	4f04 5aa1 2b5a b212 6145 035a a1fd 612d     O.Z.+Z..aE.Z..a-
    a405:	005a b121 6145 035a a1d4 6156 0a5a 4007     .Z.!aE.Z..aV.Z@.
    a415:	5ac0 085a a098 5ab0 2961 2d00 5ab1 015a     Z..Z..Z.)a-.Z..Z
    a425:	4180 5aa1 665a b132 5a45 005a a28a 5ab2     A.Z.fZ.2ZE.Z..Z.
    a435:	325a b309 5aa5 225a b536 6122 045a a137     2Z..Z."Z.6a".Z.7
    a445:	635a a10a 635a a1e0 5ab1 3163 5aa1 bc63     cZ..cZ..Z.1cZ..c
    a455:	5aa1 9863 5ab1 115a b516 6188 155a 41a2     Z..cZ..Z..a..ZA.
    a465:	5aa1 e65a b125 5ab2 125a 450c 5aa2 435a     Z..Z.%Z..ZE.Z.CZ
    a475:	b232 5ab3 2961 2d00 5aa5 815a b535 6122     .2Z.)a-.Z..Z.5a"
    a485:	045a a1c1 5ab2 1263 5aa1 9d63 5aa1 7c63     .Z..Z..cZ..cZ.|c
    a495:	5ab0 095a a15d 635a a18a 5ab1 2263 5a40     Z..Z.]cZ..Z."cZ@
    a4a5:	0a5a c00a 5aa0 815a b029 5aa1 5a5a b232     .Z..Z..Z.)Z.ZZ.2
    a4b5:	5ab3 095a b515 614e 045a a12b 5ab2 1263     Z..Z..aN.Z.+Z..c
    a4c5:	5aa1 fd5a b121 635a a1d4 6156 0a5a b101     Z..Z.!cZ..aV.Z..
    a4d5:	5a41 805a a166 5ab1 325a a58a 5ab5 3261     ZA.Z.fZ.2Z..Z.2a
    a4e5:	4f04 5aa1 3763 5aa1 0a63 5ab0 095a a1e0     O.Z.7cZ..cZ..Z..
    a4f5:	5ab1 3161 4603 5aa1 bc63 5aa1 9863 5ab1     Z.1aF.Z..cZ..cZ.
    a505:	1161 2c00 5aa1 665a b132 5ab3 295a b512     .a,.Z.fZ.2Z.)Z..
    a515:	6122 045a a137 635a a10a 635a a1e0 5ab1     a".Z.7cZ..cZ..Z.
    a525:	3163 5aa1 bc63 5aa1 9863 5ab1 115a 41a2     1cZ..cZ..cZ..ZA.
    a535:	5aa1 e65a b125 612c 005a b232 5ab3 095a     Z..Z.%a,.Z.2Z..Z
    a545:	b329 5aa5 665a b536 6123 045a a1c1 5ab2     .)Z.fZ.6a#.Z..Z.
    a555:	1263 5aa1 9d63 5aa1 7c63 5aa1 5d63 5aa1     .cZ..cZ.|cZ.]cZ.
    a565:	8a5a b122 635a a15a 5ab2 325a b309 5ab5     .Z."cZ.ZZ.2Z..Z.
    a575:	1661 4e04 5aa1 2b5a b212 635a a1fd 5ab1     .aN.Z.+Z..cZ..Z.
    a585:	2163 5aa1 d461 560a 5ab1 015a b232 5aa5     !cZ..aV.Z..Z.2Z.
    a595:	225a b536 5ab6 155a b712 614f 045a b212     "Z.6Z..Z..aO.Z..
    a5a5:	613a 115a b232 5ab3 295a b516 614e 045a     a:.Z.2Z.)Z..aN.Z
    a5b5:	b212 61eb 115a 400e 612c 005a a022 5ab0     ..a..Z@.a,.Z."Z.
    a5c5:	265a b309 5ac5 0e5a ea02 5a6a 835a 8a08     &Z..Z..Z..Zj.Z..
    a5d5:	5a2a d45a ed02 5a6d 785a 8da7 5a2d c25a     Z*.Z..ZmxZ..Z-.Z
    a5e5:	4a03 5aa5 665a b52e 615c 155a b50e 5a4a     J.Z.fZ..a\.Z..ZJ
    a5f5:	075a a58a 5ab5 2e61 c80d 5ab0 0661 c107     .Z..Z..a..Z..a..
    a605:	5ab5 0e5a 4a03 5aa5 985a b535 6188 155a     Z..ZJ.Z..Z.5a..Z
    a615:	400f 5ab0 265a b515 5a4a 065a a581 5ab5     @.Z.&Z..ZJ.Z..Z.
    a625:	3561 8915 5ab5 155a a58a 5ab5 3263 635a     5a..Z..Z..Z.2ccZ
    a635:	b006 61a4 0e5a b512 5a4a 075a a522 5ab5     ..a..Z..ZJ.Z."Z.
    a645:	3261 5d15 5a40 0a5a a098 5ab0 2961 2c00     2a].Z@.Z..Z.)a,.
    a655:	5ab5 125a 4a05 5aa5 985a b531 615c 155a     Z..ZJ.Z..Z.1a\.Z
    a665:	b511 5a4a 075a a58a 5ab5 3261 8915 5ab5     ..ZJ.Z..Z.2a..Z.
    a675:	125a 4a06 5aa5 815a b531 6188 155a b511     .ZJ.Z..Z.1a..Z..
    a685:	5a4a 085a a5cb 5ab5 3161 560a 5ab0 0961     ZJ.Z..Z.1aV.Z..a
    a695:	330b 5a40 0e5a a081 5ab0 295a b511 5a4a     3.Z@.Z..Z.)Z..ZJ
    a6a5:	065a a522 5ab5 3261 5c15 5ab5 1261 2c00     .Z."Z.2a\.Z..a,.
    a6b5:	5a4a 035a a566 5ab5 3261 9c0d 5ab0 0961     ZJ.Z.fZ.2a..Z..a
    a6c5:	c107 5a40 125a c00c 5aa0 665a b026 5ab5     ..Z@.Z..Z.fZ.&Z.
    a6d5:	1261 2c00 5a4a 075a a5cb 5ab5 3161 9c0d     .a,.ZJ.Z..Z.1a..
    a6e5:	5ab0 0661 c007 5a40 0e5a c00a 5aa0 8a5a     Z..a..Z@.Z..Z..Z
    a6f5:	b026 5ab5 115a a58a 5ab5 2e61 8915 5ab5     .&Z..Z..Z..a..Z.
    a705:	0e5a 4a04 5aa5 225a b532 6156 0a5a b006     .ZJ.Z."Z.2aV.Z..
    a715:	6132 0b5a b026 5ab5 125a 4a06 5aa5 985a     a2.Z.&Z..ZJ.Z..Z
    a725:	b531 61c8 0d5a b006 61c1 075a 4013 5ac0     .1a..Z..a..Z@.Z.
    a735:	0c5a a022 5ab0 265a b511 5a4a 035a a566     .Z."Z.&Z..ZJ.Z.f
    a745:	5ab5 2e61 5c15 5ab5 0e5a 4a07 5aa5 8a5a     Z..a\.Z..ZJ.Z..Z
    a755:	b52e 6188 155a b006 5ab5 0e5a 4a03 5aa5     ..a..Z..Z..ZJ.Z.
    a765:	985a b535 6189 155a 4011 5ab0 265a b515     .Z.5a..Z@.Z.&Z..
    a775:	5a4a 065a a581 5ab5 3561 8815 5ab5 155a     ZJ.Z..Z.5a..Z..Z
    a785:	a58a 5ab5 3261 c80d 5ab0 0661 c107 5ab5     ..Z.2a..Z..a..Z.
    a795:	125a 4a07 5aa5 225a b532 615c 155a 400c     .ZJ.Z."Z.2a\.Z@.
    a7a5:	5ac0 0a5a a098 612c 005a b029 5ab5 125a     Z..Z..a,.Z.)Z..Z
    a7b5:	4a05 5aa5 985a b531 615d 155a b511 5a4a     J.Z..Z.1a].Z..ZJ
    a7c5:	075a a58a 5ab5 3261 8815 5ab5 125a 4a06     .Z..Z.2a..Z..ZJ.
    a7d5:	5aa5 815a b531 6189 155a b511 5a4a 085a     Z..Z.1a..Z..ZJ.Z
    a7e5:	a5cb 5ab5 3161 c80d 5ab0 0961 c007 5aa0     ..Z.1a..Z..a..Z.
    a7f5:	815a b029 5ab5 115a 4a06 5aa5 225a b532     .Z.)Z..ZJ.Z."Z.2
    a805:	615d 155a b512 612c 005a 4a03 5aa5 665a     a].Z..a,.ZJ.Z.fZ
    a815:	b532 615c 155a b009 5a40 105a c00c 5aa0     .2a\.Z..Z@.Z..Z.
    a825:	665a b026 612c 005a b512 5a4a 075a a5cb     fZ.&a,.Z..ZJ.Z..
    a835:	5ab5 3161 eb11 5ab0 0663 5a40 0d5a c00a     Z.1a..Z..cZ@.Z..
    a845:	5aa0 8a5a b026 5ab5 115a a58a 5ab5 2e61     Z..Z.&Z..Z..Z..a
    a855:	8815 5ab5 0e5a 4a04 5aa5 225a b532 6156     ..Z..ZJ.Z."Z.2aV
    a865:	0a5a b006 6133 0b5a b026 5ab5 125a 4a06     .Z..a3.Z.&Z..ZJ.
    a875:	5aa5 985a b531 61c8 0d5a b006 61c0 075a     Z..Z.1a..Z..a..Z
    a885:	400e 5aa0 225a b026 5ab5 115a 4a03 5aa5     @.Z."Z.&Z..ZJ.Z.
    a895:	665a b52e 615d 155a b50e 5a4a 075a a58a     fZ..a].Z..ZJ.Z..
    a8a5:	612c 005a b52e 619c 0d5a b006 61c0 075a     a,.Z..a..Z..a..Z
    a8b5:	b50e 5a4a 035a a598 5ab5 3561 8915 5a40     ..ZJ.Z..Z.5a..Z@
    a8c5:	0d5a b026 5ab5 155a 4a06 5aa5 815a b535     .Z.&Z..ZJ.Z..Z.5
    a8d5:	6188 155a b515 5aa5 8a5a b532 6156 0a5a     a..Z..Z..Z.2aV.Z
    a8e5:	b006 6133 0b5a b512 5a4a 075a a522 5ab5     ..a3.Z..ZJ.Z."Z.
    a8f5:	3261 5c15 5a40 095a a098 612c 005a b029     2a\.Z@.Z..a,.Z.)
    a905:	5ab5 125a 4a05 5aa5 985a b531 615d 155a     Z..ZJ.Z..Z.1a].Z
    a915:	b511 5a4a 075a a58a 5ab5 3261 8815 5ab5     ..ZJ.Z..Z.2a..Z.
    a925:	125a 4a06 5aa5 815a b531 6189 155a b511     .ZJ.Z..Z.1a..Z..
    a935:	5a4a 085a a5cb 5ab5 3161 c80d 5ab0 0961     ZJ.Z..Z.1a..Z..a
    a945:	c007 5a40 0d5a a081 5ab0 295a b511 5a4a     ..Z@.Z..Z.)Z..ZJ
    a955:	065a a522 5ab5 3261 5c15 5ab5 1261 2d00     .Z."Z.2a\.Z..a-.
    a965:	5a4a 035a a566 5ab5 3261 ea11 5ab0 0963     ZJ.Z.fZ.2a..Z..c
    a975:	5a40 0f5a a066 5ab0 265a b512 612c 005a     Z@.Z.fZ.&Z..a,.Z
    a985:	4a07 5aa5 cb5a b531 6178 0e5a b006 6363     J.Z..Z.1ax.Z..cc
    a995:	5a40 0c5a a08a 5ab0 265a b511 5aa5 8a5a     Z@.Z..Z.&Z..Z..Z
    a9a5:	b52e 6189 155a b50e 5a4a 045a a522 5ab5     ..a..Z..ZJ.Z."Z.
    a9b5:	3261 560a 5ab0 0661 320b 5a40 0d5a b026     2aV.Z..a2.Z@.Z.&
    a9c5:	5ab5 125a 4a06 5aa5 985a b531 6189 155a     Z..ZJ.Z..Z.1a..Z
    a9d5:	b006 5aa0 225a b026 5ab5 115a 4a03 5aa5     ..Z."Z.&Z..ZJ.Z.
    a9e5:	665a b52e 615c 155a b50e 5a4a 075a a58a     fZ..a\.Z..ZJ.Z..
    a9f5:	612c 005a b52e 61eb 115a b006 635a b50e     a,.Z..a..Z..cZ..
    aa05:	5a4a 035a a598 5ab5 3561 8815 5a40 115a     ZJ.Z..Z.5a..Z@.Z
    aa15:	c00c 5ab0 265a b515 5a4a 065a a581 5ab5     ..Z.&Z..ZJ.Z..Z.
    aa25:	3561 8915 5ab5 155a a58a 5ab5 3261 560a     5a..Z..Z..Z.2aV.
    aa35:	5ab0 0661 320b 5ab5 125a 4a07 5aa5 225a     Z..a2.Z..ZJ.Z."Z
    aa45:	b532 615d 155a 4007 5ac0 0861 2c00 5aa0     .2a].Z@.Z..a,.Z.
    aa55:	985a b029 5ab5 125a 4a05 5aa5 985a b531     .Z.)Z..ZJ.Z..Z.1
    aa65:	615c 155a b511 5a4a 075a a58a 5ab5 3261     a\.Z..ZJ.Z..Z.2a
    aa75:	8915 5ab5 125a 4a06 5aa5 815a b531 61a4     ..Z..ZJ.Z..Z.1a.
    aa85:	0e5a b009 6363 5a40 0a5a c00a 5aa0 815a     .Z..ccZ@.Z..Z..Z
    aa95:	b029 5ab5 115a 4a08 5aa5 cb5a b531 6189     .)Z..ZJ.Z..Z.1a.
    aaa5:	155a b511 5a4a 065a a522 5ab5 3261 560a     .Z..ZJ.Z."Z.2aV.
    aab5:	5ab0 0961 320b 5ab5 125a 4a03 5aa5 665a     Z..a2.Z..ZJ.Z.fZ
    aac5:	b532 615d 155a b512 5a4a 075a a5cb 5ab5     .2a].Z..ZJ.Z..Z.
    aad5:	3161 8815 5ab5 115a a58a 5ab5 2e61 8915     1a..Z..Z..Z..a..
    aae5:	5ab5 0e5a 4a04 5aa5 225a b532 6188 155a     Z..ZJ.Z."Z.2a..Z
    aaf5:	b512 5a4a 065a a598 5ab5 3161 8915 5a40     ..ZJ.Z..Z.1a..Z@
    ab05:	0e5a a022 5ab0 265a a1e6 5ab1 255a b232     .Z."Z.&Z..Z.%Z.2
    ab15:	5ab5 115a 4a03 5aa5 665a b52e 635a a1c1     Z..ZJ.Z.fZ..cZ..
    ab25:	5ab2 1261 4603 5aa1 9d61 4e04 5aa1 7c63     Z..aF.Z..aN.Z.|c
    ab35:	5aa1 5d63 5aa1 8a5a b122 635a a15a 612c     Z.]cZ..Z."cZ.Za,
    ab45:	005a b232 5ab5 0e5a 4a07 5aa5 8a5a b52e     .Z.2Z..ZJ.Z..Z..
    ab55:	6146 035a a12b 5ab2 1263 5aa1 fd5a b121     aF.Z.+Z..cZ..Z.!
    ab65:	614f 045a a1d4 635a b006 6363 5ab1 015a     aO.Z..cZ..ccZ..Z
    ab75:	b232 5a4b 055a b329 612c 005a b50e 5a4a     .2ZK.Z.)a,.Z..ZJ
    ab85:	035a a598 5ab5 3561 4603 5ab2 1261 1612     .Z..Z.5aF.Z..a..
    ab95:	5a40 0f5a b026 5a41 805a a166 5ab1 325a     Z@.Z.&ZA.Z.fZ.2Z
    aba5:	b309 5ab5 155a 4a06 612c 005a a581 5ab5     ..Z..ZJ.a,.Z..Z.
    abb5:	3561 4603 5aa1 3763 5aa1 0a61 4f04 5aa1     5aF.Z.7cZ..aO.Z.
    abc5:	e05a b131 635a a1bc 635a a198 635a b111     .Z.1cZ..cZ..cZ..
    abd5:	5a41 a25a a1e6 5ab1 255a b232 5ab5 155a     ZA.Z..Z.%Z.2Z..Z
    abe5:	a58a 5ab5 3263 5aa1 c15a b212 635a b006     ..Z.2cZ..Z..cZ..
    abf5:	5aa1 9d61 4e04 5aa1 7c63 5aa1 5d63 5aa1     Z..aN.Z.|cZ.]cZ.
    ac05:	8a5a b122 635a a15a 5ab2 325a b329 5ab5     .Z."cZ.ZZ.2Z.)Z.
    ac15:	125a 4a07 5aa5 225a b532 635a a12b 5ab2     .ZJ.Z."Z.2cZ.+Z.
    ac25:	1263 5aa1 fd5a b121 614f 045a a1d4 6129     .cZ..Z.!aO.Z..a)
    ac35:	0a5a 400a 612d 005a a098 5ab0 295a b101     .Z@.a-.Z..Z.)Z..
    ac45:	5a41 805a a166 5ab1 325a 4500 5aa2 8a5a     ZA.Z.fZ.2ZE.Z..Z
    ac55:	b232 5ab3 095a b512 5a4a 055a a598 5ab5     .2Z..Z..ZJ.Z..Z.
    ac65:	3161 4503 5aa1 3763 5aa1 0a61 4f04 5aa1     1aE.Z.7cZ..aO.Z.
    ac75:	e05a b131 635a a1bc 635a a198 635a b111     .Z.1cZ..cZ..cZ..
    ac85:	5ab5 115a 4a07 5aa5 8a5a b532 6188 155a     Z..ZJ.Z..Z.2a..Z
    ac95:	41a2 5aa1 e65a b125 5ab2 125a 450c 5aa2     A.Z..Z.%Z..ZE.Z.
    aca5:	435a b232 5ab3 2961 2d00 5ab5 125a 4a06     CZ.2Z.)a-.Z..ZJ.
    acb5:	5aa5 815a b531 6145 035a a1c1 5ab2 1263     Z..Z.1aE.Z..Z..c
    acc5:	5aa1 9d61 4f04 5aa1 7c63 5aa1 5d63 5aa1     Z..aO.Z.|cZ.]cZ.
    acd5:	8a5a b122 635a a15a 5ab2 325a b309 5ab5     .Z."cZ.ZZ.2Z..Z.
    ace5:	115a 4a08 5aa5 cb5a b531 635a a12b 5ab2     .ZJ.Z..Z.1cZ.+Z.
    acf5:	1263 5aa1 fd5a b121 614e 045a b009 5aa1     .cZ..Z.!aN.Z..Z.
    ad05:	d461 560a 5a40 0e5a a081 5ab0 295a b101     .aV.Z@.Z..Z.)Z..
    ad15:	5a41 805a a166 5ab1 325a b511 5a4a 065a     ZA.Z.fZ.2Z..ZJ.Z
    ad25:	a522 5ab5 3263 5aa1 3763 5aa1 0a61 4f04     ."Z.2cZ.7cZ..aO.
    ad35:	5aa1 e05a b131 635a a1bc 635a a198 635a     Z..Z.1cZ..cZ..cZ
    ad45:	b111 5ab3 295a b512 5a4a 035a a566 5ab5     ..Z.)Z..ZJ.Z.fZ.
    ad55:	3261 780e 5ab0 0963 635a 4012 5ac0 0c5a     2ax.Z..ccZ@.Z..Z
    ad65:	a066 5ab0 265a 41a2 612c 005a a1e6 5ab1     .fZ.&ZA.a,.Z..Z.
    ad75:	255a b232 5ab3 095a b329 5ab5 125a 4a07     %Z.2Z..Z.)Z..ZJ.
    ad85:	5aa5 cb5a b531 6146 035a a1c1 5ab2 1263     Z..Z.1aF.Z..Z..c
    ad95:	5aa1 9d61 4f04 5aa1 7c63 5ab0 065a a15d     Z..aO.Z.|cZ..Z.]
    ada5:	635a a18a 5ab1 2263 5a40 0e5a c00a 5aa0     cZ..Z."cZ@.Z..Z.
    adb5:	8a5a b026 5aa1 5a5a b232 612c 005a b309     .Z.&Z.ZZ.2a,.Z..
    adc5:	5ab5 115a a58a 5ab5 2e61 4603 5aa1 2b5a     Z..Z..Z..aF.Z.+Z
    add5:	b212 635a a1fd 5ab1 2161 4e04 5aa1 d461     ..cZ..Z.!aN.Z..a
    ade5:	560a 5ab1 015a b329 5ab5 0e5a 4a04 5aa5     V.Z..Z.)Z..ZJ.Z.
    adf5:	225a b532 6133 0b5a b006 6156 0a5a b026     "Z.2a3.Z..aV.Z.&
    ae05:	5ab2 325a b309 5ab5 125a 4a06 5aa5 985a     Z.2Z..Z..ZJ.Z..Z
    ae15:	b531 635a b212 6132 0b5a b006 6363 5a40     .1cZ..a2.Z..ccZ@
    ae25:	135a c00c 5aa0 225a b026 5aa1 e65a b125     .Z..Z."Z.&Z..Z.%
    ae35:	5ab2 325a b511 5a4a 035a a566 5ab5 2e63     Z.2Z..ZJ.Z.fZ..c
    ae45:	5aa1 c15a b212 6146 035a a19d 614f 045a     Z..Z..aF.Z..aO.Z
    ae55:	a17c 635a a15d 635a a18a 5ab1 2263 5aa1     .|cZ.]cZ..Z."cZ.
    ae65:	5a61 2c00 5ab2 325a b50e 5a4a 075a a58a     Za,.Z.2Z..ZJ.Z..
    ae75:	5ab5 2e61 4603 5aa1 2b5a b212 635a a1fd     Z..aF.Z.+Z..cZ..
    ae85:	5ab1 2161 4e04 5aa1 d461 560a 5ab0 065a     Z.!aN.Z..aV.Z..Z
    ae95:	b101 5ab2 3261 2c00 5ab3 295a b50e 5a4a     ..Z.2a,.Z.)Z..ZJ
    aea5:	035a a598 5ab5 3561 4603 5ab2 1261 1712     .Z..Z.5aF.Z..a..
    aeb5:	5a40 115a b026 5a41 805a a166 5ab1 325a     Z@.Z.&ZA.Z.fZ.2Z
    aec5:	b309 5ab5 1561 2c00 5a4a 065a a581 5ab5     ..Z..a,.ZJ.Z..Z.
    aed5:	3561 4603 5aa1 3763 5aa1 0a61 4e04 5aa1     5aF.Z.7cZ..aN.Z.
    aee5:	e05a b131 635a a1bc 635a a198 635a b111     .Z.1cZ..cZ..cZ..
    aef5:	5a41 a25a a1e6 5ab1 255a b232 5ab5 155a     ZA.Z..Z.%Z.2Z..Z
    af05:	a58a 5ab5 3263 5aa1 c15a b212 635a a19d     ..Z.2cZ..Z..cZ..
    af15:	614f 045a a17c 635a b006 5aa1 5d63 5aa1     aO.Z.|cZ..Z.]cZ.
    af25:	8a5a b122 635a a15a 5ab2 325a b329 5ab5     .Z."cZ.ZZ.2Z.)Z.
    af35:	125a 4a07 5aa5 225a b532 635a a12b 5ab2     .ZJ.Z."Z.2cZ.+Z.
    af45:	1261 4e04 5aa1 fd5a b121 635a a1d4 612a     .aN.Z..Z.!cZ..a*
    af55:	0a5a 400c 5ac0 0a61 2c00 5aa0 985a b029     .Z@.Z..a,.Z..Z.)
    af65:	5ab1 015a 4180 5aa1 665a b132 5a45 005a     Z..ZA.Z.fZ.2ZE.Z
    af75:	a28a 5ab2 325a b309 5ab5 125a 4a05 5aa5     ..Z.2Z..Z..ZJ.Z.
    af85:	985a b531 6146 035a a137 614f 045a a10a     .Z.1aF.Z.7aO.Z..
    af95:	635a a1e0 5ab1 3163 5aa1 bc63 5aa1 9863     cZ..Z.1cZ..cZ..c
    afa5:	5ab1 115a b511 5a4a 075a a58a 612c 005a     Z..Z..ZJ.Z..a,.Z
    afb5:	b532 615c 155a 41a2 5aa1 e65a b125 5ab2     .2a\.ZA.Z..Z.%Z.
    afc5:	125a 450c 5aa2 435a b232 5ab3 2961 2c00     .ZE.Z.CZ.2Z.)a,.
    afd5:	5ab5 125a 4a06 5aa5 815a b531 6146 035a     Z..ZJ.Z..Z.1aF.Z
    afe5:	a1c1 5ab2 1261 4f04 5aa1 9d63 5aa1 7c63     ..Z..aO.Z..cZ.|c
    aff5:	5aa1 5d63 5aa1 8a5a b122 635a a15a 5ab2     Z.]cZ..Z."cZ.ZZ.
    b005:	325a b309 5ab5 115a 4a08 5aa5 cb5a b531     2Z..Z..ZJ.Z..Z.1
    b015:	635a a12b 5ab2 1261 4e04 5aa1 fd5a b121     cZ.+Z..aN.Z..Z.!
    b025:	635a a1d4 635a b009 6363 5aa0 815a b029     cZ..cZ..ccZ..Z.)
    b035:	5ab1 015a 4180 5aa1 665a b132 5ab5 115a     Z..ZA.Z.fZ.2Z..Z
    b045:	4a06 5aa5 225a b532 635a a137 614f 045a     J.Z."Z.2cZ.7aO.Z
    b055:	a10a 635a a1e0 5ab1 3163 5aa1 bc63 5aa1     ..cZ..Z.1cZ..cZ.
    b065:	9863 5ab1 115a b329 5ab5 125a 4a03 5aa5     .cZ..Z.)Z..ZJ.Z.
    b075:	665a b532 615c 155a b009 5a40 105a c00c     fZ.2a\.Z..Z@.Z..
    b085:	5aa0 6661 2c00 5ab0 265a 41a2 5aa1 e65a     Z.fa,.Z.&ZA.Z..Z
    b095:	b125 5ab2 325a b309 5ab3 295a b512 5a4a     .%Z.2Z..Z.)Z..ZJ
    b0a5:	075a a5cb 5ab5 3161 4603 5aa1 c15a b212     .Z..Z.1aF.Z..Z..
    b0b5:	614f 045a a19d 635a a17c 635a a15d 635a     aO.Z..cZ.|cZ.]cZ
    b0c5:	b006 5aa1 8a5a b122 635a 400d 5ac0 0a5a     ..Z..Z."cZ@.Z..Z
    b0d5:	a08a 5ab0 265a a15a 5ab2 3261 2c00 5ab3     ..Z.&Z.ZZ.2a,.Z.
    b0e5:	095a b511 5aa5 8a5a b52e 6146 035a a12b     .Z..Z..Z..aF.Z.+
    b0f5:	5ab2 1261 4e04 5aa1 fd5a b121 635a a1d4     Z..aN.Z..Z.!cZ..
    b105:	6156 0a5a b101 5ab3 295a b50e 5a4a 045a     aV.Z..Z.)Z..ZJ.Z
    b115:	a522 5ab5 3261 330b 5ab0 0661 560a 5ab0     ."Z.2a3.Z..aV.Z.
    b125:	265a b309 5ab5 125a 4a06 5aa5 985a b531     &Z..Z..ZJ.Z..Z.1
    b135:	61a4 0e5a b006 6363 5a40 0e5a a022 5ab0     a..Z..ccZ@.Z."Z.
    b145:	265a a1e6 5ab1 255a b232 5ab5 115a 4a03     &Z..Z.%Z.2Z..ZJ.
    b155:	5aa5 665a b52e 635a a1c1 5ab2 1261 4f04     Z.fZ..cZ..Z..aO.
    b165:	5aa1 9d61 4503 5aa1 7c63 5aa1 5d63 5aa1     Z..aE.Z.|cZ.]cZ.
    b175:	8a5a b122 635a a15a 612d 005a b232 5ab5     .Z."cZ.Za-.Z.2Z.
    b185:	0e5a 4a07 5aa5 8a5a b52e 6145 035a a12b     .ZJ.Z..Z..aE.Z.+
    b195:	5ab2 1261 4f04 5aa1 fd5a b121 635a a1d4     Z..aO.Z..Z.!cZ..
    b1a5:	635a b006 6363 5ab1 015a b232 5a4b 0661     cZ..ccZ..Z.2ZK.a
    b1b5:	2c00 5ab3 295a b50e 5a4a 035a a598 5ab5     ,.Z.)Z..ZJ.Z..Z.
    b1c5:	3561 4603 5ab2 1261 1612 5a40 0d5a b026     5aF.Z..a..Z@.Z.&
    b1d5:	5a41 805a a166 5ab1 325a b309 5ab5 155a     ZA.Z.fZ.2Z..Z..Z
    b1e5:	4a06 612d 005a a581 5ab5 3561 4503 5aa1     J.a-.Z..Z.5aE.Z.
    b1f5:	3761 4f04 5aa1 0a63 5aa1 e05a b131 635a     7aO.Z..cZ..Z.1cZ
    b205:	a1bc 635a a198 635a b111 5a41 a25a a1e6     ..cZ..cZ..ZA.Z..
    b215:	5ab1 255a b232 5ab5 155a a58a 5ab5 3263     Z.%Z.2Z..Z..Z.2c
    b225:	5aa1 c15a b212 614e 045a a19d 635a b006     Z..Z..aN.Z..cZ..
    b235:	5aa1 7c63 5aa1 5d63 5aa1 8a5a b122 635a     Z.|cZ.]cZ..Z."cZ
    b245:	a15a 5ab2 325a b329 5ab5 125a 4a07 5aa5     .ZZ.2Z.)Z..ZJ.Z.
    b255:	225a b532 635a a12b 5ab2 1261 4f04 5aa1     "Z.2cZ.+Z..aO.Z.
    b265:	fd5a b121 635a a1d4 612a 0a5a 4009 612c     .Z.!cZ..a*.Z@.a,
    b275:	005a a098 5ab0 295a b101 5a41 805a a166     .Z..Z.)Z..ZA.Z.f
    b285:	5ab1 325a 4500 5aa2 8a5a b232 5ab3 095a     Z.2ZE.Z..Z.2Z..Z
    b295:	b512 5a4a 055a a598 5ab5 3161 4603 5aa1     ..ZJ.Z..Z.1aF.Z.
    b2a5:	3761 4e04 5aa1 0a63 5aa1 e05a b131 635a     7aN.Z..cZ..Z.1cZ
    b2b5:	a1bc 635a a198 635a b111 5ab5 115a 4a07     ..cZ..cZ..Z..ZJ.
    b2c5:	5aa5 8a61 2c00 5ab5 3261 5d15 5a41 a25a     Z..a,.Z.2a].ZA.Z
    b2d5:	a1e6 5ab1 255a b212 5a45 0c5a a243 5ab2     ..Z.%Z..ZE.Z.CZ.
    b2e5:	3261 2c00 5ab3 295a b512 5a4a 065a a581     2a,.Z.)Z..ZJ.Z..
    b2f5:	5ab5 3161 4603 5aa1 c15a b212 614e 045a     Z.1aF.Z..Z..aN.Z
    b305:	a19d 635a a17c 635a a15d 635a a18a 5ab1     ..cZ.|cZ.]cZ..Z.
    b315:	2263 5aa1 5a5a b232 5ab3 095a b511 5a4a     "cZ.ZZ.2Z..Z..ZJ
    b325:	085a a5cb 5ab5 3163 5aa1 2b5a b212 614f     .Z..Z.1cZ.+Z..aO
    b335:	045a a1fd 5ab1 2163 5aa1 d463 5ab0 0963     .Z..Z.!cZ..cZ..c
    b345:	635a 400d 5aa0 815a b029 5ab1 015a 4180     cZ@.Z..Z.)Z..ZA.
    b355:	5aa1 665a b132 5ab5 115a 4a06 5aa5 225a     Z.fZ.2Z..ZJ.Z."Z
    b365:	b532 635a a137 614e 045a a10a 635a a1e0     .2cZ.7aN.Z..cZ..
    b375:	5ab1 3163 5aa1 bc63 5aa1 9863 5ab1 115a     Z.1cZ..cZ..cZ..Z
    b385:	b329 5ab5 125a 4a03 5aa5 665a b532 61eb     .)Z..ZJ.Z.fZ.2a.
    b395:	115a b009 635a 400f 5aa0 665a b026 612c     .Z..cZ@.Z.fZ.&a,
    b3a5:	005a 41a2 5aa1 e65a b125 5ab2 325a b309     .ZA.Z..Z.%Z.2Z..
    b3b5:	5ab3 295a b512 5a4a 075a a5cb 5ab5 3161     Z.)Z..ZJ.Z..Z.1a
    b3c5:	2204 5aa1 c15a b212 635a a19d 635a a17c     ".Z..Z..cZ..cZ.|
    b3d5:	635a b006 5aa1 5d63 5aa1 8a5a b122 635a     cZ..Z.]cZ..Z."cZ
    b3e5:	400c 5aa0 8a5a b026 5aa1 5a61 2c00 5ab2     @.Z..Z.&Z.Za,.Z.
    b3f5:	325a b309 5ab5 115a a58a 5ab5 2e61 2304     2Z..Z..Z..Z..a#.
    b405:	5aa1 2b5a b212 635a a1fd 5ab1 2163 5aa1     Z.+Z..cZ..Z.!cZ.
    b415:	d461 560a 5ab1 015a b329 5ab5 0e5a 4a04     .aV.Z..Z.)Z..ZJ.
    b425:	5aa5 225a b532 6132 0b5a b006 6156 0a5a     Z."Z.2a2.Z..aV.Z
    b435:	400d 5ab0 265a b232 5ab3 095a b512 5a4a     @.Z.&Z.2Z..Z..ZJ
    b445:	065a a598 5ab5 3161 4f04 5ab2 1261 3a11     .Z..Z.1aO.Z..a:.
    b455:	5ab0 065a a022 5ab0 265a a1e6 5ab1 255a     Z..Z."Z.&Z..Z.%Z
    b465:	b232 5ab5 115a 4a03 5aa5 665a b52e 614e     .2Z..ZJ.Z.fZ..aN
    b475:	045a a1c1 5ab2 1263 5aa1 9d61 4603 5aa1     .Z..Z..cZ..aF.Z.
    b485:	7c63 5aa1 5d63 5aa1 8a5a b122 635a a15a     |cZ.]cZ..Z."cZ.Z
    b495:	612c 005a b232 5ab5 0e5a 4a07 5aa5 8a5a     a,.Z.2Z..ZJ.Z..Z
    b4a5:	b52e 6123 045a a12b 5ab2 1263 5aa1 fd5a     ..a#.Z.+Z..cZ..Z
    b4b5:	b121 635a a1d4 6363 5ab0 0663 5ab1 015a     .!cZ..ccZ..cZ..Z
    b4c5:	b232 612c 005a b329 5ab5 0e5a 4a03 5aa5     .2a,.Z.)Z..ZJ.Z.
    b4d5:	985a b535 6122 045a b212 613a 115a 4011     .Z.5a".Z..a:.Z@.
    b4e5:	5ac0 0c5a b026 5a41 805a a166 5ab1 325a     Z..Z.&ZA.Z.fZ.2Z
    b4f5:	b309 5ab5 1561 2c00 5a4a 065a a581 5ab5     ..Z..a,.ZJ.Z..Z.
    b505:	3561 2304 5aa1 3763 5aa1 0a63 5aa1 e05a     5a#.Z.7cZ..cZ..Z
    b515:	b131 635a a1bc 635a a198 635a b111 5a41     .1cZ..cZ..cZ..ZA
    b525:	a25a a1e6 5ab1 255a b232 5ab5 155a a58a     .Z..Z.%Z.2Z..Z..
    b535:	5ab5 3261 4e04 5aa1 c15a b212 635a a19d     Z.2aN.Z..Z..cZ..
    b545:	635a b006 5aa1 7c63 5aa1 5d63 5aa1 8a5a     cZ..Z.|cZ.]cZ..Z
    b555:	b122 635a a15a 5ab2 325a b329 5ab5 125a     ."cZ.ZZ.2Z.)Z..Z
    b565:	4a07 5aa5 225a b532 614f 045a a12b 5ab2     J.Z."Z.2aO.Z.+Z.
    b575:	1263 5aa1 fd5a b121 635a a1d4 612a 0a5a     .cZ..Z.!cZ..a*.Z
    b585:	4007 612c 005a c008 5aa0 985a b029 5ab1     @.a,.Z..Z..Z.)Z.
    b595:	015a 4180 5aa1 665a b132 5a45 005a a28a     .ZA.Z.fZ.2ZE.Z..
    b5a5:	5ab2 325a b309 5ab5 125a 4a05 5aa5 985a     Z.2Z..Z..ZJ.Z..Z
    b5b5:	b531 6122 045a a137 635a a10a 635a a1e0     .1a".Z.7cZ..cZ..
    b5c5:	5ab1 3163 5aa1 bc63 5aa1 9863 5ab1 115a     Z.1cZ..cZ..cZ..Z
    b5d5:	b511 5a4a 0761 2c00 5aa5 8a5a b532 615d     ..ZJ.a,.Z..Z.2a]
    b5e5:	155a 41a2 5aa1 e65a b125 5ab2 125a 450c     .ZA.Z..Z.%Z..ZE.
    b5f5:	5aa2 435a b232 5ab3 2961 2c00 5ab5 125a     Z.CZ.2Z.)a,.Z..Z
    b605:	4a06 5aa5 815a b531 6122 045a a1c1 5ab2     J.Z..Z.1a".Z..Z.
    b615:	1263 5aa1 9d63 5aa1 7c63 5ab0 095a a15d     .cZ..cZ.|cZ..Z.]
    b625:	635a a18a 5ab1 2263 5a40 0a5a c00a 5aa0     cZ..Z."cZ@.Z..Z.
    b635:	815a b029 5aa1 5a5a b232 5ab3 095a b511     .Z.)Z.ZZ.2Z..Z..
    b645:	5a4a 0861 2c00 5aa5 cb5a b531 6123 045a     ZJ.a,.Z..Z.1a#.Z
    b655:	a12b 5ab2 1263 5aa1 fd5a b121 635a a1d4     .+Z..cZ..Z.!cZ..
    b665:	6156 0a5a b101 5a41 805a a166 5ab1 325a     aV.Z..ZA.Z.fZ.2Z
    b675:	b511 5a4a 065a a522 5ab5 3261 4e04 5aa1     ..ZJ.Z."Z.2aN.Z.
    b685:	3763 5aa1 0a63 5ab0 095a a1e0 5ab1 3163     7cZ..cZ..Z..Z.1c
    b695:	5aa1 bc63 5aa1 9863 5ab1 115a a166 5ab1     Z..cZ..cZ..Z.fZ.
    b6a5:	325a b329 5ab5 125a 4a03 5aa5 665a b532     2Z.)Z..ZJ.Z.fZ.2
    b6b5:	6122 045a a137 635a a10a 635a a1e0 5ab1     a".Z.7cZ..cZ..Z.
    b6c5:	3163 5aa1 bc63 5aa1 9863 5ab1 115a 41a2     1cZ..cZ..cZ..ZA.
    b6d5:	5aa1 e661 2d00 5ab1 255a b232 5ab3 095a     Z..a-.Z.%Z.2Z..Z
    b6e5:	b329 5ab5 125a 4a07 5aa5 cb5a b531 6122     .)Z..ZJ.Z..Z.1a"
    b6f5:	045a a1c1 5ab2 1263 5aa1 9d63 5aa1 7c63     .Z..Z..cZ..cZ.|c
    b705:	5aa1 5d63 5aa1 8a5a b122 635a a15a 5ab2     Z.]cZ..Z."cZ.ZZ.
    b715:	325a b309 5ab5 1161 2c00 5aa5 8a5a b52e     2Z..Z..a,.Z..Z..
    b725:	6122 045a a12b 5ab2 1263 5aa1 fd5a b121     a".Z.+Z..cZ..Z.!
    b735:	635a a1d4 6156 0a5a b101 5ab2 325a b50e     cZ..aV.Z..Z.2Z..
    b745:	5a4a 045a a522 5ab5 3261 4f04 5ab2 1261     ZJ.Z."Z.2aO.Z..a
    b755:	3a11 5ab2 325a b329 5ab5 125a 4a06 5aa5     :.Z.2Z.)Z..ZJ.Z.
    b765:	985a b531 614e 045a b212 6117 125a 400e     .Z.1aN.Z..a..Z@.
    b775:	5aa0 225a b026 5aa1 e65a b125 5a45 075a     Z."Z.&Z..Z.%ZE.Z
    b785:	b232 5ab3 095a b511 5a4a 035a a566 5ab5     .2Z..Z..ZJ.Z.fZ.
    b795:	2e5a c608 5af0 035a 5040 612c 005a 7012     .Z..Z..ZP@a,.Zp.
    b7a5:	5a90 f45a 3060 5af3 005a 5380 5a73 705a     Z..Z0`Z..ZS.ZspZ
    b7b5:	9303 5a33 215a b631 5ac7 045a f102 5a51     ..Z3!Z.1Z..Z..ZQ
    b7c5:	0e5a 7188 5a91 6f5a 31f2 5af4 025a 5400     .Zq.Z.oZ1.Z..ZT.
    b7d5:	5a74 555a 9428 5a34 e15a a798 612c 005a     ZtUZ.(Z4.Z..a,.Z
    b7e5:	b731 5af2 025a 520f 5a72 f25a 9203 5a32     .1Z..ZR.Zr.Z..Z2
    b7f5:	645a 5500 5a75 f15a 9566 5a35 295a a8b1     dZU.Zu.Z.fZ5)Z..
    b805:	5ab8 3161 1a03 5aa1 c15a b212 5aa7 995a     Z.1a..Z..Z..Z..Z
    b815:	a8ab 635a a19d 5aa7 9a5a a8a5 6146 035a     ..cZ..Z..Z..aF.Z
    b825:	a17c 612c 005a a89f 6146 035a a15d 612c     .|a,.Z..aF.Z.]a,
    b835:	005a a898 6146 035a a18a 5ab1 2261 4e04     .Z..aF.Z..Z."aN.
    b845:	5aa1 5a61 2c00 5ab5 0e5a 4a07 5aa5 8a5a     Z.Za,.Z..ZJ.Z..Z
    b855:	b52e 6146 035a a12b 635a a1fd 5ab1 2163     ..aF.Z.+cZ..Z.!c
    b865:	5aa1 d463 5ab0 0661 c107 5ab1 015a 4b05     Z..cZ..a..Z..ZK.
    b875:	5ab3 295a 4c09 5aa4 6661 2c00 5ab4 265a     Z.)ZL.Z.fa,.Z.&Z
    b885:	b50e 5a4a 035a a598 5ab5 3561 0e11 5ab4     ..ZJ.Z..Z.5a..Z.
    b895:	0661 4e04 5a40 0f5a b026 5a41 805a a166     .aN.Z@.Z.&ZA.Z.f
    b8a5:	5ab1 325a b309 5a4c 0e5a a443 612c 005a     Z.2Z..ZL.Z.Ca,.Z
    b8b5:	b422 5ab5 155a 4a06 5aa5 815a b535 6146     ."Z..ZJ.Z..Z.5aF
    b8c5:	035a a137 635a a10a 635a a1e0 5ab1 3163     .Z.7cZ..cZ..Z.1c
    b8d5:	5aa1 bc63 5aa1 9861 4f04 5ab1 115a 41a2     Z..cZ..aO.Z..ZA.
    b8e5:	5aa1 e65a b125 5a45 0d5a a28a 5ab2 325a     Z..Z.%ZE.Z..Z.2Z
    b8f5:	b402 5ab5 155a a58a 5ab5 3263 5aa1 c163     ..Z..Z..Z.2cZ..c
    b905:	5ab0 065a a19d 635a a17c 635a a15d 635a     Z..Z..cZ.|cZ.]cZ
    b915:	a18a 5ab1 2261 4e04 5aa1 5a5a b329 5ab5     ..Z."aN.Z.ZZ.)Z.
    b925:	125a 4a07 5aa5 225a b532 635a a12b 635a     .ZJ.Z."Z.2cZ.+cZ
    b935:	a1fd 5ab1 2163 5aa1 d461 070b 5a40 0a61     ..Z.!cZ..a..Z@.a
    b945:	2c00 5aa0 985a b029 5ab1 015a 4180 5aa1     ,.Z..Z.)Z..ZA.Z.
    b955:	665a b132 5ab3 095a 4c07 5aa4 665a b426     fZ.2Z..ZL.Z.fZ.&
    b965:	5ab5 125a 4a05 5aa5 985a b531 6146 035a     Z..ZJ.Z..Z.1aF.Z
    b975:	a137 635a a10a 635a a1e0 5ab1 3163 5aa1     .7cZ..cZ..Z.1cZ.
    b985:	bc63 5aa1 9861 4e04 5ab1 115a b511 5a4a     .cZ..aN.Z..Z..ZJ
    b995:	0761 2c00 5aa5 8a5a b532 615d 155a 41a2     .a,.Z..Z.2a].ZA.
    b9a5:	5aa1 e65a b125 5ab2 125a 4507 5aa2 435a     Z..Z.%Z..ZE.Z.CZ
    b9b5:	b232 612c 005a b329 5ab4 065a b512 5a4a     .2a,.Z.)Z..Z..ZJ
    b9c5:	065a a581 5ab5 3161 4603 5aa1 c15a b212     .Z..Z.1aF.Z..Z..
    b9d5:	635a a19d 635a a17c 635a a15d 635a a18a     cZ..cZ.|cZ.]cZ..
    b9e5:	5ab1 2261 4e04 5aa1 5a5a b309 5ab5 115a     Z."aN.Z.ZZ..Z..Z
    b9f5:	4a08 5aa5 cb5a b531 635a a12b 635a a1fd     J.Z..Z.1cZ.+cZ..
    ba05:	5ab1 2163 5ab0 095a a1d4 6133 0b5a 400e     Z.!cZ..Z..a3.Z@.
    ba15:	5aa0 815a b029 5ab1 015a 4180 5aa1 665a     Z..Z.)Z..ZA.Z.fZ
    ba25:	b132 5a4c 065a b426 5ab5 115a 4a06 5aa5     .2ZL.Z.&Z..ZJ.Z.
    ba35:	225a b532 635a a137 635a a10a 635a a1e0     "Z.2cZ.7cZ..cZ..
    ba45:	5ab1 3163 5aa1 bc5a b406 635a a198 614e     Z.1cZ..Z..cZ..aN
    ba55:	045a b111 5ab3 295a 4c0a 5aa4 435a b422     .Z..Z.)ZL.Z.CZ."
    ba65:	5ab5 125a 4a03 5aa5 665a b532 619c 0d5a     Z..ZJ.Z.fZ.2a..Z
    ba75:	b009 612c 005a b611 5ab7 115a b811 6195     ..a,.Z..Z..Z..a.
    ba85:	075a 4012 5ac0 0c5a a066 5ab0 2661 2c00     .Z@.Z..Z.fZ.&a,.
    ba95:	5a41 a25a a1e6 5ab1 255a 4504 5aa2 8a5a     ZA.Z..Z.%ZE.Z..Z
    baa5:	b232 5ab3 095a b329 5ab5 125a 4a07 5aa5     .2Z..Z.)Z..ZJ.Z.
    bab5:	cb5a b531 5a53 825a a66c 5ab6 315a a76c     .Z.1ZS.Z.lZ.1Z.l
    bac5:	5ab7 315a 5211 612c 005a 5502 5aa8 815a     Z.1ZR.a,.ZU.Z..Z
    bad5:	b831 611a 035a a1c1 5aa7 6d61 2c00 5aa8     .1a..Z..Z.ma,.Z.
    bae5:	7c61 4603 5aa1 9d5a b402 612c 005a a877     |aF.Z..Z..a,.Z.w
    baf5:	6146 035a a17c 5aa8 7263 5ab0 065a a15d     aF.Z.|Z.rcZ..Z.]
    bb05:	5aa8 6c63 5aa1 8a5a b122 614e 045a 400e     Z.lcZ..Z."aN.Z@.
    bb15:	5ac0 0a5a a08a 5ab0 265a a15a 5ab3 0961     Z..Z..Z.&Z.ZZ..a
    bb25:	2c00 5a4c 065a b422 5ab5 115a a58a 5ab5     ,.ZL.Z."Z..Z..Z.
    bb35:	2e61 4603 5aa1 2b63 5aa1 fd5a b121 635a     .aF.Z.+cZ..Z.!cZ
    bb45:	a1d4 6133 0b5a b101 5ab3 295a b402 5a4c     ..a3.Z..Z.)Z..ZL
    bb55:	045a a466 5ab4 265a b50e 612c 005a 4a04     .Z.fZ.&Z..a,.ZJ.
    bb65:	5aa5 225a b532 612a 0a5a b006 6132 0b5a     Z."Z.2a*.Z..a2.Z
    bb75:	b026 5ab3 095a b512 5a4a 065a a598 5ab5     .&Z..Z..ZJ.Z..Z.
    bb85:	3161 560a 5ab6 115a b711 5ab8 1163 5ab0     1aV.Z..Z..Z..cZ.
    bb95:	065a b406 61c1 075a 4013 5ac0 0c5a a022     .Z..a..Z@.Z..Z."
    bba5:	5ab0 265a a1e6 5ab1 255a b212 5a45 075a     Z.&Z..Z.%Z..ZE.Z
    bbb5:	a243 5ab2 325a b511 5a4a 035a a566 5ab5     .CZ.2Z..ZJ.Z.fZ.
    bbc5:	2e5a 5381 5aa6 985a b631 612c 005a a798     .ZS.Z..Z.1a,.Z..
    bbd5:	5ab7 315a 5210 5a55 015a a8b1 5ab8 3161     Z.1ZR.ZU.Z..Z.1a
    bbe5:	4603 5aa1 c15a b212 5aa7 995a a8ab 635a     F.Z..Z..Z..Z..cZ
    bbf5:	a19d 5aa7 9a5a a8a5 635a a17c 5aa8 9f61     ..Z..Z..cZ.|Z..a
    bc05:	4603 5aa1 5d61 2c00 5aa8 9861 4603 5aa1     F.Z.]a,.Z..aF.Z.
    bc15:	8a5a b122 614e 045a a15a 612c 005a b50e     .Z."aN.Z.Za,.Z..
    bc25:	5a4a 075a a58a 5ab5 2e61 4603 5aa1 2b63     ZJ.Z..Z..aF.Z.+c
    bc35:	5aa1 fd5a b121 635a a1d4 6133 0b5a b006     Z..Z.!cZ..a3.Z..
    bc45:	5ab1 015a b329 612c 005a 4c07 5ab4 265a     Z..Z.)a,.ZL.Z.&Z
    bc55:	b50e 5a4a 035a a598 5ab5 3561 0e11 5ab4     ..ZJ.Z..Z.5a..Z.
    bc65:	0661 4e04 5a40 115a b026 5a41 805a a166     .aN.Z@.Z.&ZA.Z.f
    bc75:	5ab1 325a b309 5a4c 0d61 2c00 5aa4 435a     Z.2Z..ZL.a,.Z.CZ
    bc85:	b422 5ab5 155a 4a06 5aa5 815a b535 6146     ."Z..ZJ.Z..Z.5aF
    bc95:	035a a137 635a a10a 635a a1e0 5ab1 3163     .Z.7cZ..cZ..Z.1c
    bca5:	5aa1 bc63 5aa1 9861 4f04 5ab1 115a 41a2     Z..cZ..aO.Z..ZA.
    bcb5:	5aa1 e65a b125 5a45 065a a28a 5ab2 325a     Z..Z.%ZE.Z..Z.2Z
    bcc5:	b402 5ab5 155a a58a 5ab5 3263 5aa1 c163     ..Z..Z..Z.2cZ..c
    bcd5:	5aa1 9d63 5aa1 7c63 5ab0 065a a15d 635a     Z..cZ.|cZ..Z.]cZ
    bce5:	a18a 5ab1 2261 4e04 5aa1 5a5a b329 5ab5     ..Z."aN.Z.ZZ.)Z.
    bcf5:	125a 4a07 5aa5 225a b532 635a a12b 635a     .ZJ.Z."Z.2cZ.+cZ
    bd05:	a1fd 5ab1 2163 5aa1 d461 060b 5a40 0c61     ..Z.!cZ..a..Z@.a
    bd15:	2d00 5ac0 0a5a a098 5ab0 295a b101 5a41     -.Z..Z..Z.)Z..ZA
    bd25:	805a a166 5ab1 325a b309 5a4c 045a a466     .Z.fZ.2Z..ZL.Z.f
    bd35:	5ab4 265a b512 5a4a 055a a598 5ab5 3161     Z.&Z..ZJ.Z..Z.1a
    bd45:	4503 5aa1 3763 5aa1 0a63 5aa1 e05a b131     E.Z.7cZ..cZ..Z.1
    bd55:	635a a1bc 614f 045a a198 635a b111 5ab5     cZ..aO.Z..cZ..Z.
    bd65:	115a 4a07 612c 005a a58a 5ab5 3261 2a0a     .ZJ.a,.Z..Z.2a*.
    bd75:	5ab4 0661 320b 5a41 a25a a1e6 5ab1 255a     Z..a2.ZA.Z..Z.%Z
    bd85:	b212 5aa2 435a b232 612d 005a b329 5ab5     ..Z.CZ.2a-.Z.)Z.
    bd95:	125a 4a06 5aa5 815a b531 6145 035a a1c1     .ZJ.Z..Z.1aE.Z..
    bda5:	5ab2 1263 5aa1 9d63 5aa1 7c63 5aa1 5d61     Z..cZ..cZ.|cZ.]a
    bdb5:	4f04 5aa1 8a5a b122 635a a15a 5ab3 095a     O.Z..Z."cZ.ZZ..Z
    bdc5:	b511 5a4a 085a a5cb 5ab5 3163 5aa1 2b63     ..ZJ.Z..Z.1cZ.+c
    bdd5:	5aa1 fd5a b121 635a a1d4 635a b009 61c0     Z..Z.!cZ..cZ..a.
    bde5:	075a a081 5ab0 295a b101 5a41 805a a166     .Z..Z.)Z..ZA.Z.f
    bdf5:	5ab1 325a 4c06 5ab4 265a b511 5a4a 065a     Z.2ZL.Z.&Z..ZJ.Z
    be05:	a522 5ab5 3263 5aa1 3763 5aa1 0a63 5aa1     ."Z.2cZ.7cZ..cZ.
    be15:	e05a b131 635a a1bc 614f 045a a198 5ab4     .Z.1cZ..aO.Z..Z.
    be25:	0663 5ab1 115a b329 5a4c 0c5a a443 5ab4     .cZ..Z.)ZL.Z.CZ.
    be35:	225a b512 5a4a 035a a566 5ab5 3261 ea11     "Z..ZJ.Z.fZ.2a..
    be45:	5ab6 1161 2c00 5ab7 115a b811 6146 035a     Z..a,.Z..Z..aF.Z
    be55:	b009 5a40 105a c00c 612c 005a a066 5ab0     ..Z@.Z..a,.Z.fZ.
    be65:	265a 41a2 5aa1 e65a b125 5a45 045a a28a     &ZA.Z..Z.%ZE.Z..
    be75:	5ab2 325a b309 5ab3 295a b402 5ab5 125a     Z.2Z..Z.)Z..Z..Z
    be85:	4a07 5aa5 cb5a b531 5aa6 e661 2d00 5ab6     J.Z..Z.1Z..a-.Z.
    be95:	315a a7e6 5ab7 315a a803 5ab8 3261 1903     1Z..Z.1Z..Z.2a..
    bea5:	5aa1 c15a a7e7 612c 005a a8fc 5ab8 3161     Z..Z..a,.Z..Z.1a
    beb5:	4603 5aa1 9d5a a7e8 5aa8 f563 5aa1 7c5a     F.Z..Z..Z..cZ.|Z
    bec5:	a8ee 635a a15d 5aa8 e661 4f04 5ab0 065a     ..cZ.]Z..aO.Z..Z
    bed5:	a18a 5ab1 2263 5a40 0d5a c00a 5aa0 8a5a     ..Z."cZ@.Z..Z..Z
    bee5:	b026 5aa1 5a5a b309 612c 005a 4c06 5ab4     .&Z.ZZ..a,.ZL.Z.
    bef5:	225a b511 5aa5 8a5a b52e 6146 035a a12b     "Z..Z..Z..aF.Z.+
    bf05:	635a a1fd 5ab1 2163 5aa1 d461 320b 5ab1     cZ..Z.!cZ..a2.Z.
    bf15:	015a b329 5ab4 025a 4c04 5aa4 665a b426     .Z.)Z..ZL.Z.fZ.&
    bf25:	5ab5 0e61 2c00 5a4a 045a a522 5ab5 3261     Z..a,.ZJ.Z."Z.2a
    bf35:	2a0a 5ab0 0661 330b 5ab0 265a b309 5ab5     *.Z..a3.Z.&Z..Z.
    bf45:	125a 4a06 5aa5 985a b531 635a b406 6156     .ZJ.Z..Z.1cZ..aV
    bf55:	0a5a b006 5ab6 115a b711 5ab8 1161 c007     .Z..Z..Z..Z..a..
    bf65:	5a40 0e5a a022 5ab0 265a a1e6 5ab1 255a     Z@.Z."Z.&Z..Z.%Z
    bf75:	b212 5a45 065a a243 5ab2 325a b511 5a4a     ..ZE.Z.CZ.2Z..ZJ
    bf85:	035a a566 5ab5 2e5a 5383 5aa6 985a b631     .Z.fZ..ZS.Z..Z.1
    bf95:	612c 005a a798 5ab7 315a 5212 5a55 035a     a,.Z..Z.1ZR.ZU.Z
    bfa5:	a8b1 5ab8 3161 4603 5aa1 c15a b212 5aa7     ..Z.1aF.Z..Z..Z.
    bfb5:	995a a8ab 635a a19d 5aa7 9a5a a8a5 635a     .Z..cZ..Z..Z..cZ
    bfc5:	a17c 5aa8 9f61 4603 5aa1 5d61 2c00 5aa8     .|Z..aF.Z.]a,.Z.
    bfd5:	9861 2304 5aa1 8a5a b122 635a a15a 612c     .a#.Z..Z."cZ.Za,
    bfe5:	005a b50e 5a4a 075a a58a 5ab5 2e61 4603     .Z..ZJ.Z..Z..aF.
    bff5:	5aa1 2b63 5aa1 fd5a b121 635a a1d4 635a     Z.+cZ..Z.!cZ..cZ
    c005:	b006 61c0 075a b101 5a4b 065a b329 5a4c     ..a..Z..ZK.Z.)ZL
    c015:	0661 2c00 5ab4 265a b50e 5a4a 035a a598     .a,.Z.&Z..ZJ.Z..
    c025:	5ab5 3561 9c0d 5ab4 0661 c107 5a40 0d5a     Z.5a..Z..a..Z@.Z
    c035:	b026 5a41 805a a166 5ab1 325a b309 5a4c     .&ZA.Z.fZ.2Z..ZL
    c045:	0c61 2c00 5aa4 435a b422 5ab5 155a 4a06     .a,.Z.CZ."Z..ZJ.
    c055:	5aa5 815a b535 6146 035a a137 635a a10a     Z..Z.5aF.Z.7cZ..
    c065:	635a a1e0 5ab1 3163 5aa1 bc61 4e04 5aa1     cZ..Z.1cZ..aN.Z.
    c075:	9863 5ab1 115a 41a2 5aa1 e65a b125 5aa2     .cZ..ZA.Z..Z.%Z.
    c085:	8a5a b232 5ab4 025a b515 5aa5 8a5a b532     .Z.2Z..Z..Z..Z.2
    c095:	635a a1c1 635a a19d 635a b006 5aa1 7c63     cZ..cZ..cZ..Z.|c
    c0a5:	5aa1 5d61 4f04 5aa1 8a5a b122 635a a15a     Z.]aO.Z..Z."cZ.Z
    c0b5:	5ab3 295a b512 5a4a 075a a522 5ab5 3263     Z.)Z..ZJ.Z."Z.2c
    c0c5:	5aa1 2b63 5aa1 fd5a b121 635a a1d4 6106     Z.+cZ..Z.!cZ..a.
    c0d5:	0b5a 4009 612c 005a a098 5ab0 295a b101     .Z@.a,.Z..Z.)Z..
    c0e5:	5a41 805a a166 5ab1 325a b309 5a4c 025a     ZA.Z.fZ.2Z..ZL.Z
    c0f5:	a466 5ab4 265a b512 5a4a 055a a598 5ab5     .fZ.&Z..ZJ.Z..Z.
    c105:	3161 4603 5aa1 3763 5aa1 0a63 5aa1 e05a     1aF.Z.7cZ..cZ..Z
    c115:	b131 635a a1bc 614f 045a a198 635a b111     .1cZ..aO.Z..cZ..
    c125:	5ab5 115a 4a07 612c 005a a58a 5ab5 3261     Z..ZJ.a,.Z..Z.2a
    c135:	b806 5ab4 0661 a40e 5a41 a25a a1e6 5ab1     ..Z..a..ZA.Z..Z.
    c145:	255a b212 5a45 075a a243 5ab2 3261 2c00     %Z..ZE.Z.CZ.2a,.
    c155:	5ab3 295a b512 5a4a 065a a581 5ab5 3161     Z.)Z..ZJ.Z..Z.1a
    c165:	4603 5aa1 c15a b212 635a a19d 635a a17c     F.Z..Z..cZ..cZ.|
    c175:	635a a15d 614f 045a a18a 5ab1 2263 5aa1     cZ.]aO.Z..Z."cZ.
    c185:	5a5a b309 5ab5 115a 4a08 5aa5 cb5a b531     ZZ..Z..ZJ.Z..Z.1
    c195:	635a a12b 635a a1fd 5ab1 2163 5aa1 d463     cZ.+cZ..Z.!cZ..c
    c1a5:	5ab0 0961 c007 5a40 0d5a a081 5ab0 295a     Z..a..Z@.Z..Z.)Z
    c1b5:	b101 5a41 805a a166 5ab1 325a 4c06 5ab4     ..ZA.Z.fZ.2ZL.Z.
    c1c5:	265a b511 5a4a 065a a522 5ab5 3263 5aa1     &Z..ZJ.Z."Z.2cZ.
    c1d5:	3763 5aa1 0a63 5aa1 e05a b131 614f 045a     7cZ..cZ..Z.1aO.Z
    c1e5:	a1bc 635a a198 5ab4 0663 5ab1 115a b329     ..cZ..Z..cZ..Z.)
    c1f5:	5a4c 0a5a a443 5ab4 225a b512 5a4a 035a     ZL.Z.CZ."Z..ZJ.Z
    c205:	a566 5ab5 3261 ea11 5ab0 0963 5a40 0f5a     .fZ.2a..Z..cZ@.Z
    c215:	a066 5ab0 2661 2c00 5a41 a25a a1e6 5ab1     .fZ.&a,.ZA.Z..Z.
    c225:	255a 4506 5aa2 8a5a b232 5ab3 095a b329     %ZE.Z..Z.2Z..Z.)
    c235:	5ab4 025a b512 5a4a 075a a5cb 5ab5 315a     Z..Z..ZJ.Z..Z.1Z
    c245:	a600 5ab6 0061 2c00 5aa6 225a b632 5aa7     ..Z..a,.Z."Z.2Z.
    c255:	005a b700 5aa7 225a b732 5aa8 005a b800     .Z..Z."Z.2Z..Z..
    c265:	5aa8 435a b832 611a 035a a1c1 635a a19d     Z.CZ.2a..Z..cZ..
    c275:	5aa7 2461 2c00 5aa8 3b61 4603 5aa1 7c5a     Z.$a,.Z.;aF.Z.|Z
    c285:	a725 5aa8 3361 4f04 5ab0 065a a15d 5aa8     .%Z.3aO.Z..Z.]Z.
    c295:	2b63 5aa1 8a5a b122 5aa8 2263 5a40 0c5a     +cZ..Z."Z."cZ@.Z
    c2a5:	a08a 5ab0 265a a15a 5ab3 0961 2c00 5a4c     ..Z.&Z.ZZ..a,.ZL
    c2b5:	065a b422 5ab5 115a a58a 5ab5 2e61 4603     .Z."Z..Z..Z..aF.
    c2c5:	5aa1 2b63 5aa1 fd5a b121 635a a1d4 6132     Z.+cZ..Z.!cZ..a2
    c2d5:	0b5a b101 5ab3 295a b402 5a4c 025a a466     .Z..Z.)Z..ZL.Z.f
    c2e5:	5ab4 265a b50e 612c 005a 4a04 5aa5 225a     Z.&Z..a,.ZJ.Z."Z
    c2f5:	b532 612a 0a5a b006 6133 0b5a 400d 5ab0     .2a*.Z..a3.Z@.Z.
    c305:	265a b309 5ab5 125a 4a06 5aa5 985a b531     &Z..Z..ZJ.Z..Z.1
    c315:	6156 0a5a b406 6132 0b5a b006 5aa0 225a     aV.Z..a2.Z..Z."Z
    c325:	b026 5aa1 e65a b125 5ab2 125a 4504 5aa2     .&Z..Z.%Z..ZE.Z.
    c335:	435a b232 5ab5 115a 4a03 5aa5 665a b52e     CZ.2Z..ZJ.Z.fZ..
    c345:	612c 005a b612 5aa6 665a b632 5ab7 125a     a,.Z..Z.fZ.2Z..Z
    c355:	a766 5ab7 325a b812 5aa8 8a5a b832 6146     .fZ.2Z..Z..Z.2aF
    c365:	035a a1c1 5ab2 125a a768 5aa8 8163 5aa1     .Z..Z..Z.hZ..cZ.
    c375:	9d5a a769 5aa8 7863 5aa1 7c5a a86f 614f     .Z.iZ.xcZ.|Z.oaO
    c385:	045a a15d 5aa8 6661 4503 5aa1 8a61 2d00     .Z.]Z.faE.Z..a-.
    c395:	5ab1 2261 4503 5aa1 5a61 2d00 5ab5 0e5a     Z."aE.Z.Za-.Z..Z
    c3a5:	4a07 5aa5 8a5a b52e 6145 035a a12b 635a     J.Z..Z..aE.Z.+cZ
    c3b5:	a1fd 5ab1 2163 5aa1 d461 c107 5ab0 0663     ..Z.!cZ..a..Z..c
    c3c5:	5ab1 015a b329 5a4c 0761 2c00 5ab4 265a     Z..Z.)ZL.a,.Z.&Z
    c3d5:	b50e 5a4a 035a a598 5ab5 3561 ea11 5ab4     ..ZJ.Z..Z.5a..Z.
    c3e5:	0663 5a40 115a c00c 5ab0 265a 4180 5aa1     .cZ@.Z..Z.&ZA.Z.
    c3f5:	665a b132 5ab3 095a 4c0a 612d 005a a443     fZ.2Z..ZL.a-.Z.C
    c405:	5ab4 225a b515 5a4a 065a a581 5ab5 3561     Z."Z..ZJ.Z..Z.5a
    c415:	4503 5aa1 3763 5aa1 0a63 5aa1 e05a b131     E.Z.7cZ..cZ..Z.1
    c425:	614f 045a a1bc 635a a198 635a b111 5a41     aO.Z..cZ..cZ..ZA
    c435:	a25a a1e6 5ab1 255a 4507 5aa2 8a5a b232     .Z..Z.%ZE.Z..Z.2
    c445:	5ab4 025a b515 5aa5 8a61 2c00 5ab5 3261     Z..Z..Z..a,.Z.2a
    c455:	4603 5aa1 c163 5aa1 9d63 5ab0 065a a17c     F.Z..cZ..cZ..Z.|
    c465:	614e 045a a15d 635a a18a 5ab1 2263 5aa1     aN.Z.]cZ..Z."cZ.
    c475:	5a5a b329 5ab5 125a 4a07 5aa5 225a b532     ZZ.)Z..ZJ.Z."Z.2
    c485:	635a a12b 635a a1fd 5ab1 2163 5aa1 d461     cZ.+cZ..Z.!cZ..a
    c495:	330b 5a40 075a c008 5aa0 985a b029 5ab1     3.Z@.Z..Z..Z.)Z.
    c4a5:	015a 4180 5aa1 665a b132 5ab3 095a 4c04     .ZA.Z.fZ.2Z..ZL.
    c4b5:	5aa4 665a b426 5ab5 125a 4a05 5aa5 985a     Z.fZ.&Z..ZJ.Z..Z
    c4c5:	b531 5ab6 1261 2c00 5aa6 225a b632 5ab7     .1Z..a,.Z."Z.2Z.
    c4d5:	125a a722 5ab7 325a b812 5aa8 435a b832     .Z."Z.2Z..Z.CZ.2
    c4e5:	611a 035a a137 612c 005a a724 5aa8 3b61     a..Z.7a,.Z.$Z.;a
    c4f5:	4603 5aa1 0a61 2c00 5aa7 255a a833 6146     F.Z..a,.Z.%Z.3aF
    c505:	035a a1e0 5ab1 3161 2c00 5aa8 2b61 2204     .Z..Z.1a,.Z.+a".
    c515:	5aa1 bc5a a822 635a a198 635a b111 5ab5     Z..Z."cZ..cZ..Z.
    c525:	1161 2c00 5a4a 075a a58a 5ab5 3261 790e     .a,.ZJ.Z..Z.2ay.
    c535:	5ab4 0663 635a 41a2 5aa1 e65a b125 5ab2     Z..ccZA.Z..Z.%Z.
    c545:	125a 4506 5aa2 435a b232 612c 005a b329     .ZE.Z.CZ.2a,.Z.)
    c555:	5ab5 125a 4a06 5aa5 815a b531 6146 035a     Z..ZJ.Z..Z.1aF.Z
    c565:	a1c1 5ab2 1263 5aa1 9d63 5aa1 7c61 4e04     ..Z..cZ..cZ.|aN.
    c575:	5ab0 095a a15d 635a a18a 5ab1 2263 5a40     Z..Z.]cZ..Z."cZ@
    c585:	0a5a c00a 5aa0 815a b029 5aa1 5a5a b309     .Z..Z..Z.)Z.ZZ..
    c595:	5a4c 025a b426 5ab5 1161 2c00 5a4a 085a     ZL.Z.&Z..a,.ZJ.Z
    c5a5:	a5cb 5ab5 3161 4603 5aa1 2b63 5aa1 fd5a     ..Z.1aF.Z.+cZ..Z
    c5b5:	b121 635a a1d4 61c1 075a b406 635a b101     .!cZ..a..Z..cZ..
    c5c5:	5a41 805a a166 5ab1 325a b511 5a4a 065a     ZA.Z.fZ.2Z..ZJ.Z
    c5d5:	a522 5ab5 3263 5aa1 3763 5aa1 0a63 5ab0     ."Z.2cZ.7cZ..cZ.
    c5e5:	095a a1e0 5ab1 3161 4e04 5aa1 bc63 5aa1     .Z..Z.1aN.Z..cZ.
    c5f5:	9863 5ab1 115a a166 5ab1 325a b329 5a4c     .cZ..Z.fZ.2Z.)ZL
    c605:	075a b426 5ab5 125a 4a03 5aa5 665a b532     .Z.&Z..ZJ.Z.fZ.2
    c615:	635a a137 635a a10a 6146 035a a1e0 612c     cZ.7cZ..aF.Z..a,
    c625:	005a b131 6123 045a a1bc 635a a198 612c     .Z.1a#.Z..cZ..a,
    c635:	005a b406 6146 035a b111 5a41 a261 2c00     .Z..aF.Z..ZA.a,.
    c645:	5aa1 e65a b125 5aa2 8a5a b232 5ab3 095a     Z..Z.%Z..Z.2Z..Z
    c655:	b329 5a4c 065a a443 5ab4 225a b512 5a4a     .)ZL.Z.CZ."Z..ZJ
    c665:	075a a5cb 5ab5 3161 4603 5aa1 c163 5aa1     .Z..Z.1aF.Z..cZ.
    c675:	9d63 5aa1 7c61 4e04 5aa1 5d63 5aa1 8a5a     .cZ.|aN.Z.]cZ..Z
    c685:	b122 635a a15a 5ab3 095a b402 612c 005a     ."cZ.ZZ..Z..a,.Z
    c695:	b511 5aa5 8a5a b52e 6146 035a a12b 635a     ..Z..Z..aF.Z.+cZ
    c6a5:	a1fd 5ab1 2163 5aa1 d461 330b 5ab1 015a     ..Z.!cZ..a3.Z..Z
    c6b5:	4c04 5aa4 665a b426 5ab5 0e5a 4a04 5aa5     L.Z.fZ.&Z..ZJ.Z.
    c6c5:	225a b532 6188 155a b329 5ab5 125a 4a06     "Z.2a..Z.)Z..ZJ.
    c6d5:	5aa5 985a b531 61a5 0e5a b406 5ab6 125a     Z..Z.1a..Z..Z..Z
    c6e5:	b712 5ab8 1263 635a 400e 5aa0 225a b026     ..Z..ccZ@.Z."Z.&
    c6f5:	5aa1 e65a b125 5ab2 125a 4502 5aa2 435a     Z..Z.%Z..ZE.Z.CZ
    c705:	b232 5ab3 095a b511 5a4a 035a a566 5ab5     .2Z..Z..ZJ.Z.fZ.
    c715:	2e61 2c00 5aa6 985a b631 5aa7 985a b731     .a,.Z..Z.1Z..Z.1
    c725:	5aa8 b15a b831 6146 035a a1c1 5ab2 125a     Z..Z.1aF.Z..Z..Z
    c735:	a799 5aa8 ab63 5aa1 9d5a a79a 5aa8 a561     ..Z..cZ..Z..Z..a
    c745:	4e04 5aa1 7c5a a89f 635a a15d 5aa8 9861     N.Z.|Z..cZ.]Z..a
    c755:	4603 5aa1 8a61 2c00 5ab1 2261 4603 5aa1     F.Z..a,.Z."aF.Z.
    c765:	5a61 2c00 5ab5 0e5a 4a07 5aa5 8a5a b52e     Za,.Z..ZJ.Z..Z..
    c775:	6146 035a a12b 635a a1fd 5ab1 2161 4f04     aF.Z.+cZ..Z.!aO.
    c785:	5aa1 d463 5ab0 0663 635a b101 5a4b 055a     Z..cZ..ccZ..ZK.Z
    c795:	b329 612c 005a b426 5ab5 0e5a 4a03 5aa5     .)a,.Z.&Z..ZJ.Z.
    c7a5:	985a b535 61ea 115a b406 635a 400f 5ab0     .Z.5a..Z..cZ@.Z.
    c7b5:	265a 4180 5aa1 665a b132 5ab3 095a 4c0e     &ZA.Z.fZ.2Z..ZL.
    c7c5:	612c 005a a443 5ab4 225a b515 5a4a 065a     a,.Z.CZ."Z..ZJ.Z
    c7d5:	a581 5ab5 3561 4603 5aa1 3763 5aa1 0a61     ..Z.5aF.Z.7cZ..a
    c7e5:	4f04 5aa1 e05a b131 635a a1bc 635a a198     O.Z..Z.1cZ..cZ..
    c7f5:	635a b111 5a41 a25a a1e6 5ab1 255a 4506     cZ..ZA.Z..Z.%ZE.
    c805:	5aa2 8a5a b232 5ab5 155a a58a 5ab5 3263     Z..Z.2Z..Z..Z.2c
    c815:	5aa1 c15a b402 635a b006 5aa1 9d61 4e04     Z..Z..cZ..Z..aN.
    c825:	5aa1 7c63 5aa1 5d63 5aa1 8a5a b122 635a     Z.|cZ.]cZ..Z."cZ
    c835:	a15a 5ab3 295a b512 5a4a 075a a522 5ab5     .ZZ.)Z..ZJ.Z."Z.
    c845:	3263 5aa1 2b63 5aa1 fd5a b121 614f 045a     2cZ.+cZ..Z.!aO.Z
    c855:	a1d4 6156 0a5a 400a 5aa0 985a b029 5ab1     ..aV.Z@.Z..Z.)Z.
    c865:	015a 4180 5aa1 665a b132 5ab3 095a 4c04     .ZA.Z.fZ.2Z..ZL.
    c875:	5aa4 665a b426 5ab5 125a 4a05 5aa5 985a     Z.fZ.&Z..ZJ.Z..Z
    c885:	b531 6146 035a a137 635a a10a 614e 045a     .1aF.Z.7cZ..aN.Z
    c895:	a1e0 5ab1 3163 5aa1 bc63 5aa1 9863 5ab1     ..Z.1cZ..cZ..cZ.
    c8a5:	115a b511 612c 005a 4a07 5aa5 8a5a b532     .Z..a,.ZJ.Z..Z.2
    c8b5:	6107 0b5a b406 6156 0a5a 41a2 5aa1 e65a     a..Z..aV.ZA.Z..Z
    c8c5:	b125 5ab2 125a a243 5ab2 3261 2c00 5ab3     .%Z..Z.CZ.2a,.Z.
    c8d5:	295a b512 5a4a 065a a581 5ab5 3161 4603     )Z..ZJ.Z..Z.1aF.
    c8e5:	5aa1 c15a b212 635a a19d 614e 045a a17c     Z..Z..cZ..aN.Z.|
    c8f5:	635a a15d 635a a18a 5ab1 2263 5aa1 5a5a     cZ.]cZ..Z."cZ.ZZ
    c905:	b309 5ab5 115a 4a08 5aa5 cb5a b531 635a     ..Z..ZJ.Z..Z.1cZ
    c915:	a12b 635a a1fd 5ab1 2161 4f04 5ab0 095a     .+cZ..Z.!aO.Z..Z
    c925:	a1d4 6156 0a5a 400e 5aa0 815a b029 5ab1     ..aV.Z@.Z..Z.)Z.
    c935:	015a 4180 5aa1 665a b132 5ab4 265a b511     .ZA.Z.fZ.2Z.&Z..
    c945:	5a4a 065a a522 612c 005a b532 6146 035a     ZJ.Z."a,.Z.2aF.Z
    c955:	a137 635a a10a 614e 045a a1e0 5ab1 3163     .7cZ..aN.Z..Z.1c
    c965:	5aa1 bc63 5aa1 985a b406 635a b111 5ab3     Z..cZ..Z..cZ..Z.
    c975:	295a 4c0e 5aa4 435a b422 5ab5 125a 4a03     )ZL.Z.CZ."Z..ZJ.
    c985:	5aa5 665a b532 6178 0e5a b009 6363 5a40     Z.fZ.2ax.Z..ccZ@
    c995:	125a c00c 5aa0 6661 2d00 5ab0 265a 41a2     .Z..Z.fa-.Z.&ZA.
    c9a5:	5aa1 e65a b125 5aa2 8a5a b232 5ab3 095a     Z..Z.%Z..Z.2Z..Z
    c9b5:	b329 5ab5 125a 4a07 5aa5 cb5a b531 5a53     .)Z..ZJ.Z..Z.1ZS
    c9c5:	815a a600 5ab6 005a a66c 5ab6 3161 2c00     .Z..Z..Z.lZ.1a,.
    c9d5:	5aa7 005a b700 5aa7 6c5a b731 5a52 105a     Z..Z..Z.lZ.1ZR.Z
    c9e5:	5501 5aa8 005a b800 5aa8 815a b831 6119     U.Z..Z..Z..Z.1a.
    c9f5:	035a a1c1 612d 005a b402 6145 035a a19d     .Z..a-.Z..aE.Z..
    ca05:	5aa7 6d61 2d00 5aa8 7c61 2204 5aa1 7c5a     Z.ma-.Z.|a".Z.|Z
    ca15:	a877 635a b006 5aa1 5d5a a872 635a a18a     .wcZ..Z.]Z.rcZ..
    ca25:	5ab1 225a a86c 635a 400e 5ac0 0a5a a08a     Z."Z.lcZ@.Z..Z..
    ca35:	5ab0 265a a15a 612c 005a b309 5a4c 065a     Z.&Z.Za,.Z..ZL.Z
    ca45:	b422 5ab5 115a a58a 5ab5 2e61 4603 5aa1     ."Z..Z..Z..aF.Z.
    ca55:	2b63 5aa1 fd5a b121 614e 045a a1d4 6156     +cZ..Z.!aN.Z..aV
    ca65:	0a5a b101 5ab3 295a b402 5a4c 045a a466     .Z..Z.)Z..ZL.Z.f
    ca75:	5ab4 2661 2d00 5ab5 0e5a 4a04 5aa5 225a     Z.&a-.Z..ZJ.Z."Z
    ca85:	b532 6106 0b5a b006 6156 0a5a b026 5ab3     .2a..Z..aV.Z.&Z.
    ca95:	095a b512 5a4a 065a a598 5ab5 3163 635a     .Z..ZJ.Z..Z.1ccZ
    caa5:	b406 61c0 075a b006 6363 5a40 135a c00c     ..a..Z..ccZ@.Z..
    cab5:	5aa0 225a b026 5aa1 e65a b125 5ab2 125a     Z."Z.&Z..Z.%Z..Z
    cac5:	a243 5ab2 325a b511 5a4a 035a a566 5ab5     .CZ.2Z..ZJ.Z.fZ.
    cad5:	2e5a b611 612d 005a 5383 5aa6 985a b631     .Z..a-.ZS.Z..Z.1
    cae5:	5ab7 115a a798 5ab7 315a b811 5a52 125a     Z..Z..Z.1Z..ZR.Z
    caf5:	5503 5aa8 b15a b831 6145 035a a1c1 5ab2     U.Z..Z.1aE.Z..Z.
    cb05:	125a a799 5aa8 ab63 5aa1 9d5a a79a 5aa8     .Z..Z..cZ..Z..Z.
    cb15:	a561 4f04 5aa1 7c5a a89f 635a a15d 5aa8     .aO.Z.|Z..cZ.]Z.
    cb25:	9861 4603 5aa1 8a61 2c00 5ab1 2261 4603     .aF.Z..a,.Z."aF.
    cb35:	5aa1 5a61 2c00 5ab5 0e5a 4a07 5aa5 8a5a     Z.Za,.Z..ZJ.Z..Z
    cb45:	b52e 6146 035a a12b 635a a1fd 5ab1 2161     ..aF.Z.+cZ..Z.!a
    cb55:	4e04 5aa1 d461 560a 5ab0 065a b101 612c     N.Z..aV.Z..Z..a,
    cb65:	005a b329 5a4c 065a b426 5ab5 0e5a 4a03     .Z.)ZL.Z.&Z..ZJ.
    cb75:	5aa5 985a b535 61eb 115a b406 635a 4011     Z..Z.5a..Z..cZ@.
    cb85:	5ab0 265a 4180 5aa1 665a b132 5ab3 0961     Z.&ZA.Z.fZ.2Z..a
    cb95:	2c00 5a4c 0c5a a443 5ab4 225a b515 5a4a     ,.ZL.Z.CZ."Z..ZJ
    cba5:	065a a581 5ab5 3561 4603 5aa1 3763 5aa1     .Z..Z.5aF.Z.7cZ.
    cbb5:	0a61 4e04 5aa1 e05a b131 635a a1bc 635a     .aN.Z..Z.1cZ..cZ
    cbc5:	a198 635a b111 5a41 a25a a1e6 5ab1 255a     ..cZ..ZA.Z..Z.%Z
    cbd5:	4507 5aa2 8a5a b232 5ab5 155a a58a 5ab5     E.Z..Z.2Z..Z..Z.
    cbe5:	3263 5aa1 c15a b402 635a a19d 614f 045a     2cZ..Z..cZ..aO.Z
    cbf5:	a17c 635a b006 5aa1 5d63 5aa1 8a5a b122     .|cZ..Z.]cZ..Z."
    cc05:	635a a15a 5ab3 295a b512 5a4a 075a a522     cZ.ZZ.)Z..ZJ.Z."
    cc15:	5ab5 3263 5aa1 2b61 4e04 5aa1 fd5a b121     Z.2cZ.+aN.Z..Z.!
    cc25:	635a a1d4 6156 0a5a 400c 5ac0 0a5a a098     cZ..aV.Z@.Z..Z..
    cc35:	5ab0 295a b101 5a41 805a a166 5ab1 325a     Z.)Z..ZA.Z.fZ.2Z
    cc45:	b309 5a4c 025a a466 5ab4 265a b512 5a4a     ..ZL.Z.fZ.&Z..ZJ
    cc55:	055a a598 5ab5 3163 5aa1 3761 2304 5aa1     .Z..Z.1cZ.7a#.Z.
    cc65:	0a63 5aa1 e05a b131 635a a1bc 635a a198     .cZ..Z.1cZ..cZ..
    cc75:	635a b111 5ab5 1161 2c00 5a4a 075a a58a     cZ..Z..a,.ZJ.Z..
    cc85:	5ab5 3261 9407 5ab4 0661 c80d 5a41 a25a     Z.2a..Z..a..ZA.Z
    cc95:	a1e6 5ab1 255a b212 5a45 045a a243 5ab2     ..Z.%Z..ZE.Z.CZ.
    cca5:	3261 2c00 5ab3 295a b512 5a4a 065a a581     2a,.Z.)Z..ZJ.Z..
    ccb5:	5ab5 3161 4603 5aa1 c15a b212 614f 045a     Z.1aF.Z..Z..aO.Z
    ccc5:	a19d 635a a17c 635a a15d 635a a18a 5ab1     ..cZ.|cZ.]cZ..Z.
    ccd5:	2263 5aa1 5a5a b309 5ab5 115a 4a08 5aa5     "cZ.ZZ..Z..ZJ.Z.
    cce5:	cb5a b531 635a a12b 614e 045a a1fd 5ab1     .Z.1cZ.+aN.Z..Z.
    ccf5:	2163 5aa1 d463 5ab0 0963 635a a081 5ab0     !cZ..cZ..ccZ..Z.
    cd05:	295a b101 5a41 805a a166 5ab1 325a 4c06     )Z..ZA.Z.fZ.2ZL.
    cd15:	5ab4 265a b511 5a4a 065a a522 612c 005a     Z.&Z..ZJ.Z."a,.Z
    cd25:	b532 6146 035a a137 614f 045a a10a 635a     .2aF.Z.7aO.Z..cZ
    cd35:	a1e0 5ab1 3163 5aa1 bc63 5aa1 985a b406     ..Z.1cZ..cZ..Z..
    cd45:	635a b111 5ab3 295a 4c09 5aa4 435a b422     cZ..Z.)ZL.Z.CZ."
    cd55:	5ab5 125a 4a03 5aa5 665a b532 615c 155a     Z..ZJ.Z.fZ.2a\.Z
    cd65:	b009 612c 005a 4010 5ac0 0c5a a066 5ab0     ..a,.Z@.Z..Z.fZ.
    cd75:	265a 41a2 5aa1 e65a b125 5a45 065a a28a     &ZA.Z..Z.%ZE.Z..
    cd85:	5ab2 325a b309 5ab3 295a b512 5a4a 075a     Z.2Z..Z.)Z..ZJ.Z
    cd95:	a5cb 5ab5 315a 5382 5aa6 0061 2c00 5ab6     ..Z.1ZS.Z..a,.Z.
    cda5:	005a a6e6 5ab6 315a a700 5ab7 005a a7e6     .Z..Z.1Z..Z..Z..
    cdb5:	5ab7 315a 5211 5a55 025a a800 5ab8 005a     Z.1ZR.ZU.Z..Z..Z
    cdc5:	a803 5ab8 3261 1a03 5aa1 c161 2c00 5ab4     ..Z.2a..Z..a,.Z.
    cdd5:	0261 2304 5aa1 9d5a a7e7 612c 005a a8fc     .a#.Z..Z..a,.Z..
    cde5:	5ab8 3161 4603 5aa1 7c5a a7e8 612c 005a     Z.1aF.Z.|Z..a,.Z
    cdf5:	a8f5 6146 035a a15d 5aa8 ee63 5ab0 065a     ..aF.Z.]Z..cZ..Z
    ce05:	a18a 5ab1 225a a8e6 635a 400d 5ac0 0a5a     ..Z."Z..cZ@.Z..Z
    ce15:	a08a 5ab0 265a a15a 612c 005a b309 5a4c     ..Z.&Z.Za,.Z..ZL
    ce25:	065a b422 5ab5 115a a58a 5ab5 2e61 4603     .Z."Z..Z..Z..aF.
    ce35:	5aa1 2b61 4e04 5aa1 fd5a b121 635a a1d4     Z.+aN.Z..Z.!cZ..
    ce45:	6156 0a5a b101 5ab3 295a b402 5a4c 045a     aV.Z..Z.)Z..ZL.Z
    ce55:	a466 5ab4 2661 2c00 5ab5 0e5a 4a04 5aa5     .fZ.&a,.Z..ZJ.Z.
    ce65:	225a b532 6107 0b5a b006 6156 0a5a b026     "Z.2a..Z..aV.Z.&
    ce75:	5ab3 095a b512 5a4a 065a a598 5ab5 3161     Z..Z..ZJ.Z..Z.1a
    ce85:	c007 5ab4 0663 635a b006 635a b611 5ab7     ..Z..ccZ..cZ..Z.
    ce95:	115a b811 635a 400e 5aa0 225a b026 5aa1     .Z..cZ@.Z."Z.&Z.
    cea5:	e65a b125 5ab2 125a a243 5ab2 325a b511     .Z.%Z..Z.CZ.2Z..
    ceb5:	5a4a 035a a566 5ab5 2e5a 5383 612c 005a     ZJ.Z.fZ..ZS.a,.Z
    cec5:	a698 5ab6 315a a798 5ab7 315a 5212 5a55     ..Z.1Z..Z.1ZR.ZU
    ced5:	035a a8b1 5ab8 3161 4603 5aa1 c15a b212     .Z..Z.1aF.Z..Z..
    cee5:	5aa7 995a a8ab 614f 045a a19d 5aa7 9a5a     Z..Z..aO.Z..Z..Z
    cef5:	a8a5 635a a17c 5aa8 9f63 5aa1 5d5a a898     ..cZ.|Z..cZ.]Z..
    cf05:	635a a18a 5ab1 2261 4603 5aa1 5a61 2c00     cZ..Z."aF.Z.Za,.
    cf15:	5ab5 0e5a 4a07 5aa5 8a5a b52e 6146 035a     Z..ZJ.Z..Z..aF.Z
    cf25:	a12b 614e 045a a1fd 5ab1 2163 5aa1 d463     .+aN.Z..Z.!cZ..c
    cf35:	5ab0 0663 635a b101 5a4b 065a b329 612c     Z..ccZ..ZK.Z.)a,
    cf45:	005a 4c06 5ab4 265a b50e 5a4a 035a a598     .ZL.Z.&Z..ZJ.Z..
    cf55:	5ab5 3561 eb11 5ab4 0663 5a40 0d5a b026     Z.5a..Z..cZ@.Z.&
    cf65:	5a41 805a a166 5ab1 325a b309 612c 005a     ZA.Z.fZ.2Z..a,.Z
    cf75:	4c0c 5aa4 435a b422 5ab5 155a 4a06 5aa5     L.Z.CZ."Z..ZJ.Z.
    cf85:	815a b535 6146 035a a137 614e 045a a10a     .Z.5aF.Z.7aN.Z..
    cf95:	635a a1e0 5ab1 3163 5aa1 bc63 5aa1 9863     cZ..Z.1cZ..cZ..c
    cfa5:	5ab1 115a 41a2 5aa1 e65a b125 5aa2 8a5a     Z..ZA.Z..Z.%Z..Z
    cfb5:	b232 5ab4 025a b515 612c 005a a58a 5ab5     .2Z..Z..a,.Z..Z.
    cfc5:	3261 4603 5aa1 c161 4f04 5aa1 9d63 5ab0     2aF.Z..aO.Z..cZ.
    cfd5:	065a a17c 635a a15d 635a a18a 5ab1 2263     .Z.|cZ.]cZ..Z."c
    cfe5:	5aa1 5a5a b329 5ab5 125a 4a07 5aa5 225a     Z.ZZ.)Z..ZJ.Z."Z
    cff5:	b532 635a a12b 614e 045a a1fd 5ab1 2163     .2cZ.+aN.Z..Z.!c
    d005:	5aa1 d463 635a b611 5ab7 115a b811 635a     Z..ccZ..Z..Z..cZ
    d015:	4009 5aa0 985a b029 5ab1 015a 4180 5aa1     @.Z..Z.)Z..ZA.Z.
    d025:	665a b132 5ab3 095a 4c02 5aa4 665a b426     fZ.2Z..ZL.Z.fZ.&
    d035:	5ab5 125a 4a05 5aa5 985a b531 5aa6 8161     Z..ZJ.Z..Z.1Z..a
    d045:	2c00 5ab6 315a a781 5ab7 315a b831 6146     ,.Z.1Z..Z.1Z.1aF
    d055:	035a a137 5aa7 825a a893 6122 045a a10a     .Z.7Z..Z..a".Z..
    d065:	612d 005a a783 5aa8 8d61 4503 5aa1 e05a     a-.Z..Z..aE.Z..Z
    d075:	b131 612d 005a a887 6145 035a a1bc 612d     .1a-.Z..aE.Z..a-
    d085:	005a a881 6145 035a a198 635a b111 5ab5     .Z..aE.Z..cZ..Z.
    d095:	1161 2d00 5a4a 075a a58a 5ab5 3261 9407     .a-.ZJ.Z..Z.2a..
    d0a5:	5ab4 0661 c80d 5a41 a25a a1e6 5ab1 255a     Z..a..ZA.Z..Z.%Z
    d0b5:	b212 5aa2 435a b232 612c 005a b329 5ab5     ..Z.CZ.2a,.Z.)Z.
    d0c5:	125a 4a06 5aa5 815a b531 6146 035a a1c1     .ZJ.Z..Z.1aF.Z..
    d0d5:	5ab2 1261 4e04 5aa1 9d63 5aa1 7c63 5aa1     Z..aN.Z..cZ.|cZ.
    d0e5:	5d63 5aa1 8a5a b122 635a a15a 5ab3 095a     ]cZ..Z."cZ.ZZ..Z
    d0f5:	b511 5a4a 085a a5cb 5ab5 3163 5aa1 2b61     ..ZJ.Z..Z.1cZ.+a
    d105:	4f04 5aa1 fd5a b121 635a a1d4 635a b009     O.Z..Z.!cZ..cZ..
    d115:	6363 5a40 0d5a a081 5ab0 295a b101 5a41     ccZ@.Z..Z.)Z..ZA
    d125:	805a a166 5ab1 325a 4c07 5ab4 265a b511     .Z.fZ.2ZL.Z.&Z..
    d135:	5a4a 065a a522 612c 005a b532 6146 035a     ZJ.Z."a,.Z.2aF.Z
    d145:	a137 614e 045a a10a 635a a1e0 5ab1 3163     .7aN.Z..cZ..Z.1c
    d155:	5aa1 bc63 5aa1 985a b406 635a b111 5ab3     Z..cZ..Z..cZ..Z.
    d165:	295a 4c0e 5aa4 435a b422 5ab5 125a 4a03     )ZL.Z.CZ."Z..ZJ.
    d175:	5aa5 665a b532 6133 0b5a b611 5ab7 115a     Z.fZ.2a3.Z..Z..Z
    d185:	b811 61b8 065a b009 635a 400f 5aa0 6661     ..a..Z..cZ@.Z.fa
    d195:	2c00 5ab0 265a 41a2 5aa1 e65a b125 5a45     ,.Z.&ZA.Z..Z.%ZE
    d1a5:	095a a28a 5ab2 325a b309 5ab3 295a b402     .Z..Z.2Z..Z.)Z..
    d1b5:	5ab5 125a 4a07 5aa5 cb5a b531 5a53 815a     Z..ZJ.Z..Z.1ZS.Z
    d1c5:	a68a 5ab6 2e61 2c00 5aa7 8a5a b72e 5a52     ..Z..a,.Z..Z..ZR
    d1d5:	105a 5501 5aa8 575a b831 61f6 035a a1c1     .ZU.Z.WZ.1a..Z..
    d1e5:	5aa7 8c61 2c00 5aa8 5361 4603 5aa1 9d5a     Z..a,.Z.SaF.Z..Z
    d1f5:	a78d 612c 005a a84e 6146 035a a17c 5aa8     ..a,.Z.NaF.Z.|Z.
    d205:	4963 5ab0 065a a15d 5aa8 8a61 2c00 5ab8     IcZ..Z.]Z..a,.Z.
    d215:	2e61 4603 5aa1 8a5a b122 635a 400c 5aa0     .aF.Z..Z."cZ@.Z.
    d225:	8a5a b026 5aa1 5a61 2c00 5ab3 095a 4c06     .Z.&Z.Za,.Z..ZL.
    d235:	5aa4 665a b426 5ab5 115a a58a 5ab5 2e61     Z.fZ.&Z..Z..Z..a
    d245:	2304 5aa1 2b63 5aa1 fd5a b121 635a a1d4     #.Z.+cZ..Z.!cZ..
    d255:	5ab4 0661 560a 5ab1 015a b329 5a4c 0d5a     Z..aV.Z..Z.)ZL.Z
    d265:	a443 5ab4 225a b50e 612c 005a 4a04 5aa5     .CZ."Z..a,.ZJ.Z.
    d275:	225a b532 6106 0b5a b006 635a b402 6363     "Z.2a..Z..cZ..cc
    d285:	5a40 0d5a b026 5ab3 095a 4c07 5aa4 665a     Z@.Z.&Z..ZL.Z.fZ
    d295:	b426 5ab5 125a 4a06 5aa5 985a b531 6133     .&Z..ZJ.Z..Z.1a3
    d2a5:	0b5a b406 6363 5ab6 0e5a b70e 5ab8 0e63     .Z..ccZ..Z..Z..c
    d2b5:	5ab0 065a a022 5ab0 265a a1e6 5ab1 255a     Z..Z."Z.&Z..Z.%Z
    d2c5:	b212 5a45 065a a243 5ab2 325a b511 5a4a     ..ZE.Z.CZ.2Z..ZJ
    d2d5:	035a a566 5ab5 2e61 2c00 5aa6 225a b62e     .Z.fZ..a,.Z."Z..
    d2e5:	5aa7 225a b72e 5aa8 435a b82e 6122 045a     Z."Z..Z.CZ..a".Z
    d2f5:	a1c1 5ab2 125a a724 5aa8 3b63 5aa1 9d5a     ..Z..Z.$Z.;cZ..Z
    d305:	a725 5aa8 3363 5aa1 7c5a a82b 635a a15d     .%Z.3cZ.|Z.+cZ.]
    d315:	5aa8 2263 5aa1 8a5a b122 6146 035a a15a     Z."cZ..Z."aF.Z.Z
    d325:	612c 005a b50e 5a4a 075a a58a 5ab5 2e61     a,.Z..ZJ.Z..Z..a
    d335:	2304 5aa1 2b63 5aa1 fd5a b121 635a a1d4     #.Z.+cZ..Z.!cZ..
    d345:	6363 5ab0 0663 5ab1 015a b329 612c 005a     ccZ..cZ..Z.)a,.Z
    d355:	4c06 5ab4 265a b50e 5a4a 035a a598 5ab5     L.Z.&Z..ZJ.Z..Z.
    d365:	3561 780e 5ab4 0663 635a 4011 5ac0 0c5a     5ax.Z..ccZ@.Z..Z
    d375:	b026 5a41 805a a166 5ab1 325a b309 612c     .&ZA.Z.fZ.2Z..a,
    d385:	005a 4c0d 5aa4 435a b422 5ab5 155a 4a06     .ZL.Z.CZ."Z..ZJ.
    d395:	5aa5 815a b535 6123 045a a137 635a a10a     Z..Z.5a#.Z.7cZ..
    d3a5:	635a a1e0 5ab1 3163 5aa1 bc63 5aa1 9863     cZ..Z.1cZ..cZ..c
    d3b5:	5ab1 115a 41a2 5aa1 e65a b125 5aa2 8a5a     Z..ZA.Z..Z.%Z..Z
    d3c5:	b232 5ab5 155a a58a 5ab5 3261 4e04 5aa1     .2Z..Z..Z.2aN.Z.
    d3d5:	c15a b402 635a a19d 635a b006 5aa1 7c63     .Z..cZ..cZ..Z.|c
    d3e5:	5aa1 5d63 5aa1 8a5a b122 635a a15a 5ab3     Z.]cZ..Z."cZ.ZZ.
    d3f5:	295a b512 5a4a 075a a522 5ab5 3261 4f04     )Z..ZJ.Z."Z.2aO.
    d405:	5aa1 2b63 5aa1 fd5a b121 635a a1d4 6156     Z.+cZ..Z.!cZ..aV
    d415:	0a5a 4007 5ac0 085a a098 5ab0 295a b101     .Z@.Z..Z..Z.)Z..
    d425:	5a41 805a a166 5ab1 325a b309 5a4c 025a     ZA.Z.fZ.2Z..ZL.Z
    d435:	a466 5ab4 265a b512 5a4a 055a a598 5ab5     .fZ.&Z..ZJ.Z..Z.
    d445:	3161 4e04 5aa1 3761 4603 5aa1 0a63 5aa1     1aN.Z.7aF.Z..cZ.
    d455:	e05a b131 635a a1bc 635a a198 635a b111     .Z.1cZ..cZ..cZ..
    d465:	5ab5 1161 2c00 5a4a 075a a58a 5ab5 3261     Z..a,.ZJ.Z..Z.2a
    d475:	2304 5ab4 0661 3a11 5a41 a25a a1e6 5ab1     #.Z..a:.ZA.Z..Z.
    d485:	255a b212 5a45 0a5a a243 5ab2 3261 2c00     %Z..ZE.Z.CZ.2a,.
    d495:	5ab3 295a b512 5a4a 065a a581 5ab5 3161     Z.)Z..ZJ.Z..Z.1a
    d4a5:	2204 5aa1 c15a b212 635a a19d 635a a17c     ".Z..Z..cZ..cZ.|
    d4b5:	635a b009 5aa1 5d63 5aa1 8a5a b122 635a     cZ..Z.]cZ..Z."cZ
    d4c5:	400a 5ac0 0a5a a081 5ab0 295a a15a 5ab3     @.Z..Z..Z.)Z.ZZ.
    d4d5:	095a b426 612c 005a b511 5a4a 085a a5cb     .Z.&a,.Z..ZJ.Z..
    d4e5:	5ab5 3161 2304 5aa1 2b63 5aa1 fd5a b121     Z.1a#.Z.+cZ..Z.!
    d4f5:	635a a1d4 5ab4 0661 560a 5ab1 015a 4180     cZ..Z..aV.Z..ZA.
    d505:	5aa1 665a b132 5ab5 115a 4a06 5aa5 225a     Z.fZ.2Z..ZJ.Z."Z
    d515:	b532 614e 045a a137 635a a10a 635a b009     .2aN.Z.7cZ..cZ..
    d525:	5aa1 e05a b131 635a a1bc 635a a198 635a     Z..Z.1cZ..cZ..cZ
    d535:	b111 5aa1 665a b132 5ab3 295a 4c07 5ab4     ..Z.fZ.2Z.)ZL.Z.
    d545:	265a b512 5a4a 035a a566 5ab5 3261 4f04     &Z..ZJ.Z.fZ.2aO.
    d555:	5aa1 3763 5aa1 0a5a b406 635a a1e0 5ab1     Z.7cZ..Z..cZ..Z.
    d565:	3163 5aa1 bc61 4603 5aa1 9863 5ab1 1161     1cZ..aF.Z..cZ..a
    d575:	2c00 5a41 a25a a1e6 5ab1 255a 4509 5ab2     ,.ZA.Z..Z.%ZE.Z.
    d585:	325a b309 5ab3 295a 4c06 5aa4 435a b422     2Z..Z.)ZL.Z.CZ."
    d595:	5ab5 125a 4a07 5aa5 cb5a b531 6122 045a     Z..ZJ.Z..Z.1a".Z
    d5a5:	a1c1 612c 005a b212 6146 035a a19d 635a     ..a,.Z..aF.Z..cZ
    d5b5:	a17c 635a a15d 635a a18a 5ab1 2263 5aa1     .|cZ.]cZ..Z."cZ.
    d5c5:	5a5a b309 5ab4 0261 2c00 5ab5 115a a58a     ZZ..Z..a,.Z..Z..
    d5d5:	5ab5 2e61 2304 5aa1 2b63 5aa1 fd5a b121     Z..a#.Z.+cZ..Z.!
    d5e5:	635a a1d4 6156 0a5a b101 5a4c 025a a466     cZ..aV.Z..ZL.Z.f
    d5f5:	5ab4 265a b50e 5a4a 045a a522 5ab5 3261     Z.&Z..ZJ.Z."Z.2a
    d605:	c007 5ab4 0661 c80d 5ab3 295a b512 5a4a     ..Z..a..Z.)Z..ZJ
    d615:	065a a598 5ab5 3161 c107 5ab6 0e5a b70e     .Z..Z.1a..Z..Z..
    d625:	5ab8 0e61 a40e 5a40 0e5a a022 5ab0 265a     Z..a..Z@.Z."Z.&Z
    d635:	a1e6 5ab1 255a 450c 5ab2 325a b309 5ab5     ..Z.%ZE.Z.2Z..Z.
    d645:	115a ea00 5a4a 085a 6afa 612c 005a 8afb     .Z..ZJ.Zj.a,.Z..
    d655:	5a2a 175a ed00 5a6d f65a 8da5 5a2d 145a     Z*.Z..Zm.Z..Z-.Z
    d665:	4a14 5aa5 225a b52e 5ac6 0c5a f000 5a50     J.Z."Z..Z..Z..ZP
    d675:	175a 7013 5a90 045a 3040 5af3 035a 5304     .Zp.Z..Z0@Z..ZS.
    d685:	5a73 405a 93f3 5a33 705a 530c 5aa6 9861     Zs@Z..Z3pZS.Z..a
    d695:	2c00 5ab6 355a c70c 5af1 005a 5116 5a71     ,.Z.5Z..Z..ZQ.Zq
    d6a5:	435a 91c4 5a31 405a f403 5a54 045a 74d0     CZ..Z1@Z..ZT.Zt.
    d6b5:	5a94 c35a 3470 5a54 0a5a a78a 5ab7 325a     Z..Z4pZT.Z..Z.2Z
    d6c5:	f200 5a52 165a 7293 5a92 c45a 3200 612c     ..ZR.Zr.Z..Z2.a,
    d6d5:	005a 5504 5a75 605a 95f3 5a35 f05a 550a     .ZU.Zu`Z..Z5.ZU.
    d6e5:	5ab8 3262 7e5a a1c1 5ab2 125a a78b 5aa8     Z.2b~Z..Z..Z..Z.
    d6f5:	2363 5aa1 9d63 5aa1 7c63 5aa1 5d63 5aa1     #cZ..cZ.|cZ.]cZ.
    d705:	8a5a b122 6122 045a a15a 612d 005a b232     .Z."a".Z.Za-.Z.2
    d715:	5ab5 0e61 4503 5aa1 2b61 2d00 5ab2 1261     Z..aE.Z.+a-.Z..a
    d725:	4503 5aa1 fd5a b121 635a a1d4 635a b006     E.Z..Z.!cZ..cZ..
    d735:	61c1 075a b101 5ab2 3261 2c00 5a4b 055a     a..Z..Z.2a,.ZK.Z
    d745:	b329 5a4a 155a a566 5ab5 2e61 4603 5ab2     .)ZJ.Z.fZ..aF.Z.
    d755:	1261 1612 5a40 0f5a b026 5a41 805a a166     .a..Z@.Z.&ZA.Z.f
    d765:	5ab1 325a b309 612d 005a b50e 6145 035a     Z.2Z..a-.Z..aE.Z
    d775:	a137 635a a10a 635a a1e0 5ab1 3163 5aa1     .7cZ..cZ..Z.1cZ.
    d785:	bc63 5aa1 9861 4f04 5ab1 115a 41a2 5aa1     .cZ..aO.Z..ZA.Z.
    d795:	e65a b125 5ab2 325a a58a 5ab5 2e63 5aa1     .Z.%Z.2Z..Z..cZ.
    d7a5:	c15a b212 635a b006 5aa1 9d63 5aa1 7c63     .Z..cZ..Z..cZ.|c
    d7b5:	5aa1 5d63 5aa1 8a5a b122 614e 045a a15a     Z.]cZ..Z."aN.Z.Z
    d7c5:	5ab2 325a b329 5ab5 0e63 5aa1 2b5a b212     Z.2Z.)Z..cZ.+Z..
    d7d5:	635a a1fd 5ab1 2163 5aa1 d461 330b 5a40     cZ..Z.!cZ..a3.Z@
    d7e5:	0a5a a098 5ab0 295a b101 5a41 805a a166     .Z..Z.)Z..ZA.Z.f
    d7f5:	5ab1 325a 4500 5aa2 8a5a b232 5ab3 095a     Z.2ZE.Z..Z.2Z..Z
    d805:	4a14 5aa5 225a b532 635a a137 635a a10a     J.Z."Z.2cZ.7cZ..
    d815:	6146 035a a1e0 612c 005a b131 6146 035a     aF.Z..a,.Z.1aF.Z
    d825:	a1bc 635a a198 614e 045a b111 5ab5 1261     ..cZ..aN.Z..Z..a
    d835:	8915 5a41 a25a a1e6 5ab1 255a b212 5a45     ..ZA.Z..Z.%Z..ZE
    d845:	0c5a a243 612c 005a b232 5ab3 295a 4a16     .Z.Ca,.Z.2Z.)ZJ.
    d855:	5aa5 815a b531 6146 035a a1c1 5ab2 1263     Z..Z.1aF.Z..Z..c
    d865:	5aa1 9d63 5aa1 7c63 5aa1 5d63 5aa1 8a5a     Z..cZ.|cZ.]cZ..Z
    d875:	b122 614e 045a a15a 5ab2 325a b309 5ab5     ."aN.Z.ZZ.2Z..Z.
    d885:	1163 5aa1 2b5a b212 635a a1fd 5ab1 2163     .cZ.+Z..cZ..Z.!c
    d895:	5ab0 095a a1d4 6133 0b5a 400e 5aa0 815a     Z..Z..a3.Z@.Z..Z
    d8a5:	b029 5ab1 015a 4180 5aa1 665a b132 5a4a     .)Z..ZA.Z.fZ.2ZJ
    d8b5:	185a a58a 5ab5 2e63 5aa1 3763 5aa1 0a63     .Z..Z..cZ.7cZ..c
    d8c5:	5aa1 e05a b131 635a a1bc 635a a198 614e     Z..Z.1cZ..cZ..aN
    d8d5:	045a b111 5ab3 295a b50e 61c8 0d5a b009     .Z..Z.)Z..a..Z..
    d8e5:	6195 075a 4012 5ac0 0c61 2c00 5aa0 665a     a..Z@.Z..a,.Z.fZ
    d8f5:	b026 5a41 a25a a1e6 5ab1 255a b232 5ab3     .&ZA.Z..Z.%Z.2Z.
    d905:	095a b329 5a4a 175a a598 5ab5 3161 4603     .Z.)ZJ.Z..Z.1aF.
    d915:	5aa1 c161 2c00 5ab2 1261 4603 5aa1 9d63     Z..a,.Z..aF.Z..c
    d925:	5aa1 7c63 5ab0 065a a15d 635a a18a 5ab1     Z.|cZ..Z.]cZ..Z.
    d935:	2261 4e04 5a40 0e5a c00a 5aa0 8a5a b026     "aN.Z@.Z..Z..Z.&
    d945:	5aa1 5a61 2c00 5ab2 325a b309 5ab5 1161     Z.Za,.Z.2Z..Z..a
    d955:	4603 5aa1 2b5a b212 635a a1fd 5ab1 2163     F.Z.+Z..cZ..Z.!c
    d965:	5aa1 d461 330b 5ab1 015a b329 5a4a 155a     Z..a3.Z..Z.)ZJ.Z
    d975:	a5e6 5ab5 3161 560a 5ab0 0663 635a b615     ..Z.1aV.Z..ccZ..
    d985:	5ab7 125a b812 614e 045a b026 5ab2 325a     Z..Z..aN.Z.&Z.2Z
    d995:	b309 5ab5 1163 5ab2 1261 560a 5ab0 0661     ..Z..cZ..aV.Z..a
    d9a5:	c107 5a40 135a c00c 5aa0 225a b026 5aa1     ..Z@.Z..Z."Z.&Z.
    d9b5:	e65a b125 5ab2 325a 4a17 5aa5 225a b52e     .Z.%Z.2ZJ.Z."Z..
    d9c5:	5a53 0a5a b635 5aa7 6661 2c00 5ab7 325a     ZS.Z.5Z.fa,.Z.2Z
    d9d5:	a8e6 5ab8 3161 4603 5aa1 c15a b212 5aa7     ..Z.1aF.Z..Z..Z.
    d9e5:	6763 5aa1 9d63 5aa1 7c63 5aa1 5d63 5aa1     gcZ..cZ.|cZ.]cZ.
    d9f5:	8a5a b122 614e 045a a15a 5ab2 325a b50e     .Z."aN.Z.ZZ.2Z..
    da05:	6146 035a a12b 612c 005a b212 6146 035a     aF.Z.+a,.Z..aF.Z
    da15:	a1fd 5ab1 2163 5aa1 d461 330b 5ab0 065a     ..Z.!cZ..a3.Z..Z
    da25:	b101 612c 005a b232 5ab3 295a a566 5ab5     ..a,.Z.2Z.)Z.fZ.
    da35:	2e61 4603 5ab2 1261 1612 5a40 115a b026     .aF.Z..a..Z@.Z.&
    da45:	5a41 805a a166 5ab1 325a b309 612c 005a     ZA.Z.fZ.2Z..a,.Z
    da55:	b50e 6146 035a a137 635a a10a 635a a1e0     ..aF.Z.7cZ..cZ..
    da65:	5ab1 3163 5aa1 bc63 5aa1 9861 4f04 5ab1     Z.1cZ..cZ..aO.Z.
    da75:	115a 41a2 5aa1 e65a b125 5ab2 325a 4a18     .ZA.Z..Z.%Z.2ZJ.
    da85:	5aa5 8a5a b52e 635a a1c1 5ab2 1263 5aa1     Z..Z..cZ..Z..cZ.
    da95:	9d63 5aa1 7c63 5ab0 065a a15d 635a a18a     .cZ.|cZ..Z.]cZ..
    daa5:	5ab1 2261 4e04 5aa1 5a5a b232 5ab3 295a     Z."aN.Z.ZZ.2Z.)Z
    dab5:	b50e 635a a12b 5ab2 1263 5aa1 fd5a b121     ..cZ.+Z..cZ..Z.!
    dac5:	635a a1d4 6133 0b5a 400c 5ac0 0a5a a098     cZ..a3.Z@.Z..Z..
    dad5:	5ab0 295a b101 5a41 805a a166 5ab1 325a     Z.)Z..ZA.Z.fZ.2Z
    dae5:	4500 5aa2 8a5a b232 5ab3 095a 4a13 5aa5     E.Z..Z.2Z..ZJ.Z.
    daf5:	225a b532 635a a137 635a a10a 6146 035a     "Z.2cZ.7cZ..aF.Z
    db05:	a1e0 612c 005a b131 6146 035a a1bc 614e     ..a,.Z.1aF.Z..aN
    db15:	045a a198 635a b111 612c 005a b512 615d     .Z..cZ..a,.Z..a]
    db25:	155a 41a2 5aa1 e65a b125 5ab2 125a 450c     .ZA.Z..Z.%Z..ZE.
    db35:	5aa2 4361 2c00 5ab2 325a b329 5a4a 165a     Z.Ca,.Z.2Z.)ZJ.Z
    db45:	a581 5ab5 3161 4603 5aa1 c15a b212 635a     ..Z.1aF.Z..Z..cZ
    db55:	a19d 635a a17c 635a a15d 614e 045a a18a     ..cZ.|cZ.]aN.Z..
    db65:	5ab1 2263 5aa1 5a5a b232 5ab3 095a b511     Z."cZ.ZZ.2Z..Z..
    db75:	635a a12b 5ab2 1263 5aa1 fd5a b121 635a     cZ.+Z..cZ..Z.!cZ
    db85:	a1d4 635a b009 61c1 075a a081 5ab0 295a     ..cZ..a..Z..Z.)Z
    db95:	b101 5a41 805a a166 5ab1 325a 4a18 5aa5     ..ZA.Z.fZ.2ZJ.Z.
    dba5:	8a5a b52e 635a a137 635a a10a 635a a1e0     .Z..cZ.7cZ..cZ..
    dbb5:	5ab1 3163 5aa1 bc61 4e04 5aa1 9863 5ab1     Z.1cZ..aN.Z..cZ.
    dbc5:	115a b329 5ab5 0e61 5c15 5ab0 0961 2d00     .Z.)Z..a\.Z..a-.
    dbd5:	5a40 105a c00c 5aa0 665a b026 5a41 a25a     Z@.Z..Z.fZ.&ZA.Z
    dbe5:	a1e6 5ab1 255a b232 5ab3 095a b329 5a4a     ..Z.%Z.2Z..Z.)ZJ
    dbf5:	165a a598 5ab5 3161 4503 5aa1 c161 2d00     .Z..Z.1aE.Z..a-.
    dc05:	5ab2 1261 4503 5aa1 9d63 5aa1 7c63 5aa1     Z..aE.Z..cZ.|cZ.
    dc15:	5d61 4f04 5ab0 065a a18a 5ab1 2263 5a40     ]aO.Z..Z..Z."cZ@
    dc25:	0d5a c00a 5aa0 8a5a b026 5aa1 5a61 2c00     .Z..Z..Z.&Z.Za,.
    dc35:	5ab2 325a b309 5ab5 1161 4603 5aa1 2b5a     Z.2Z..Z..aF.Z.+Z
    dc45:	b212 635a a1fd 5ab1 2163 5aa1 d461 320b     ..cZ..Z.!cZ..a2.
    dc55:	5ab1 015a b329 5a4a 155a a5e6 5ab5 3161     Z..Z.)ZJ.Z..Z.1a
    dc65:	560a 5ab0 0661 c107 5ab6 155a b811 635a     V.Z..a..Z..Z..cZ
    dc75:	b026 5ab3 095a b511 5ab7 1261 c80d 5ab0     .&Z..Z..Z..a..Z.
    dc85:	0661 c007 5a40 0e5a a022 5ab0 265a a1e6     .a..Z@.Z."Z.&Z..
    dc95:	5ab1 255a b232 5a4a 145a a522 5ab5 2e5a     Z.%Z.2ZJ.Z."Z..Z
    dca5:	5308 5aa6 6c5a b635 612d 005a a722 5ab7     S.Z.lZ.5a-.Z."Z.
    dcb5:	325a 550b 5aa8 cb5a b831 6145 035a a1c1     2ZU.Z..Z.1aE.Z..
    dcc5:	5ab2 125a a723 635a a19d 635a a17c 635a     Z..Z.#cZ..cZ.|cZ
    dcd5:	a15d 614f 045a a18a 5ab1 2263 5aa1 5a5a     .]aO.Z..Z."cZ.ZZ
    dce5:	b232 5ab5 0e61 4603 5aa1 2b61 2c00 5ab2     .2Z..aF.Z.+a,.Z.
    dcf5:	1261 4603 5aa1 fd5a b121 635a a1d4 635a     .aF.Z..Z.!cZ..cZ
    dd05:	b006 61c0 075a b101 612c 005a b232 5a4b     ..a..Z..a,.Z.2ZK
    dd15:	065a b329 5a4a 165a a566 5ab5 2e61 4603     .Z.)ZJ.Z.fZ..aF.
    dd25:	5ab2 1261 1712 5a40 0d5a b026 5a41 805a     Z..a..Z@.Z.&ZA.Z
    dd35:	a166 5ab1 3261 2c00 5ab3 095a b50e 6146     .fZ.2a,.Z..Z..aF
    dd45:	035a a137 635a a10a 635a a1e0 5ab1 3163     .Z.7cZ..cZ..Z.1c
    dd55:	5aa1 bc61 4e04 5aa1 9863 5ab1 115a 41a2     Z..aN.Z..cZ..ZA.
    dd65:	5aa1 e65a b125 5ab2 325a 4a15 5aa5 8a5a     Z..Z.%Z.2ZJ.Z..Z
    dd75:	b52e 635a a1c1 5ab2 1263 5aa1 9d63 5ab0     ..cZ..Z..cZ..cZ.
    dd85:	065a a17c 635a a15d 614f 045a a18a 5ab1     .Z.|cZ.]aO.Z..Z.
    dd95:	2263 5aa1 5a5a b232 5ab3 295a b50e 635a     "cZ.ZZ.2Z.)Z..cZ
    dda5:	a12b 5ab2 1263 5aa1 fd5a b121 635a a1d4     .+Z..cZ..Z.!cZ..
    ddb5:	6132 0b5a 4009 5aa0 985a b029 5ab1 015a     a2.Z@.Z..Z.)Z..Z
    ddc5:	4180 5aa1 665a b132 5a45 005a a28a 5ab2     A.Z.fZ.2ZE.Z..Z.
    ddd5:	325a b309 5a4a 105a a522 5ab5 3263 5aa1     2Z..ZJ.Z."Z.2cZ.
    dde5:	3763 5aa1 0a63 5aa1 e05a b131 6146 035a     7cZ..cZ..Z.1aF.Z
    ddf5:	a1bc 614f 045a a198 635a b111 612c 005a     ..aO.Z..cZ..a,.Z
    de05:	b512 615c 155a 41a2 5aa1 e65a b125 5ab2     ..a\.ZA.Z..Z.%Z.
    de15:	125a 450c 5aa2 4361 2c00 5ab2 325a b329     .ZE.Z.Ca,.Z.2Z.)
    de25:	5a4a 145a a581 5ab5 3161 4603 5aa1 c15a     ZJ.Z..Z.1aF.Z..Z
    de35:	b212 635a a19d 635a a17c 635a a15d 614f     ..cZ..cZ.|cZ.]aO
    de45:	045a a18a 5ab1 2263 5aa1 5a5a b232 5ab3     .Z..Z."cZ.ZZ.2Z.
    de55:	095a b511 635a a12b 5ab2 1263 5aa1 fd5a     .Z..cZ.+Z..cZ..Z
    de65:	b121 635a a1d4 635a b009 61c0 075a 400d     .!cZ..cZ..a..Z@.
    de75:	5aa0 815a b029 5ab1 015a 4180 5aa1 665a     Z..Z.)Z..ZA.Z.fZ
    de85:	b132 5a4a 175a a58a 5ab5 2e63 5aa1 3763     .2ZJ.Z..Z..cZ.7c
    de95:	5aa1 0a63 5aa1 e05a b131 614f 045a a1bc     Z..cZ..Z.1aO.Z..
    dea5:	635a a198 635a b111 5ab3 295a b50e 6116     cZ..cZ..Z.)Z..a.
    deb5:	125a b009 6146 035a 400f 612c 005a a066     .Z..aF.Z@.a,.Z.f
    dec5:	5ab0 265a 41a2 5aa1 e65a b125 5ab2 325a     Z.&ZA.Z..Z.%Z.2Z
    ded5:	b309 5ab3 295a 4a16 5aa5 985a b531 6146     ..Z.)ZJ.Z..Z.1aF
    dee5:	035a a1c1 612c 005a b212 6146 035a a19d     .Z..a,.Z..aF.Z..
    def5:	635a a17c 614f 045a b006 5aa1 5d63 5aa1     cZ.|aO.Z..Z.]cZ.
    df05:	8a5a b122 635a 400c 5aa0 8a5a b026 5aa1     .Z."cZ@.Z..Z.&Z.
    df15:	5a61 2c00 5ab2 325a b309 5ab5 1161 4603     Za,.Z.2Z..Z..aF.
    df25:	5aa1 2b5a b212 635a a1fd 5ab1 215a b712     Z.+Z..cZ..Z.!Z..
    df35:	5ab8 1163 5aa1 d461 4e04 5ab6 1563 635a     Z..cZ..aN.Z..ccZ
    df45:	b101 5ab3 295a a5e6 5ab5 3161 560a 5ab0     ..Z.)Z..Z.1aV.Z.
    df55:	0661 330b 5a40 0d5a b026 5ab2 325a b309     .a3.Z@.Z.&Z.2Z..
    df65:	5ab5 1163 5ab2 1261 1612 5ab0 065a a022     Z..cZ..a..Z..Z."
    df75:	5ab0 265a a1e6 5ab1 255a b232 5a4a 175a     Z.&Z..Z.%Z.2ZJ.Z
    df85:	a522 5ab5 2e5a 5309 5aa6 e65a b635 612c     ."Z..ZS.Z..Z.5a,
    df95:	005a a76c 5ab7 355a a822 5ab8 3261 4603     .Z.lZ.5Z."Z.2aF.
    dfa5:	5aa1 c15a b212 5aa8 2363 5aa1 9d63 5aa1     Z..Z..Z.#cZ..cZ.
    dfb5:	7c61 4f04 5aa1 5d63 5aa1 8a5a b122 635a     |aO.Z.]cZ..Z."cZ
    dfc5:	a15a 5ab2 325a b50e 635a a12b 5ab2 1261     .ZZ.2Z..cZ.+Z..a
    dfd5:	4603 5aa1 fd61 2c00 5ab1 2161 4603 5aa1     F.Z..a,.Z.!aF.Z.
    dfe5:	d461 c007 5ab0 0663 5ab1 0161 2c00 5ab2     .a..Z..cZ..a,.Z.
    dff5:	325a b329 5aa5 665a b52e 6146 035a b212     2Z.)Z.fZ..aF.Z..
    e005:	6117 125a 4011 5ac0 0c5a b026 5a41 805a     a..Z@.Z..Z.&ZA.Z
    e015:	a166 5ab1 325a b309 612c 005a b50e 6146     .fZ.2Z..a,.Z..aF
    e025:	035a a137 635a a10a 635a a1e0 5ab1 3161     .Z.7cZ..cZ..Z.1a
    e035:	4e04 5aa1 bc63 5aa1 9863 5ab1 115a 41a2     N.Z..cZ..cZ..ZA.
    e045:	5aa1 e65a b125 5ab2 325a a58a 5ab5 2e63     Z..Z.%Z.2Z..Z..c
    e055:	5aa1 c15a b212 635a a19d 635a b006 5aa1     Z..Z..cZ..cZ..Z.
    e065:	7c61 4f04 5aa1 5d63 5aa1 8a5a b122 635a     |aO.Z.]cZ..Z."cZ
    e075:	a15a 5ab2 325a b329 5ab5 0e63 5aa1 2b5a     .ZZ.2Z.)Z..cZ.+Z
    e085:	b212 635a a1fd 5ab1 2163 5aa1 d461 320b     ..cZ..Z.!cZ..a2.
    e095:	5a40 075a c008 5aa0 985a b029 5ab1 015a     Z@.Z..Z..Z.)Z..Z
    e0a5:	4180 5aa1 665a b132 5a45 005a a28a 5ab2     A.Z.fZ.2ZE.Z..Z.
    e0b5:	325a b309 5a4a 155a a522 5ab5 3263 5aa1     2Z..ZJ.Z."Z.2cZ.
    e0c5:	3763 5aa1 0a63 5aa1 e05a b131 6122 045a     7cZ..cZ..Z.1a".Z
    e0d5:	a1bc 635a a198 635a b111 612d 005a b512     ..cZ..cZ..a-.Z..
    e0e5:	615c 155a 41a2 5aa1 e65a b125 5ab2 125a     a\.ZA.Z..Z.%Z..Z
    e0f5:	450c 612c 005a a243 5ab2 325a b329 5a4a     E.a,.Z.CZ.2Z.)ZJ
    e105:	175a a581 5ab5 3161 4603 5aa1 c15a b212     .Z..Z.1aF.Z..Z..
    e115:	635a a19d 635a a17c 614e 045a b009 5aa1     cZ..cZ.|aN.Z..Z.
    e125:	5d63 5aa1 8a5a b122 635a 400a 5ac0 0a5a     ]cZ..Z."cZ@.Z..Z
    e135:	a081 5ab0 295a a15a 5ab2 325a b309 612d     ..Z.)Z.ZZ.2Z..a-
    e145:	005a b511 6145 035a a12b 5ab2 1263 5aa1     .Z..aE.Z.+Z..cZ.
    e155:	fd5a b121 635a a1d4 6133 0b5a b101 5a41     .Z.!cZ..a3.Z..ZA
    e165:	805a a166 5ab1 325a a58a 5ab5 2e63 5aa1     .Z.fZ.2Z..Z..cZ.
    e175:	3763 5aa1 0a63 5ab0 095a a1e0 5ab1 3161     7cZ..cZ..Z..Z.1a
    e185:	4e04 5aa1 bc63 5aa1 9863 5ab1 115a a166     N.Z..cZ..cZ..Z.f
    e195:	5ab1 325a b329 5ab5 0e5a b615 5ab7 155a     Z.2Z.)Z..Z..Z..Z
    e1a5:	b812 635a a137 635a a10a 635a a1e0 5ab1     ..cZ.7cZ..cZ..Z.
    e1b5:	3161 4f04 5aa1 bc63 5aa1 9863 5ab1 115a     1aO.Z..cZ..cZ..Z
    e1c5:	41a2 5aa1 e65a b125 5ab2 325a b309 5ab3     A.Z..Z.%Z.2Z..Z.
    e1d5:	295a 4a11 5aa5 665a b532 5a53 0c5a a6cb     )ZJ.Z.fZ.2ZS.Z..
    e1e5:	5ab6 355a 540d 5ab7 355a 550d 612c 005a     Z.5ZT.Z.5ZU.a,.Z
    e1f5:	a822 5ab8 3261 1a03 5aa1 c161 2c00 5ab2     ."Z.2a..Z..a,.Z.
    e205:	125a a823 6146 035a a19d 635a a17c 614e     .Z.#aF.Z..cZ.|aN
    e215:	045a a15d 635a a18a 5ab1 2263 5aa1 5a5a     .Z.]cZ..Z."cZ.ZZ
    e225:	b232 612c 005a b309 5ab5 1261 4603 5aa1     .2a,.Z..Z..aF.Z.
    e235:	2b5a b212 635a a1fd 5ab1 2163 5aa1 d461     +Z..cZ..Z.!cZ..a
    e245:	330b 5ab1 015a b232 5a4a 175a a522 5ab5     3.Z..Z.2ZJ.Z."Z.
    e255:	3263 5ab2 1261 1612 5ab2 325a b329 5ab5     2cZ..a..Z.2Z.)Z.
    e265:	1263 5ab2 1261 1712 5a40 0e5a a022 5ab0     .cZ..a..Z@.Z."Z.
    e275:	265a a1e6 5ab1 255a b232 5ab3 095a 4a14     &Z..Z.%Z.2Z..ZJ.
    e285:	5ab5 2e5a 530a 5aa6 0061 2c00 5ab6 005a     Z..ZS.Z..a,.Z..Z
    e295:	a698 5ab6 355a 540b 5aa7 005a b700 5aa7     ..Z.5ZT.Z..Z..Z.
    e2a5:	8a5a b732 5ab8 125a 550b 5aa8 225a b832     .Z.2Z..ZU.Z."Z.2
    e2b5:	6146 035a a1c1 5ab2 125a a823 635a a19d     aF.Z..Z..Z.#cZ..
    e2c5:	5aa7 8b61 4e04 5aa1 7c63 5aa1 5d63 5aa1     Z..aN.Z.|cZ.]cZ.
    e2d5:	8a5a b122 635a a15a 5ab2 325a b50e 635a     .Z."cZ.ZZ.2Z..cZ
    e2e5:	a12b 5ab2 1261 4603 5aa1 fd61 2c00 5ab1     .+Z..aF.Z..a,.Z.
    e2f5:	2161 2304 5aa1 d463 5ab0 0663 635a b101     !a#.Z..cZ..ccZ..
    e305:	612c 005a b232 5a4b 055a b329 5a4a 155a     a,.Z.2ZK.Z.)ZJ.Z
    e315:	a566 5ab5 2e61 4603 5ab2 1261 1612 5a40     .fZ..aF.Z..a..Z@
    e325:	0f5a b026 5a41 805a a166 5ab1 3261 2c00     .Z.&ZA.Z.fZ.2a,.
    e335:	5ab3 095a b50e 6146 035a a137 635a a10a     Z..Z..aF.Z.7cZ..
    e345:	614f 045a a1e0 5ab1 3163 5aa1 bc63 5aa1     aO.Z..Z.1cZ..cZ.
    e355:	9863 5ab1 115a 41a2 5aa1 e65a b125 5ab2     .cZ..ZA.Z..Z.%Z.
    e365:	325a a58a 5ab5 2e61 2c00 5ab8 1261 4603     2Z..Z..a,.Z..aF.
    e375:	5aa1 c15a b212 635a b006 5aa1 9d61 4e04     Z..Z..cZ..Z..aN.
    e385:	5aa1 7c63 5aa1 5d63 5aa1 8a5a b122 635a     Z.|cZ.]cZ..Z."cZ
    e395:	a15a 5ab2 325a b329 5ab5 0e63 5aa1 2b5a     .ZZ.2Z.)Z..cZ.+Z
    e3a5:	b212 635a a1fd 5ab1 2161 4f04 5aa1 d461     ..cZ..Z.!aO.Z..a
    e3b5:	560a 5a40 0a5a a098 5ab0 295a b101 5a41     V.Z@.Z..Z.)Z..ZA
    e3c5:	805a a166 5ab1 325a 4500 5aa2 8a5a b232     .Z.fZ.2ZE.Z..Z.2
    e3d5:	5ab3 095a 4a14 5aa5 225a b532 635a a137     Z..ZJ.Z."Z.2cZ.7
    e3e5:	635a a10a 614e 045a a1e0 5ab1 3161 4603     cZ..aN.Z..Z.1aF.
    e3f5:	5aa1 bc63 5aa1 9863 5ab1 1161 2c00 5ab5     Z..cZ..cZ..a,.Z.
    e405:	1261 5d15 5a41 a25a a1e6 5ab1 255a b212     .a].ZA.Z..Z.%Z..
    e415:	5a45 0c61 2c00 5aa2 435a b232 5ab3 295a     ZE.a,.Z.CZ.2Z.)Z
    e425:	4a16 5aa5 815a b531 6146 035a a1c1 5ab2     J.Z..Z.1aF.Z..Z.
    e435:	1263 5aa1 9d61 4e04 5aa1 7c63 5aa1 5d63     .cZ..aN.Z.|cZ.]c
    e445:	5aa1 8a5a b122 635a a15a 5ab2 325a b309     Z..Z."cZ.ZZ.2Z..
    e455:	5ab5 1163 5aa1 2b5a b212 635a a1fd 5ab1     Z..cZ.+Z..cZ..Z.
    e465:	2161 4f04 5ab0 095a a1d4 6156 0a5a 400e     !aO.Z..Z..aV.Z@.
    e475:	5aa0 815a b029 5ab1 015a 4180 5aa1 665a     Z..Z.)Z..ZA.Z.fZ
    e485:	b132 5a4a 185a a58a 5ab5 2e63 5aa1 3763     .2ZJ.Z..Z..cZ.7c
    e495:	5aa1 0a61 4e04 5aa1 e05a b131 635a a1bc     Z..aN.Z..Z.1cZ..
    e4a5:	635a a198 635a b111 5ab3 295a b50e 61a5     cZ..cZ..Z.)Z..a.
    e4b5:	0e5a b009 61b7 065a 4012 612d 005a c00c     .Z..a..Z@.a-.Z..
    e4c5:	5aa0 665a b026 5a41 a25a a1e6 5ab1 255a     Z.fZ.&ZA.Z..Z.%Z
    e4d5:	b232 5ab3 095a b329 5a4a 175a a598 5ab5     .2Z..Z.)ZJ.Z..Z.
    e4e5:	3161 4503 5aa1 c161 2d00 5ab2 1261 4503     1aE.Z..a-.Z..aE.
    e4f5:	5aa1 9d61 4f04 5aa1 7c63 5ab0 065a a15d     Z..aO.Z.|cZ..Z.]
    e505:	635a a18a 5ab1 2263 5a40 0e5a c00a 5aa0     cZ..Z."cZ@.Z..Z.
    e515:	8a5a b026 5aa1 5a61 2c00 5ab2 325a b309     .Z.&Z.Za,.Z.2Z..
    e525:	5ab5 1161 4603 5aa1 2b5a b212 635a a1fd     Z..aF.Z.+Z..cZ..
    e535:	5ab1 2161 4e04 5aa1 d461 560a 5ab1 015a     Z.!aN.Z..aV.Z..Z
    e545:	b329 5a4a 155a a5e6 5ab5 3161 330b 5ab0     .)ZJ.Z..Z.1a3.Z.
    e555:	0661 560a 5ab0 265a b232 5ab3 095a b511     .aV.Z.&Z.2Z..Z..
    e565:	5ab6 1561 2c00 5ab7 1261 4603 5ab2 1261     Z..a,.Z..aF.Z..a
    e575:	320b 5ab0 0663 635a 4013 5ac0 0c5a a022     2.Z..ccZ@.Z..Z."
    e585:	5ab0 265a a1e6 5ab1 255a b232 5a4a 175a     Z.&Z..Z.%Z.2ZJ.Z
    e595:	a522 5ab5 2e5a 5309 5ab6 3561 2d00 5aa7     ."Z..ZS.Z.5a-.Z.
    e5a5:	665a b732 5a55 0a5a a8e6 5ab8 3161 4503     fZ.2ZU.Z..Z.1aE.
    e5b5:	5aa1 c15a b212 5aa7 6763 5aa1 9d61 4f04     Z..Z..Z.gcZ..aO.
    e5c5:	5aa1 7c63 5aa1 5d63 5aa1 8a5a b122 635a     Z.|cZ.]cZ..Z."cZ
    e5d5:	a15a 5ab2 325a b50e 635a a12b 5ab2 1263     .ZZ.2Z..cZ.+Z..c
    e5e5:	5aa1 fd5a b121 6122 045a a1d4 6156 0a5a     Z..Z.!a".Z..aV.Z
    e5f5:	b006 612c 005a b101 5ab2 325a b329 5aa5     ..a,.Z..Z.2Z.)Z.
    e605:	665a b52e 6146 035a b212 6117 125a 4011     fZ..aF.Z..a..Z@.
    e615:	5ab0 265a 4180 5aa1 665a b132 612c 005a     Z.&ZA.Z.fZ.2a,.Z
    e625:	b309 5ab5 0e61 4603 5aa1 3763 5aa1 0a61     ..Z..aF.Z.7cZ..a
    e635:	4e04 5aa1 e05a b131 635a a1bc 635a a198     N.Z..Z.1cZ..cZ..
    e645:	635a b111 5a41 a25a a1e6 5ab1 255a b232     cZ..ZA.Z..Z.%Z.2
    e655:	5a4a 185a a58a 5ab5 2e63 5aa1 c15a b212     ZJ.Z..Z..cZ..Z..
    e665:	635a a19d 614f 045a a17c 635a b006 5aa1     cZ..aO.Z.|cZ..Z.
    e675:	5d63 5aa1 8a5a b122 635a a15a 5ab2 325a     ]cZ..Z."cZ.ZZ.2Z
    e685:	b329 5ab5 0e63 5aa1 2b5a b212 614e 045a     .)Z..cZ.+Z..aN.Z
    e695:	a1fd 5ab1 2163 5aa1 d461 560a 5a40 0c5a     ..Z.!cZ..aV.Z@.Z
    e6a5:	c00a 5aa0 985a b029 5ab1 015a 4180 5aa1     ..Z..Z.)Z..ZA.Z.
    e6b5:	665a b132 5a45 005a a28a 5ab2 325a b309     fZ.2ZE.Z..Z.2Z..
    e6c5:	5a4a 135a a522 5ab5 3263 5aa1 3761 4f04     ZJ.Z."Z.2cZ.7aO.
    e6d5:	5aa1 0a63 5aa1 e05a b131 635a a1bc 6146     Z..cZ..Z.1cZ..aF
    e6e5:	035a a198 635a b111 612c 005a b512 615c     .Z..cZ..a,.Z..a\
    e6f5:	155a 41a2 5aa1 e65a b125 5ab2 125a 450c     .ZA.Z..Z.%Z..ZE.
    e705:	612c 005a a243 5ab2 325a b329 5a4a 165a     a,.Z.CZ.2Z.)ZJ.Z
    e715:	a581 5ab5 3161 4603 5aa1 c15a b212 614f     ..Z.1aF.Z..Z..aO
    e725:	045a a19d 635a a17c 635a a15d 635a a18a     .Z..cZ.|cZ.]cZ..
    e735:	5ab1 2263 5aa1 5a5a b232 5ab3 095a b511     Z."cZ.ZZ.2Z..Z..
    e745:	635a a12b 5ab2 1261 4e04 5aa1 fd5a b121     cZ.+Z..aN.Z..Z.!
    e755:	635a a1d4 635a b009 6363 5aa0 815a b029     cZ..cZ..ccZ..Z.)
    e765:	5ab1 015a 4180 5aa1 665a b132 5a4a 185a     Z..ZA.Z.fZ.2ZJ.Z
    e775:	a58a 5ab5 2e63 5aa1 3761 4f04 5aa1 0a63     ..Z..cZ.7aO.Z..c
    e785:	5aa1 e05a b131 635a a1bc 635a a198 635a     Z..Z.1cZ..cZ..cZ
    e795:	b111 5ab3 295a b50e 6188 155a b009 5a40     ..Z.)Z..a..Z..Z@
    e7a5:	105a c00c 5aa0 665a b026 5a41 a25a a1e6     .Z..Z.fZ.&ZA.Z..
    e7b5:	5ab1 255a b232 5ab3 095a b329 5a4a 165a     Z.%Z.2Z..Z.)ZJ.Z
    e7c5:	a598 5ab5 3161 4603 5aa1 c161 2c00 5ab2     ..Z.1aF.Z..a,.Z.
    e7d5:	1261 2304 5aa1 9d63 5aa1 7c63 5aa1 5d63     .a#.Z..cZ.|cZ.]c
    e7e5:	5ab0 065a a18a 5ab1 2263 5a40 0d5a c00a     Z..Z..Z."cZ@.Z..
    e7f5:	5aa0 8a5a b026 612c 005a a15a 5ab2 325a     Z..Z.&a,.Z.ZZ.2Z
    e805:	b309 5ab5 1161 4603 5aa1 2b5a b212 614e     ..Z..aF.Z.+Z..aN
    e815:	045a a1fd 5ab1 2163 5aa1 d461 560a 5ab1     .Z..Z.!cZ..aV.Z.
    e825:	015a b329 5a4a 155a a5e6 5ab5 3161 330b     .Z.)ZJ.Z..Z.1a3.
    e835:	5ab0 0663 635a b811 635a b026 5ab3 095a     Z..ccZ..cZ.&Z..Z
    e845:	b511 5ab6 1563 5ab7 1261 320b 5ab0 0663     ..Z..cZ..a2.Z..c
    e855:	635a 400e 5aa0 225a b026 5aa1 e65a b125     cZ@.Z."Z.&Z..Z.%
    e865:	5ab2 325a 4a14 5aa5 225a b52e 5a53 0a5a     Z.2ZJ.Z."Z..ZS.Z
    e875:	a66c 5ab6 3561 2c00 5a54 0a5a a722 5ab7     .lZ.5a,.ZT.Z."Z.
    e885:	325a 550c 5aa8 cb5a b831 6146 035a a1c1     2ZU.Z..Z.1aF.Z..
    e895:	5ab2 125a a723 614f 045a a19d 635a a17c     Z..Z.#aO.Z..cZ.|
    e8a5:	635a a15d 635a a18a 5ab1 2263 5aa1 5a5a     cZ.]cZ..Z."cZ.ZZ
    e8b5:	b232 5ab5 0e63 5aa1 2b5a b212 614e 045a     .2Z..cZ.+Z..aN.Z
    e8c5:	a1fd 5ab1 2161 4603 5aa1 d463 5ab0 0663     ..Z.!aF.Z..cZ..c
    e8d5:	635a b101 612c 005a b232 5a4b 065a b329     cZ..a,.Z.2ZK.Z.)
    e8e5:	5a4a 165a a566 5ab5 2e61 4603 5ab2 1261     ZJ.Z.fZ..aF.Z..a
    e8f5:	1712 5a40 0d5a b026 5a41 805a a166 5ab1     ..Z@.Z.&ZA.Z.fZ.
    e905:	3261 2c00 5ab3 095a b50e 6146 035a a137     2a,.Z..Z..aF.Z.7
    e915:	614e 045a a10a 635a a1e0 5ab1 3163 5aa1     aN.Z..cZ..Z.1cZ.
    e925:	bc63 5aa1 9863 5ab1 115a 41a2 5aa1 e65a     .cZ..cZ..ZA.Z..Z
    e935:	b125 5ab2 325a 4a15 5aa5 8a5a b52e 635a     .%Z.2ZJ.Z..Z..cZ
    e945:	a1c1 5ab2 1261 4f04 5aa1 9d63 5ab0 065a     ..Z..aO.Z..cZ..Z
    e955:	a17c 635a a15d 635a a18a 5ab1 2263 5aa1     .|cZ.]cZ..Z."cZ.
    e965:	5a5a b232 5ab3 295a b50e 635a a12b 5ab2     ZZ.2Z.)Z..cZ.+Z.
    e975:	1261 4e04 5aa1 fd5a b121 635a a1d4 6156     .aN.Z..Z.!cZ..aV
    e985:	0a5a 4009 5aa0 985a b029 5ab1 015a 4180     .Z@.Z..Z.)Z..ZA.
    e995:	5aa1 665a b132 5a45 005a a28a 5ab2 325a     Z.fZ.2ZE.Z..Z.2Z
    e9a5:	b309 5a4a 105a a522 5ab5 3263 5aa1 3761     ..ZJ.Z."Z.2cZ.7a
    e9b5:	4f04 5aa1 0a63 5aa1 e05a b131 635a a1bc     O.Z..cZ..Z.1cZ..
    e9c5:	6145 035a a198 635a b111 612d 005a b512     aE.Z..cZ..a-.Z..
    e9d5:	615c 155a 41a2 5aa1 e65a b125 5ab2 1261     a\.ZA.Z..Z.%Z..a
    e9e5:	2c00 5a45 0c5a a243 5ab2 325a b329 5a4a     ,.ZE.Z.CZ.2Z.)ZJ
    e9f5:	145a a581 5ab5 3161 4603 5aa1 c15a b212     .Z..Z.1aF.Z..Z..
    ea05:	614e 045a a19d 635a a17c 635a a15d 635a     aN.Z..cZ.|cZ.]cZ
    ea15:	a18a 5ab1 2263 5aa1 5a5a b232 5ab3 095a     ..Z."cZ.ZZ.2Z..Z
    ea25:	b511 635a a12b 5ab2 1261 4f04 5aa1 fd5a     ..cZ.+Z..aO.Z..Z
    ea35:	b121 635a a1d4 635a b009 6363 5a40 0d5a     .!cZ..cZ..ccZ@.Z
    ea45:	a081 5ab0 295a b101 5a41 805a a166 5ab1     ..Z.)Z..ZA.Z.fZ.
    ea55:	325a 4a17 5aa5 8a5a b52e 635a a137 614e     2ZJ.Z..Z..cZ.7aN
    ea65:	045a a10a 635a a1e0 5ab1 3163 5aa1 bc63     .Z..cZ..Z.1cZ..c
    ea75:	5aa1 9863 5ab1 115a b329 5ab5 0e61 1712     Z..cZ..Z.)Z..a..
    ea85:	5ab0 0963 5a40 0f5a a066 5ab0 265a 41a2     Z..cZ@.Z.fZ.&ZA.
    ea95:	5aa1 e65a b125 5ab2 325a b309 5ab3 295a     Z..Z.%Z.2Z..Z.)Z
    eaa5:	4a16 5aa5 985a b531 6122 045a a1c1 612c     J.Z..Z.1a".Z..a,
    eab5:	005a b212 6146 035a a19d 635a a17c 635a     .Z..aF.Z..cZ.|cZ
    eac5:	b006 5aa1 5d63 5aa1 8a5a b122 635a 400c     ..Z.]cZ..Z."cZ@.
    ead5:	5aa0 8a5a b026 612c 005a a15a 5ab2 325a     Z..Z.&a,.Z.ZZ.2Z
    eae5:	b309 5ab5 1161 2304 5aa1 2b5a b212 635a     ..Z..a#.Z.+Z..cZ
    eaf5:	a1fd 5ab1 2163 5aa1 d461 560a 5ab1 015a     ..Z.!cZ..aV.Z..Z
    eb05:	b329 5aa5 e65a b531 61c0 075a b712 5ab8     .)Z..Z.1a..Z..Z.
    eb15:	1163 5ab0 0663 5ab6 1563 635a 400d 5ab0     .cZ..cZ..ccZ@.Z.
    eb25:	265a b232 5ab3 095a b511 614f 045a b212     &Z.2Z..Z..aO.Z..
    eb35:	613a 115a b006 5aa0 225a b026 5aa1 e65a     a:.Z..Z."Z.&Z..Z
    eb45:	b125 5ab2 325a 4a17 5aa5 225a b52e 5a53     .%Z.2ZJ.Z."Z..ZS
    eb55:	0c61 2c00 5aa6 985a b635 5aa7 8a5a b732     .a,.Z..Z.5Z..Z.2
    eb65:	5a55 0a5a a822 5ab8 3261 2204 5aa1 c15a     ZU.Z."Z.2a".Z..Z
    eb75:	b212 5aa7 8b5a a823 635a a19d 635a a17c     ..Z..Z.#cZ..cZ.|
    eb85:	635a a15d 635a a18a 5ab1 2263 5aa1 5a5a     cZ.]cZ..Z."cZ.ZZ
    eb95:	b232 5ab5 0e61 4f04 5aa1 2b5a b212 635a     .2Z..aO.Z.+Z..cZ
    eba5:	a1fd 5ab1 2161 4603 5aa1 d463 635a b006     ..Z.!aF.Z..ccZ..
    ebb5:	635a b101 612c 005a b232 5ab3 295a a566     cZ..a,.Z.2Z.)Z.f
    ebc5:	5ab5 2e61 2204 5ab2 1261 3a11 5a40 115a     Z..a".Z..a:.Z@.Z
    ebd5:	c00c 5ab0 265a 4180 5aa1 665a b132 612c     ..Z.&ZA.Z.fZ.2a,
    ebe5:	005a b309 5ab5 0e61 2304 5aa1 3763 5aa1     .Z..Z..a#.Z.7cZ.
    ebf5:	0a63 5aa1 e05a b131 635a a1bc 635a a198     .cZ..Z.1cZ..cZ..
    ec05:	635a b111 5a41 a25a a1e6 5ab1 255a b232     cZ..ZA.Z..Z.%Z.2
    ec15:	5aa5 8a5a b52e 614e 045a a1c1 5ab2 1263     Z..Z..aN.Z..Z..c
    ec25:	5aa1 9d63 5ab0 065a a17c 635a a15d 635a     Z..cZ..Z.|cZ.]cZ
    ec35:	a18a 5ab1 2263 5aa1 5a5a b232 5ab3 295a     ..Z."cZ.ZZ.2Z.)Z
    ec45:	b50e 614f 045a a12b 5ab2 1263 5aa1 fd5a     ..aO.Z.+Z..cZ..Z
    ec55:	b121 635a a1d4 6156 0a5a 4007 5ac0 085a     .!cZ..aV.Z@.Z..Z
    ec65:	a098 5ab0 295a b101 5a41 805a a166 5ab1     ..Z.)Z..ZA.Z.fZ.
    ec75:	325a 4500 5aa2 8a5a b232 5ab3 095a 4a15     2ZE.Z..Z.2Z..ZJ.
    ec85:	5aa5 225a b532 614e 045a a137 635a a10a     Z."Z.2aN.Z.7cZ..
    ec95:	635a a1e0 5ab1 3163 5aa1 bc63 5aa1 9863     cZ..Z.1cZ..cZ..c
    eca5:	5ab1 115a b512 615d 155a 41a2 5aa1 e65a     Z..Z..a].ZA.Z..Z
    ecb5:	b125 5ab2 1261 2c00 5a45 0c5a a243 5ab2     .%Z..a,.ZE.Z.CZ.
    ecc5:	325a b329 5a4a 175a a581 5ab5 3161 2204     2Z.)ZJ.Z..Z.1a".
    ecd5:	5aa1 c15a b212 635a a19d 635a a17c 635a     Z..Z..cZ..cZ.|cZ
    ece5:	b009 5aa1 5d63 5aa1 8a5a b122 635a 400a     ..Z.]cZ..Z."cZ@.
    ecf5:	5ac0 0a5a a081 5ab0 295a a15a 5ab2 3261     Z..Z..Z.)Z.ZZ.2a
    ed05:	2c00 5ab3 095a b511 6123 045a a12b 5ab2     ,.Z..Z..a#.Z.+Z.
    ed15:	1263 5aa1 fd5a b121 635a a1d4 6156 0a5a     .cZ..Z.!cZ..aV.Z
    ed25:	b101 5a41 805a a166 5ab1 325a a58a 5ab5     ..ZA.Z.fZ.2Z..Z.
    ed35:	2e61 4e04 5aa1 3763 5aa1 0a63 5ab0 095a     .aN.Z.7cZ..cZ..Z
    ed45:	a1e0 5ab1 3163 5aa1 bc63 5aa1 9863 5ab1     ..Z.1cZ..cZ..cZ.
    ed55:	115a a166 5ab1 325a b329 5ab5 0e61 4f04     .Z.fZ.2Z.)Z..aO.
    ed65:	5aa1 3763 5aa1 0a63 5aa1 e05a b131 635a     Z.7cZ..cZ..Z.1cZ
    ed75:	a1bc 635a a198 635a b111 5a41 a25a a1e6     ..cZ..cZ..ZA.Z..
    ed85:	5ab1 255a b232 5ab3 095a b329 5a4a 115a     Z.%Z.2Z..Z.)ZJ.Z
    ed95:	a566 5ab5 3261 4e04 5aa1 c15a b212 6146     .fZ.2aN.Z..Z..aF
    eda5:	035a a19d 635a a17c 635a a15d 635a a18a     .Z..cZ.|cZ.]cZ..
    edb5:	5ab1 2263 5aa1 5a61 2c00 5ab2 325a b309     Z."cZ.Za,.Z.2Z..
    edc5:	5ab5 1261 2304 5aa1 2b5a b212 635a a1fd     Z..a#.Z.+Z..cZ..
    edd5:	5ab1 2163 5aa1 d461 560a 5ab1 015a b232     Z.!cZ..aV.Z..Z.2
    ede5:	5a4a 175a a522 5ab5 3261 2c00 5ab6 155a     ZJ.Z."Z.2a,.Z..Z
    edf5:	b712 5ab8 1261 2204 5ab2 1261 3a11 5ab2     ..Z..a".Z..a:.Z.
    ee05:	325a b329 5ab5 1261 4f04 5ab2 1261 1612     2Z.)Z..aO.Z..a..
    ee15:	5ab3 095a c500 5aea 035a 4a00 5a6a f95a     Z..Z..Z..ZJ.Zj.Z
    ee25:	8a27 5a2a 305a ed01 5a6d f85a 8d18 5a2d     .'Z*0Z..Zm.Z..Z-
    ee35:	2861 2c00 5ab5 2661 4603 5aa5 2463 5aa5     (a,.Z.&aF.Z.$cZ.
    ee45:	2563 5aa5 2663 5ab5 0661 c107 5aa5 665a     %cZ.&cZ..a..Z.fZ
    ee55:	b526 635a a568 635a a569 635a b506 6106     .&cZ.hcZ.icZ..a.
    ee65:	0b5a 4a0d 612c 005a a522 5ab5 2a61 4603     .ZJ.a,.Z."Z.*aF.
    ee75:	5aa5 2463 5aa5 2563 5aa5 2663 5ab5 0a61     Z.$cZ.%cZ.&cZ..a
    ee85:	c007 5a4a 0b5a a598 5ab5 2963 5aa5 9963     ..ZJ.Z..Z.)cZ..c
    ee95:	5aa5 9a63 5aa5 9b63 5ab5 0961 c107 5a4a     Z..cZ..cZ..a..ZJ
    eea5:	095a a56c 5ab5 2963 5aa5 6d63 635a b509     .Z.lZ.)cZ.mccZ..
    eeb5:	6132 0b5a 4a00 5aa5 985a b529 635a a599     a2.ZJ.Z..Z.)cZ..
    eec5:	635a a59a 635a b509 6133 0b5a c50c 5aea     cZ..cZ..a3.Z..Z.
    eed5:	025a 4a18 5a6a f05a 8a14 5a2a 815a ed00     .ZJ.Zj.Z..Z*.Z..
    eee5:	5a6d a65a 8d7f 5a2d 885a a543 5ab5 2e63     Zm.Z..Z-.Z.CZ..c
    eef5:	5aa5 2261 7327 5ab5 0e5a a543 5ab5 2e63     Z."as'Z..Z.CZ..c
    ef05:	5aa5 2263 635a b50e 61bb 205a a543 5ab5     Z."ccZ..a. Z.CZ.
    ef15:	2e63 5aa5 2261 1612 5a41 815a a166 5ab1     .cZ."a..ZA.Z.fZ.
    ef25:	325a b50e 5aa5 435a b52e 635a a137 5aa5     2Z..Z.CZ..cZ.7Z.
    ef35:	2263 5aa1 0a63 5ab1 125a 4182 5aa1 665a     "cZ..cZ..ZA.Z.fZ
    ef45:	b132 635a a137 635a a10a 614f 045a b112     .2cZ.7cZ..aO.Z..
    ef55:	5aa1 665a b132 5ab5 0e63 5aa1 3761 4603     Z.fZ.2Z..cZ.7aF.
    ef65:	5aa1 0a63 5ab1 1261 bb20 5aa1 665a b132     Z..cZ..a. Z.fZ.2
    ef75:	635a a137 635a a10a 635a b112 6132 0b5a     cZ.7cZ..cZ..a2.Z
    ef85:	a166 5ab1 3263 5aa1 3763 5ab1 1261 a50e     .fZ.2cZ.7cZ..a..
    ef95:	5ac0 095a e000 5a40 005a 8015 5a20 015a     Z..Z..Z@.Z..Z .Z
    efa5:	e303 5a63 f65a 8316 5a23 015a a022 5ab0     ..Zc.Z..Z#.Z."Z.
    efb5:	265a 41a2 5aa1 e65a b125 612c 005a 4507     &ZA.Z..Z.%a,.ZE.
    efc5:	5ab2 325a c504 5aea 005a 4a11 5a6a 625a     Z.2Z..Z..ZJ.ZjbZ
    efd5:	8a01 5a2a d15a ed03 5a6d f25a 8d39 5a2d     ..Z*.Z..Zm.Z.9Z-
    efe5:	705a 4a20 5ab5 2661 4603 5aa1 c15a b212     pZJ Z.&aF.Z..Z..
    eff5:	635a a19d 635a b006 5aa1 7c63 5aa1 5d63     cZ..cZ..Z.|cZ.]c
    f005:	5aa1 8a5a b122 614e 045a b026 5aa1 5a63     Z..Z."aN.Z.&Z.Zc
    f015:	5aa1 2b63 5ab0 065a a1fd 5ab1 2163 5aa1     Z.+cZ..Z..Z.!cZ.
    f025:	d461 b806 5ab5 0661 4f04 5ab0 2661 2c00     .a..Z..aO.Z.&a,.
    f035:	5ab1 015a 4b05 5ab3 295a 4c09 5ab4 265a     Z..ZK.Z.)ZL.Z.&Z
    f045:	b52a 612a 0a5a b006 5ab5 0a63 635a b406     .*a*.Z..Z..ccZ..
    f055:	614e 045a b026 5a41 805a a166 5ab1 325a     aN.Z.&ZA.Z.fZ.2Z
    f065:	b309 612c 005a 4c0e 5aa4 435a b422 5ab5     ..a,.ZL.Z.CZ."Z.
    f075:	2e61 4603 5aa1 3763 5ab0 065a a10a 5ab5     .aF.Z.7cZ..Z..Z.
    f085:	0e63 5aa1 e05a b131 635a a1bc 635a a198     .cZ..Z.1cZ..cZ..
    f095:	614f 045a b026 5ab1 115a 41a2 5aa1 e65a     aO.Z.&Z..ZA.Z..Z
    f0a5:	b125 5a45 0d5a a28a 5ab2 3261 2c00 5ab4     .%ZE.Z..Z.2a,.Z.
    f0b5:	0261 4603 5aa1 c163 5aa1 9d63 5ab0 065a     .aF.Z..cZ..cZ..Z
    f0c5:	a17c 635a a15d 635a a18a 5ab1 2261 4e04     .|cZ.]cZ..Z."aN.
    f0d5:	5ab0 265a a15a 5ab3 295a 4a30 5ab5 2e63     Z.&Z.ZZ.)ZJ0Z..c
    f0e5:	5aa1 2b63 5ab0 065a a1fd 5ab1 2163 5aa1     Z.+cZ..Z..Z.!cZ.
    f0f5:	d45a b50e 6133 0b5a b026 5ab1 015a 4180     .Z..a3.Z.&Z..ZA.
    f105:	5aa1 665a b132 5ab3 095a 4c07 5aa4 665a     Z.fZ.2Z..ZL.Z.fZ
    f115:	b426 5a4a 2d5a b52a 635a a137 635a a10a     .&ZJ-Z.*cZ.7cZ..
    f125:	5ab5 0a63 5ab0 065a a1e0 5ab1 3163 5aa1     Z..cZ..Z..Z.1cZ.
    f135:	bc61 4e04 5aa1 9863 5ab0 265a b111 5a4a     .aN.Z..cZ.&Z..ZJ
    f145:	205a b52e 61b8 065a b006 61a5 0e5a b026      Z..a..Z..a..Z.&
    f155:	5a41 a25a a1e6 5ab1 2561 2c00 5ab2 125a     ZA.Z..Z.%a,.Z..Z
    f165:	4507 5aa2 435a b232 5ab3 295a b406 5ab5     E.Z.CZ.2Z.)Z..Z.
    f175:	0e5a 4a2d 5aa5 985a b52d 6146 035a a1c1     .ZJ-Z..Z.-aF.Z..
    f185:	5ab2 1263 5aa1 9d63 5ab0 065a a17c 635a     Z..cZ..cZ..Z.|cZ
    f195:	a15d 614e 045a a18a 5ab1 2263 5ab0 265a     .]aN.Z..Z."cZ.&Z
    f1a5:	a15a 5ab3 0963 5aa1 2b63 5ab0 065a a1fd     .ZZ..cZ.+cZ..Z..
    f1b5:	5ab1 2163 5aa1 d461 330b 5ab0 265a b101     Z.!cZ..a3.Z.&Z..
    f1c5:	5a41 805a a166 5ab1 325a 4c06 5ab4 265a     ZA.Z.fZ.2ZL.Z.&Z
    f1d5:	b50d 5a4a 2661 2c00 5aa5 6c5a b52d 6146     ..ZJ&a,.Z.lZ.-aF
    f1e5:	035a a137 635a a10a 635a b006 5aa1 e05a     .Z.7cZ..cZ..Z..Z
    f1f5:	b131 635a a1bc 5ab4 065a b50d 614e 045a     .1cZ..Z..Z..aN.Z
    f205:	a198 635a b026 5ab1 115a b329 5a4c 0a5a     ..cZ.&Z..Z.)ZL.Z
    f215:	a443 5ab4 225a a566 5ab5 2a63 635a b006     .CZ."Z.fZ.*ccZ..
    f225:	6363 5ab5 0a61 c107 5aa0 985a b025 5a41     ccZ..a..Z..Z.%ZA
    f235:	a25a a1e6 5ab1 255a 4504 5aa2 8a5a b232     .Z..Z.%ZE.Z..Z.2
    f245:	5ab3 095a b329 5a4a 295a a58a 5ab5 2a63     Z..Z.)ZJ)Z..Z.*c
    f255:	5aa1 c163 5ab0 055a a19d 5ab4 0261 4503     Z..cZ..Z..Z..aE.
    f265:	5aa1 7c61 2d00 5ab5 0a61 4503 5aa1 5d61     Z.|a-.Z..aE.Z.]a
    f275:	4f04 5aa1 8a5a b122 635a a0e6 5ab0 255a     O.Z..Z."cZ..Z.%Z
    f285:	a15a 612c 005a b309 5a4c 065a b422 5a4a     .Za,.Z..ZL.Z."ZJ
    f295:	2d5a a56c 5ab5 2d61 4603 5aa1 2b63 5aa1     -Z.lZ.-aF.Z.+cZ.
    f2a5:	fd5a b121 635a a1d4 635a b50d 614e 045a     .Z.!cZ..cZ..aN.Z
    f2b5:	b005 635a a098 5ab0 255a b101 5ab3 2961     ..cZ..Z.%Z..Z.)a
    f2c5:	2d00 5ab4 025a 4c04 5aa4 665a b426 5a4a     -.Z..ZL.Z.fZ.&ZJ
    f2d5:	305a a598 5ab5 2d61 b706 5ab0 0563 635a     0Z..Z.-a..Z..ccZ
    f2e5:	b50d 61c1 075a a0e6 5ab0 255a b309 5a4a     ..a..Z..Z.%Z..ZJ
    f2f5:	235a a5e6 5ab5 2d61 560a 5ab5 0d63 5ab0     #Z..Z.-aV.Z..cZ.
    f305:	055a b406 61c0 075a a022 5ab0 265a a1e6     .Z..a..Z."Z.&Z..
    f315:	5ab1 255a b212 5a45 075a a243 5ab2 325a     Z.%Z..ZE.Z.CZ.2Z
    f325:	a522 5ab5 2663 5aa1 c15a b212 635a a19d     ."Z.&cZ..Z..cZ..
    f335:	635a b006 5aa1 7c63 5aa1 5d61 4f04 5aa1     cZ..Z.|cZ.]aO.Z.
    f345:	8a5a b122 635a b026 5aa1 5a63 5aa1 2b63     .Z."cZ.&Z.ZcZ.+c
    f355:	5aa1 fd5a b121 635a b006 5aa1 d463 5ab5     Z..Z.!cZ..Z..cZ.
    f365:	0661 9407 5ab0 2661 2c00 5ab1 015a b329     .a..Z.&a,.Z..Z.)
    f375:	5a4c 075a b426 5ab5 2a61 b806 5ab5 0a63     ZL.Z.&Z.*a..Z..c
    f385:	5ab0 0661 c107 5ab4 0663 5ab0 265a 4180     Z..a..Z..cZ.&ZA.
    f395:	5aa1 665a b132 612c 005a b309 5a4c 0d5a     Z.fZ.2a,.Z..ZL.Z
    f3a5:	a443 5ab4 225a 4a1d 5ab5 2e61 4603 5aa1     .CZ."ZJ.Z..aF.Z.
    f3b5:	3763 5aa1 0a5a b50e 635a b006 5aa1 e05a     7cZ..Z..cZ..Z..Z
    f3c5:	b131 635a a1bc 614e 045a a198 635a b026     .1cZ..aN.Z..cZ.&
    f3d5:	5ab1 115a 41a2 5aa1 e65a b125 5a45 065a     Z..ZA.Z..Z.%ZE.Z
    f3e5:	a28a 5ab2 3261 2c00 5ab4 0261 4603 5aa1     ..Z.2a,.Z..aF.Z.
    f3f5:	c163 5aa1 9d63 5ab0 065a a17c 635a a15d     .cZ..cZ..Z.|cZ.]
    f405:	614f 045a a18a 5ab1 2263 5ab0 265a a15a     aO.Z..Z."cZ.&Z.Z
    f415:	5ab3 295a 4a29 5ab5 2e63 5aa1 2b63 5aa1     Z.)ZJ)Z..cZ.+cZ.
    f425:	fd5a b121 5ab5 0e63 5ab0 065a a1d4 6132     .Z.!Z..cZ..Z..a2
    f435:	0b5a b026 5ab1 015a 4180 5aa1 665a b132     .Z.&Z..ZA.Z.fZ.2
    f445:	5ab3 095a 4c04 5aa4 665a b426 5a4a 305a     Z..ZL.Z.fZ.&ZJ0Z
    f455:	b52a 635a a137 635a a10a 5ab5 0a63 5ab0     .*cZ.7cZ..Z..cZ.
    f465:	065a a1e0 5ab1 3163 5aa1 bc61 4f04 5aa1     .Z..Z.1cZ..aO.Z.
    f475:	9863 5ab0 265a b111 5a4a 235a b52e 61b8     .cZ.&Z..ZJ#Z..a.
    f485:	065a b006 635a b406 612c 005a b50e 6106     .Z..cZ..a,.Z..a.
    f495:	0b5a b026 5a41 a25a a1e6 5ab1 2561 2c00     .Z.&ZA.Z..Z.%a,.
    f4a5:	5ab2 125a a243 5ab2 325a b329 5a4a 2d5a     Z..Z.CZ.2Z.)ZJ-Z
    f4b5:	b52a 6146 035a a1c1 5ab2 1263 5aa1 9d63     .*aF.Z..Z..cZ..c
    f4c5:	5ab0 065a a17c 5ab5 0a63 5aa1 5d61 4f04     Z..Z.|Z..cZ.]aO.
    f4d5:	5aa1 8a5a b122 635a b026 5aa1 5a5a b309     Z..Z."cZ.&Z.ZZ..
    f4e5:	5a4a 205a b52e 635a a12b 635a b006 5aa1     ZJ Z..cZ.+cZ..Z.
    f4f5:	fd5a b121 635a a1d4 61c0 075a b50e 635a     .Z.!cZ..a..Z..cZ
    f505:	b026 5ab1 015a 4180 5aa1 665a b132 5a4c     .&Z..ZA.Z.fZ.2ZL
    f515:	065a b426 5a4a 325a a598 5ab5 2d63 5aa1     .Z.&ZJ2Z..Z.-cZ.
    f525:	3763 5ab0 065a a10a 635a a1e0 5ab1 3161     7cZ..Z..cZ..Z.1a
    f535:	4f04 5aa1 bc63 5aa1 985a b406 5ab5 0d63     O.Z..cZ..Z..Z..c
    f545:	5ab0 265a b111 5ab3 295a 4c0c 5aa4 435a     Z.&Z..Z.)ZL.Z.CZ
    f555:	b422 5a4a 235a a56c 5ab5 2d63 635a b006     ."ZJ#Z.lZ.-ccZ..
    f565:	635a b50d 6132 0b5a b026 5a41 a25a a1e6     cZ..a2.Z.&ZA.Z..
    f575:	5ab1 255a 4504 5aa2 8a5a b232 5ab3 095a     Z.%ZE.Z..Z.2Z..Z
    f585:	b329 5ab4 025a 4a30 5aa5 665a b52a 635a     .)Z..ZJ0Z.fZ.*cZ
    f595:	a1c1 635a b006 5aa1 9d61 4603 5aa1 7c61     ..cZ..Z..aF.Z.|a
    f5a5:	4f04 5aa1 5d61 2c00 5ab5 0a61 4603 5aa1     O.Z.]a,.Z..aF.Z.
    f5b5:	8a5a b122 635a b026 5aa1 5a61 2c00 5ab3     .Z."cZ.&Z.Za,.Z.
    f5c5:	095a 4c06 5ab4 225a 4a2d 5aa5 8a5a b52a     .ZL.Z."ZJ-Z..Z.*
    f5d5:	6146 035a a12b 635a a1fd 5ab1 2163 5ab0     aF.Z.+cZ..Z.!cZ.
    f5e5:	065a a1d4 5ab5 0a61 320b 5aa0 985a b025     .Z..Z..a2.Z..Z.%
    f5f5:	5ab1 015a b329 612c 005a b402 5a4c 045a     Z..Z.)a,.Z..ZL.Z
    f605:	a466 5ab4 265a 4a29 5aa5 6c5a b52d 612a     .fZ.&ZJ)Z.lZ.-a*
    f615:	0a5a b005 614f 045a b50d 6363 5aa0 e65a     .Z..aO.Z..ccZ..Z
    f625:	b025 5ab3 095a 4a23 5aa5 e65a b52d 635a     .%Z..ZJ#Z..Z.-cZ
    f635:	b406 6132 0b5a b005 5ab5 0d63 635a a098     ..a2.Z..Z..ccZ..
    f645:	5ab0 255a a1e6 5ab1 255a b212 5a45 065a     Z.%Z..Z.%Z..ZE.Z
    f655:	a243 5ab2 325a 4a2d 5aa5 225a b526 635a     .CZ.2ZJ-Z."Z.&cZ
    f665:	a1c1 5ab2 1263 5aa1 9d63 5ab0 055a a17c     ..Z..cZ..cZ..Z.|
    f675:	614f 045a a15d 635a a18a 5ab1 2263 5aa0     aO.Z.]cZ..Z."cZ.
    f685:	225a b026 5aa1 5a63 5aa1 2b63 5aa1 fd5a     "Z.&Z.ZcZ.+cZ..Z
    f695:	b121 635a a1d4 614e 045a b006 61b8 065a     .!cZ..aN.Z..a..Z
    f6a5:	b026 612c 005a b101 5a4b 065a b329 5a4c     .&a,.Z..ZK.Z.)ZL
    f6b5:	065a b426 5ab5 065a 4a20 5ab5 2a61 b806     .Z.&Z..ZJ Z.*a..
    f6c5:	5ab5 0a63 5ab0 0661 4f04 5ab4 0663 635a     Z..cZ..aO.Z..ccZ
    f6d5:	b026 5a41 805a a166 5ab1 3261 2c00 5ab3     .&ZA.Z.fZ.2a,.Z.
    f6e5:	095a 4c0c 5aa4 435a b422 5a4a 235a b52e     .ZL.Z.CZ."ZJ#Z..
    f6f5:	6146 035a a137 5ab5 0e63 5aa1 0a63 5ab0     aF.Z.7Z..cZ..cZ.
    f705:	065a a1e0 5ab1 3161 4e04 5aa1 bc63 5aa1     .Z..Z.1aN.Z..cZ.
    f715:	9863 5ab0 265a b111 5a41 a25a a1e6 5ab1     .cZ.&Z..ZA.Z..Z.
    f725:	255a a28a 5ab2 3261 2c00 5ab4 0261 4603     %Z..Z.2a,.Z..aF.
    f735:	5aa1 c163 5aa1 9d63 5ab0 065a a17c 614f     Z..cZ..cZ..Z.|aO
    f745:	045a a15d 635a a18a 5ab1 2263 5ab0 265a     .Z.]cZ..Z."cZ.&Z
    f755:	a15a 5ab3 295a 4a20 5ab5 2e63 5aa1 2b63     .ZZ.)ZJ Z..cZ.+c
    f765:	5aa1 fd5a b121 635a b006 5aa1 d45a b50e     Z..Z.!cZ..Z..Z..
    f775:	6132 0b5a b026 5ab1 015a 4180 5aa1 665a     a2.Z.&Z..ZA.Z.fZ
    f785:	b132 5ab3 095a 4c02 5aa4 665a b426 5a4a     .2Z..ZL.Z.fZ.&ZJ
    f795:	3f5a b52a 635a a137 635a b006 5aa1 0a63     ?Z.*cZ.7cZ..Z..c
    f7a5:	5aa1 e05a b131 5ab5 0a61 4f04 5aa1 bc63     Z..Z.1Z..aO.Z..c
    f7b5:	5aa1 9863 5ab0 265a b111 5a4a 205a b52e     Z..cZ.&Z..ZJ Z..
    f7c5:	61b7 065a b006 612d 005a b406 6178 0e5a     a..Z..a-.Z..ax.Z
    f7d5:	b026 5a41 a25a a1e6 612c 005a b125 5ab2     .&ZA.Z..a,.Z.%Z.
    f7e5:	125a 4507 5aa2 435a b232 5ab3 295a b50e     .ZE.Z.CZ.2Z.)Z..
    f7f5:	5a4a 2b5a a598 5ab5 2d61 4603 5aa1 c15a     ZJ+Z..Z.-aF.Z..Z
    f805:	b212 635a a19d 635a b006 5aa1 7c61 4e04     ..cZ..cZ..Z.|aN.
    f815:	5aa1 5d63 5aa1 8a5a b122 635a b026 5aa1     Z.]cZ..Z."cZ.&Z.
    f825:	5a5a b309 635a a12b 635a b006 5aa1 fd5a     ZZ..cZ.+cZ..Z..Z
    f835:	b121 635a a1d4 61c1 075a b50d 635a b026     .!cZ..a..Z..cZ.&
    f845:	5ab1 015a 4180 5aa1 665a b132 5a4c 065a     Z..ZA.Z.fZ.2ZL.Z
    f855:	b426 5a4a 205a a56c 5ab5 2d63 5aa1 3763     .&ZJ Z.lZ.-cZ.7c
    f865:	5ab0 065a a10a 635a a1e0 5ab1 3161 4e04     Z..Z..cZ..Z.1aN.
    f875:	5aa1 bc63 5aa1 985a b406 635a b026 5ab1     Z..cZ..Z..cZ.&Z.
    f885:	115a b329 5a4c 0a5a a443 5ab4 225a 4a29     .Z.)ZL.Z.CZ."ZJ)
    f895:	5aa5 005a b500 5aa5 665a b52a 6156 0a5a     Z..Z..Z.fZ.*aV.Z
    f8a5:	b006 6133 0b5a a098 5ab0 255a 41a2 5aa1     ..a3.Z..Z.%ZA.Z.
    f8b5:	e65a b125 5a45 065a a28a 5ab2 325a b309     .Z.%ZE.Z..Z.2Z..
    f8c5:	5ab3 295a b402 5ab5 0a5a 4a23 5aa5 8a5a     Z.)Z..Z..ZJ#Z..Z
    f8d5:	b52a 635a a1c1 635a b005 5aa1 9d61 4603     .*cZ..cZ..Z..aF.
    f8e5:	5aa1 7c61 4e04 5aa1 5d61 2c00 5ab5 0a61     Z.|aN.Z.]a,.Z..a
    f8f5:	4603 5aa1 8a5a b122 635a a0e6 5ab0 255a     F.Z..Z."cZ..Z.%Z
    f905:	a15a 612c 005a b309 5a4c 065a b422 5a4a     .Za,.Z..ZL.Z."ZJ
    f915:	265a a56c 5ab5 2d61 4603 5aa1 2b63 5aa1     &Z.lZ.-aF.Z.+cZ.
    f925:	fd5a b121 635a a1d4 614f 045a b005 6363     .Z.!cZ..aO.Z..cc
    f935:	5aa0 985a b025 5ab1 015a b329 612c 005a     Z..Z.%Z..Z.)a,.Z
    f945:	b402 5a4c 025a a466 5ab4 265a b50d 5a4a     ..ZL.Z.fZ.&Z..ZJ
    f955:	2d5a a598 5ab5 2d61 b806 5ab0 0561 c007     -Z..Z.-a..Z..a..
    f965:	5ab5 0d63 635a a0e6 5ab0 255a b309 5a4a     Z..ccZ..Z.%Z..ZJ
    f975:	205a a5e6 5ab5 2d61 560a 5ab0 055a b406      Z..Z.-aV.Z..Z..
    f985:	61c1 075a b50d 635a a022 5ab0 265a a1e6     a..Z..cZ."Z.&Z..
    f995:	5ab1 255a b212 5a45 045a a243 5ab2 325a     Z.%Z..ZE.Z.CZ.2Z
    f9a5:	a56c 5ab5 2963 5aa1 c15a b212 635a a19d     .lZ.)cZ..Z..cZ..
    f9b5:	614e 045a b006 5aa1 7c63 5aa1 5d63 5aa1     aN.Z..Z.|cZ.]cZ.
    f9c5:	8a5a b122 635a b026 5aa1 5a63 5aa1 2b63     .Z."cZ.&Z.ZcZ.+c
    f9d5:	5aa1 fd5a b121 614f 045a b006 5aa1 d461     Z..Z.!aO.Z..Z..a
    f9e5:	2a0a 5ab0 2661 2c00 5ab1 015a b329 5a4c     *.Z.&a,.Z..Z.)ZL
    f9f5:	075a b426 5ab5 095a 4a23 5aa5 985a b529     .Z.&Z..ZJ#Z..Z.)
    fa05:	6106 0b5a b006 6363 5ab4 0663 5ab0 265a     a..Z..ccZ..cZ.&Z
    fa15:	4180 5aa1 665a b132 612c 005a b309 5a4c     A.Z.fZ.2a,.Z..ZL
    fa25:	0a5a a443 5ab4 2261 4603 5aa1 3763 5aa1     .Z.CZ."aF.Z.7cZ.
    fa35:	0a61 4f04 5ab0 065a a1e0 5ab1 315a b509     .aO.Z..Z..Z.1Z..
    fa45:	635a a1bc 635a a198 635a b026 5ab1 115a     cZ..cZ..cZ.&Z..Z
    fa55:	41a2 5aa1 e65a b125 5a45 075a a28a 5ab2     A.Z..Z.%ZE.Z..Z.
    fa65:	3261 2c00 5ab4 025a 4a26 5aa5 e65a b529     2a,.Z..ZJ&Z..Z.)
    fa75:	6146 035a a1c1 635a b006 5aa1 9d61 4e04     aF.Z..cZ..Z..aN.
    fa85:	5aa1 7c63 5aa1 5d63 5aa1 8a5a b122 5ab5     Z.|cZ.]cZ..Z."Z.
    fa95:	0963 5ab0 265a a15a 5ab3 295a 4a20 5aa5     .cZ.&Z.ZZ.)ZJ Z.
    faa5:	225a b52a 635a a12b 635a a1fd 5ab1 2161     "Z.*cZ.+cZ..Z.!a
    fab5:	4f04 5aa1 d463 5ab0 065a b50a 6363 5ab0     O.Z..cZ..Z..ccZ.
    fac5:	265a b101 5a41 805a a166 5ab1 325a b309     &Z..ZA.Z.fZ.2Z..
    fad5:	5a4c 045a a466 5ab4 265a 4a2d 5aa5 985a     ZL.Z.fZ.&ZJ-Z..Z
    fae5:	b529 635a a137 5ab5 0963 5ab0 065a a10a     .)cZ.7Z..cZ..Z..
    faf5:	614e 045a a1e0 5ab1 3163 5aa1 bc63 5aa1     aN.Z..Z.1cZ..cZ.
    fb05:	9863 5aa0 8a5a b026 5ab1 115a 4a29 5aa5     .cZ..Z.&Z..ZJ)Z.
    fb15:	e65a b529 6179 0e5a b406 612c 005a b509     .Z.)ay.Z..a,.Z..
    fb25:	6146 035a b006 635a a0e6 5ab0 255a 41a2     aF.Z..cZ..Z.%ZA.
    fb35:	5aa1 e661 2c00 5ab1 255a b212 5a45 065a     Z..a,.Z.%Z..ZE.Z
    fb45:	a243 5ab2 325a b329 5a4a 2b5a a598 5ab5     .CZ.2Z.)ZJ+Z..Z.
    fb55:	2961 4603 5aa1 c15a b212 612c 005a b509     )aF.Z..Z..a,.Z..
    fb65:	6146 035a b005 5aa1 9d61 4e04 5aa1 7c63     aF.Z..Z..aN.Z.|c
    fb75:	5aa1 5d63 5aa1 8a5a b122 635a a022 5ab0     Z.]cZ..Z."cZ."Z.
    fb85:	265a a15a 5ab3 095a 4c02 612c 005a b426     &Z.ZZ..ZL.a,.Z.&
    fb95:	5a4a 205a a522 5ab5 2a61 4603 5aa1 2b63     ZJ Z."Z.*aF.Z.+c
    fba5:	5aa1 fd5a b121 614f 045a a1d4 635a b50a     Z..Z.!aO.Z..cZ..
    fbb5:	635a b006 5ab4 0663 5aa0 e65a b025 5ab1     cZ..Z..cZ..Z.%Z.
    fbc5:	015a 4180 5aa1 665a b132 5a4a 2d5a a5e6     .ZA.Z.fZ.2ZJ-Z..
    fbd5:	5ab5 2963 5aa1 3763 5aa1 0a5a b509 614e     Z.)cZ.7cZ..Z..aN
    fbe5:	045a a1e0 5ab1 3163 5ab0 055a a1bc 635a     .Z..Z.1cZ..Z..cZ
    fbf5:	a198 635a a098 5ab0 255a b111 5aa1 665a     ..cZ..Z.%Z..Z.fZ
    fc05:	b132 5ab3 295a 4c07 5ab4 265a 4a1d 5aa5     .2Z.)ZL.Z.&ZJ.Z.
    fc15:	665a b52a 635a a137 635a b005 5aa1 0a61     fZ.*cZ.7cZ..Z..a
    fc25:	4f04 5aa1 e05a b131 635a a1bc 635a a198     O.Z..Z.1cZ..cZ..
    fc35:	5ab4 065a b50a 635a a022 5ab0 265a b111     Z..Z..cZ."Z.&Z..
    fc45:	5a41 a25a a1e6 5ab1 255a a28a 5ab2 325a     ZA.Z..Z.%Z..Z.2Z
    fc55:	b309 5ab3 295a 4c06 5aa4 435a b422 5a4a     ..Z.)ZL.Z.CZ."ZJ
    fc65:	265a a522 5ab5 2a63 5aa1 c163 5aa1 9d61     &Z."Z.*cZ..cZ..a
    fc75:	2204 5aa1 7c63 5aa1 5d61 2c00 5ab5 0a61     ".Z.|cZ.]a,.Z..a
    fc85:	4603 5ab0 0661 2c00 5aa1 8a5a b122 6146     F.Z..a,.Z..Z."aF
    fc95:	035a a0e6 5ab0 2561 2c00 5aa1 5a5a b309     .Z..Z.%a,.Z.ZZ..
    fca5:	5ab4 025a 4a1d 5aa5 6c5a b52d 6146 035a     Z..ZJ.Z.lZ.-aF.Z
    fcb5:	a12b 635a a1fd 5ab1 2161 4f04 5aa1 d463     .+cZ..Z.!aO.Z..c
    fcc5:	5ab5 0d63 5ab0 0563 5aa0 6c5a b029 5ab1     Z..cZ..cZ.lZ.)Z.
    fcd5:	015a 4c04 5aa4 665a b426 612c 005a 4a2b     .ZL.Z.fZ.&a,.ZJ+
    fce5:	5aa5 985a b52d 615c 155a b329 61a5 0e5a     Z..Z.-a\.Z.)a..Z
    fcf5:	b406 635a b50d 635a b009 5aa0 225a b026     ..cZ..cZ..Z."Z.&
    fd05:	5aa1 e65a b125 5ab2 125a 4502 5aa2 435a     Z..Z.%Z..ZE.Z.CZ
    fd15:	b232 5ab3 095a 4a23 612c 005a a522 5ab5     .2Z..ZJ#a,.Z."Z.
    fd25:	2661 4603 5aa1 c15a b212 635a a19d 614e     &aF.Z..Z..cZ..aN
    fd35:	045a b006 5aa1 7c63 5aa1 5d63 5aa1 8a5a     .Z..Z.|cZ.]cZ..Z
    fd45:	b122 635a b026 5aa1 5a63 5aa1 2b63 5ab0     ."cZ.&Z.ZcZ.+cZ.
    fd55:	065a a1fd 5ab1 2161 4f04 5aa1 d463 5ab5     .Z..Z.!aO.Z..cZ.
    fd65:	0663 635a b026 5ab1 015a 4b05 5ab3 295a     .ccZ.&Z..ZK.Z.)Z
    fd75:	b426 5a4a 265a b52a 6106 0b5a b006 612c     .&ZJ&Z.*a..Z..a,
    fd85:	005a b50a 61b8 065a b406 635a b026 5a41     .Z..a..Z..cZ.&ZA
    fd95:	805a a166 5ab1 3261 2c00 5ab3 095a 4c0e     .Z.fZ.2a,.Z..ZL.
    fda5:	5aa4 435a b422 6146 035a a137 635a b006     Z.CZ."aF.Z.7cZ..
    fdb5:	5aa1 0a61 4e04 5aa1 e05a b131 635a a1bc     Z..aN.Z..Z.1cZ..
    fdc5:	635a a198 635a b026 5ab1 115a 41a2 5aa1     cZ..cZ.&Z..ZA.Z.
    fdd5:	e65a b125 5a45 065a a28a 5ab2 3261 2d00     .Z.%ZE.Z..Z.2a-.
    fde5:	5a4a 205a b52e 6145 035a a1c1 5ab4 0263     ZJ Z..aE.Z..Z..c
    fdf5:	5aa1 9d61 4f04 5ab0 065a a17c 5ab5 0e63     Z..aO.Z..Z.|Z..c
    fe05:	5aa1 5d63 5aa1 8a5a b122 635a b026 5aa1     Z.]cZ..Z."cZ.&Z.
    fe15:	5a5a b329 5a4a 355a b52a 635a a12b 614e     ZZ.)ZJ5Z.*cZ.+aN
    fe25:	045a b006 5aa1 fd5a b121 5ab5 0a63 5aa1     .Z..Z..Z.!Z..cZ.
    fe35:	d461 560a 5ab0 265a b101 5a41 805a a166     .aV.Z.&Z..ZA.Z.f
    fe45:	5ab1 325a b309 5a4c 045a a466 5ab4 265a     Z.2Z..ZL.Z.fZ.&Z
    fe55:	4a26 5ab5 2e63 5aa1 3761 4f04 5aa1 0a63     J&Z..cZ.7aO.Z..c
    fe65:	5ab0 065a a1e0 5ab1 3163 5aa1 bc63 5aa1     Z..Z..Z.1cZ..cZ.
    fe75:	9863 5ab0 265a b111 5ab5 0e5a 4a2d 5aa5     .cZ.&Z..Z..ZJ-Z.
    fe85:	e65a b52d 61c0 075a b006 6146 035a b406     .Z.-a..Z..aF.Z..
    fe95:	635a b50d 6363 5ab0 265a 41a2 5aa1 e661     cZ..ccZ.&ZA.Z..a
    fea5:	2c00 5ab1 255a b212 5aa2 435a b232 5ab3     ,.Z.%Z..Z.CZ.2Z.
    feb5:	295a a598 5ab5 2d61 4603 5aa1 c15a b212     )Z..Z.-aF.Z..Z..
    fec5:	614f 045a a19d 5ab5 0d63 5ab0 065a a17c     aO.Z..Z..cZ..Z.|
    fed5:	635a a15d 635a a18a 5ab1 2263 5ab0 265a     cZ.]cZ..Z."cZ.&Z
    fee5:	a15a 5ab3 095a 4a30 5aa5 6c5a b52d 635a     .ZZ..ZJ0Z.lZ.-cZ
    fef5:	a12b 614e 045a b006 5aa1 fd5a b121 5ab5     .+aN.Z..Z..Z.!Z.
    ff05:	0d63 5aa1 d461 560a 5ab0 265a b101 5a41     .cZ..aV.Z.&Z..ZA
    ff15:	805a a166 5ab1 325a b426 5a4a 295a b52d     .Z.fZ.2Z.&ZJ)Z.-
    ff25:	635a a137 614f 045a a10a 635a b006 5aa1     cZ.7aO.Z..cZ..Z.
    ff35:	e05a b131 635a a1bc 635a a198 5ab4 065a     .Z.1cZ..cZ..Z..Z
    ff45:	b50d 635a b026 5ab1 115a b329 5a4c 0e5a     ..cZ.&Z..Z.)ZL.Z
    ff55:	a443 5ab4 225a 4a20 5aa5 985a b52d 61c0     .CZ."ZJ Z..Z.-a.
    ff65:	075a b006 6363 5ab5 0d63 635a a098 5ab0     .Z..ccZ..ccZ..Z.
    ff75:	255a 41a2 5aa1 e65a b125 5aa2 8a5a b232     %ZA.Z..Z.%Z..Z.2
    ff85:	5ab3 095a b329 5a4a 235a a56c 5ab5 2d63     Z..Z.)ZJ#Z.lZ.-c
    ff95:	5aa1 c15a b402 614f 045a b005 5aa1 9d63     Z..Z..aO.Z..Z..c
    ffa5:	5aa1 7c61 4603 5aa1 5d61 2c00 5ab5 0d61     Z.|aF.Z.]a,.Z..a
    ffb5:	4603 5aa1 8a5a b122 635a a0e6 5ab0 2561     F.Z..Z."cZ..Z.%a
    ffc5:	2c00 5aa1 5a5a b309 5a4c 065a b422 5a4a     ,.Z.ZZ..ZL.Z."ZJ
    ffd5:	205a a58a 5ab5 2a61 4603 5aa1 2b61 4e04      Z..Z.*aF.Z.+aN.
    ffe5:	5aa1 fd5a b121 635a a1d4 5ab5 0a63 635a     Z..Z.!cZ..Z..ccZ
    fff5:	b005 635a a098 5ab0 255a b101 5ab3 2961     ..cZ..Z.%Z..Z.)a
   10005:	2c00 5ab4 025a 4c04 5aa4 665a b426 5a4a     ,.Z..ZL.Z.fZ.&ZJ
   10015:	2d5a a566 5ab5 2a61 9507 5ab0 0561 c80d     -Z.fZ.*a..Z..a..
   10025:	5aa0 e65a b025 5ab3 095a b50a 5aa5 8a5a     Z..Z.%Z..Z..Z..Z
   10035:	b52a 61c0 075a b406 635a b50a 635a b005     .*a..Z..cZ..cZ..
   10045:	6363 5aa0 225a b026 5aa1 e65a b125 5ab2     ccZ."Z.&Z..Z.%Z.
   10055:	125a a243 5ab2 325a 4a20 5aa5 225a b526     .Z.CZ.2ZJ Z."Z.&
   10065:	635a a1c1 5ab2 1261 4f04 5aa1 9d63 5ab0     cZ..Z..aO.Z..cZ.
   10075:	065a a17c 635a a15d 635a a18a 5ab1 2263     .Z.|cZ.]cZ..Z."c
   10085:	5ab0 265a a15a 635a a12b 614e 045a a1fd     Z.&Z.ZcZ.+aN.Z..
   10095:	5ab1 2163 5ab0 065a a1d4 6363 5ab5 0663     Z.!cZ..Z..ccZ..c
   100a5:	5ab0 265a b101 5ab3 295a 4c06 5ab4 265a     Z.&Z..Z.)ZL.Z.&Z
   100b5:	b52a 6195 075a b50a 635a b006 6363 5ab4     .*a..Z..cZ..ccZ.
   100c5:	0663 5ab0 265a 4180 5aa1 665a b132 612c     .cZ.&ZA.Z.fZ.2a,
   100d5:	005a b309 5a4c 0c5a a443 5ab4 2261 4603     .Z..ZL.Z.CZ."aF.
   100e5:	5aa1 3761 4e04 5aa1 0a63 5ab0 065a a1e0     Z.7aN.Z..cZ..Z..
   100f5:	5ab1 3163 5aa1 bc63 5aa1 9863 5ab0 265a     Z.1cZ..cZ..cZ.&Z
   10105:	b111 5a41 a25a a1e6 5ab1 255a 4507 5aa2     ..ZA.Z..Z.%ZE.Z.
   10115:	8a61 2c00 5ab2 325a b52e 6146 035a a1c1     .a,.Z.2Z..aF.Z..
   10125:	5ab4 025a b50e 614f 045a a19d 635a b006     Z..Z..aO.Z..cZ..
   10135:	5aa1 7c63 5aa1 5d63 5aa1 8a5a b122 635a     Z.|cZ.]cZ..Z."cZ
   10145:	b026 5aa1 5a5a b329 5a4a 2d5a b52e 635a     .&Z.ZZ.)ZJ-Z..cZ
   10155:	a12b 614e 045a a1fd 5ab1 215a b50e 635a     .+aN.Z..Z.!Z..cZ
   10165:	b006 5aa1 d461 560a 5ab0 265a b101 5a41     ..Z..aV.Z.&Z..ZA
   10175:	805a a166 5ab1 325a b309 5a4c 025a a466     .Z.fZ.2Z..ZL.Z.f
   10185:	5ab4 265a 4a37 5ab5 2a63 5aa1 3761 4f04     Z.&ZJ7Z.*cZ.7aO.
   10195:	5aa1 0a5a b50a 635a b006 5aa1 e05a b131     Z..Z..cZ..Z..Z.1
   101a5:	635a a1bc 635a a198 635a b026 5ab1 115a     cZ..cZ..cZ.&Z..Z
   101b5:	4a20 5ab5 2e61 c007 5ab0 065a b406 612a     J Z..a..Z..Z..a*
   101c5:	0a5a b50e 635a b026 5a41 a261 2c00 5aa1     .Z..cZ.&ZA.a,.Z.
   101d5:	e65a b125 5ab2 125a 4504 5aa2 435a b232     .Z.%Z..ZE.Z.CZ.2
   101e5:	5ab3 295a 4a26 5aa5 665a b52a 6146 035a     Z.)ZJ&Z.fZ.*aF.Z
   101f5:	a1c1 5ab2 1261 4f04 5aa1 9d5a b50a 635a     ..Z..aO.Z..Z..cZ
   10205:	b006 5aa1 7c63 5aa1 5d63 5aa1 8a5a b122     ..Z.|cZ.]cZ..Z."
   10215:	635a b026 5aa1 5a5a b309 5a4a 305a a598     cZ.&Z.ZZ..ZJ0Z..
   10225:	5ab5 2d63 5aa1 2b61 4e04 5ab0 065a a1fd     Z.-cZ.+aN.Z..Z..
   10235:	5ab1 2163 5aa1 d463 5ab5 0d63 635a b026     Z.!cZ..cZ..ccZ.&
   10245:	5ab1 015a 4180 5aa1 665a b132 5a4c 065a     Z..ZA.Z.fZ.2ZL.Z
   10255:	b426 5a4a 2661 2c00 5aa5 6c5a b52d 6146     .&ZJ&a,.Z.lZ.-aF
   10265:	035a a137 614f 045a b006 5aa1 0a63 5aa1     .Z.7aO.Z..Z..cZ.
   10275:	e05a b131 5ab5 0d63 5aa1 bc63 5aa1 985a     .Z.1Z..cZ..cZ..Z
   10285:	b406 635a b026 5ab1 115a b329 5a4c 095a     ..cZ.&Z..Z.)ZL.Z
   10295:	a443 5ab4 225a 4a23 5ab5 2d61 c007 5ab0     .CZ."ZJ#Z.-a..Z.
   102a5:	065a b50d 61c8 0d5a b026 5a41 a25a a1e6     .Z..a..Z.&ZA.Z..
   102b5:	5ab1 255a 4506 5aa2 8a5a b232 5ab3 095a     Z.%ZE.Z..Z.2Z..Z
   102c5:	b329 5a4a 205a a598 5ab5 2d61 4f04 5aa1     .)ZJ Z..Z.-aO.Z.
   102d5:	c15a b402 635a b006 5aa1 9d63 5aa1 7c61     .Z..cZ..Z..cZ.|a
   102e5:	4503 5aa1 5d63 5aa1 8a5a b122 612d 005a     E.Z.]cZ..Z."a-.Z
   102f5:	b50d 6145 035a b026 612d 005a a15a 5ab3     ..aE.Z.&a-.Z.ZZ.
   10305:	095a 4c06 5ab4 225a 4a29 5aa5 6c5a b52d     .ZL.Z."ZJ)Z.lZ.-
   10315:	6122 045a a12b 635a a1fd 5ab1 215a b50d     a".Z.+cZ..Z.!Z..
   10325:	635a b006 5aa1 d461 560a 5aa0 985a b025     cZ..Z..aV.Z..Z.%
   10335:	5ab1 0161 2c00 5ab3 295a b402 5a4c 045a     Z..a,.Z.)Z..ZL.Z
   10345:	a466 5ab4 265a 4a23 5aa5 985a b52d 6106     .fZ.&ZJ#Z..Z.-a.
   10355:	0b5a b005 6156 0a5a a0e6 5ab0 255a b309     .Z..aV.Z..Z.%Z..
   10365:	61c1 075a b406 6363 5ab0 0563 635a a098     a..Z..ccZ..ccZ..
   10375:	5ab0 255a a1e6 5ab1 255a b212 5aa2 435a     Z.%Z..Z.%Z..Z.CZ
   10385:	b232 5a4a 325a a500 5ab5 005a a522 612c     .2ZJ2Z..Z..Z."a,
   10395:	005a b526 6122 045a a1c1 5ab2 1263 5aa1     .Z.&a".Z..Z..cZ.
   103a5:	9d63 5ab0 055a a17c 635a a15d 635a a18a     .cZ..Z.|cZ.]cZ..
   103b5:	5ab1 2263 5aa0 225a b026 5aa1 5a61 4f04     Z."cZ."Z.&Z.ZaO.
   103c5:	5aa1 2b63 5aa1 fd5a b121 635a a1d4 635a     Z.+cZ..Z.!cZ..cZ
   103d5:	b006 635a b506 635a b026 5ab1 015a 4b06     ..cZ..cZ.&Z..ZK.
   103e5:	5ab3 295a 4c06 5ab4 265a 4a2b 5ab5 2a61     Z.)ZL.Z.&ZJ+Z.*a
   103f5:	9407 5ab5 0a63 5ab0 0663 635a b406 635a     ..Z..cZ..ccZ..cZ
   10405:	b026 5a41 805a a166 5ab1 3261 2c00 5ab3     .&ZA.Z.fZ.2a,.Z.
   10415:	095a 4c0c 5aa4 435a b422 5a4a 235a b52e     .ZL.Z.CZ."ZJ#Z..
   10425:	6123 045a a137 5ab5 0e63 5aa1 0a63 5ab0     a#.Z.7Z..cZ..cZ.
   10435:	065a a1e0 5ab1 3163 5aa1 bc63 5aa1 9863     .Z..Z.1cZ..cZ..c
   10445:	5ab0 265a b111 5a41 a25a a1e6 5ab1 2561     Z.&Z..ZA.Z..Z.%a
   10455:	2c00 5aa2 8a5a b232 5ab4 025a b52e 6122     ,.Z..Z.2Z..Z..a"
   10465:	045a a1c1 635a a19d 635a b006 5aa1 7c63     .Z..cZ..cZ..Z.|c
   10475:	5aa1 5d63 5aa1 8a5a b122 5ab5 0e63 5ab0     Z.]cZ..Z."Z..cZ.
   10485:	265a a15a 5ab3 295a 4a37 5aa5 985a b52d     &Z.ZZ.)ZJ7Z..Z.-
   10495:	614f 045a a12b 635a a1fd 5ab1 2163 5ab0     aO.Z.+cZ..Z.!cZ.
   104a5:	065a a1d4 635a b50d 6363 5ab0 265a b101     .Z..cZ..ccZ.&Z..
   104b5:	5a41 805a a166 5ab1 325a b309 5a4c 025a     ZA.Z.fZ.2Z..ZL.Z
   104c5:	a466 5ab4 265a 4a2b 5aa5 6c5a b52d 614e     .fZ.&ZJ+Z.lZ.-aN
   104d5:	045a a137 635a b006 5aa1 0a63 5aa1 e05a     .Z.7cZ..Z..cZ..Z
   104e5:	b131 5ab5 0d63 5aa1 bc63 5aa1 9863 5ab0     .1Z..cZ..cZ..cZ.
   104f5:	265a b111 5a4a 295a a566 5ab5 2a61 c107     &Z..ZJ)Z.fZ.*a..
   10505:	5ab0 065a b406 635a b50a 612a 0a5a b026     Z..Z..cZ..a*.Z.&
   10515:	5a41 a261 2c00 5aa1 e65a b125 5ab2 125a     ZA.a,.Z..Z.%Z..Z
   10525:	a243 5ab2 325a b329 5aa5 8a5a b52a 6122     .CZ.2Z.)Z..Z.*a"
   10535:	045a a1c1 5ab2 1263 5aa1 9d63 5ab0 065a     .Z..Z..cZ..cZ..Z
   10545:	a17c 5ab5 0a63 5aa1 5d63 5aa1 8a5a b122     .|Z..cZ.]cZ..Z."
   10555:	635a b026 5aa1 5a5a b309 5a4a 3a61 2c00     cZ.&Z.ZZ..ZJ:a,.
   10565:	5aa5 665a b52a 6123 045a a12b 635a b006     Z.fZ.*a#.Z.+cZ..
   10575:	5aa1 fd5a b121 635a a1d4 6156 0a5a b026     Z..Z.!cZ..aV.Z.&
   10585:	5ab1 015a 4180 5aa1 665a b132 5a4c 075a     Z..ZA.Z.fZ.2ZL.Z
   10595:	b426 5ab5 0a61 2c00 5a4a 2b5a a56c 5ab5     .&Z..a,.ZJ+Z.lZ.
   105a5:	2d61 2204 5aa1 3763 5ab0 065a a10a 635a     -a".Z.7cZ..Z..cZ
   105b5:	a1e0 5ab1 3163 5aa1 bc63 5aa1 985a b406     ..Z.1cZ..cZ..Z..
   105c5:	5ab5 0d63 5ab0 265a b111 5ab3 295a 4c0e     Z..cZ.&Z..Z.)ZL.
   105d5:	5aa4 435a b422 5a4a 2d5a a566 5ab5 2a61     Z.CZ."ZJ-Z.fZ.*a
   105e5:	330b 5ab0 0663 635a b50a 635a a098 5ab0     3.Z..ccZ..cZ..Z.
   105f5:	255a 41a2 5aa1 e65a b125 5a45 095a a28a     %ZA.Z..Z.%ZE.Z..
   10605:	5ab2 325a b309 5ab3 295a b402 5a4a 1d5a     Z.2Z..Z.)Z..ZJ.Z
   10615:	a522 5ab5 2a61 4e04 5aa1 c163 5ab0 055a     ."Z.*aN.Z..cZ..Z
   10625:	a19d 635a a17c 635a a15d 6146 035a a18a     ..cZ.|cZ.]aF.Z..
   10635:	612c 005a b122 6146 035a a0e6 5ab0 2561     a,.Z."aF.Z..Z.%a
   10645:	2c00 5aa1 5a5a b309 5a4c 065a a466 5ab4     ,.Z.ZZ..ZL.Z.fZ.
   10655:	2661 2304 5aa1 2b63 5aa1 fd5a b121 635a     &a#.Z.+cZ..Z.!cZ
   10665:	a1d4 5ab4 0663 5ab0 0563 635a a098 5ab0     ..Z..cZ..ccZ..Z.
   10675:	255a b101 612c 005a b329 5a4c 0d5a a443     %Z..a,.Z.)ZL.Z.C
   10685:	5ab4 2261 9407 5ab0 0563 635a b402 6363     Z."a..Z..ccZ..cc
   10695:	5aa0 e65a b025 5ab3 095a 4c07 5aa4 665a     Z..Z.%Z..ZL.Z.fZ
   106a5:	b426 6133 0b5a b005 5ab4 065a b50a 6132     .&a3.Z..Z..Z..a2
   106b5:	0b5a a022 5ab0 265a a1e6 5ab1 255a b212     .Z."Z.&Z..Z.%Z..
   106c5:	5a45 065a a243 5ab2 325a 4a20 5aa5 6c5a     ZE.Z.CZ.2ZJ Z.lZ
   106d5:	b529 635a a1c1 5ab2 1263 5aa1 9d63 5ab0     .)cZ..Z..cZ..cZ.
   106e5:	065a a17c 635a a15d 635a a18a 5ab1 2261     .Z.|cZ.]cZ..Z."a
   106f5:	4f04 5ab0 265a a15a 635a a12b 635a a1fd     O.Z.&Z.ZcZ.+cZ..
   10705:	5ab1 2163 5ab0 065a a1d4 635a b509 61c0     Z.!cZ..Z..cZ..a.
   10715:	075a b026 5ab1 015a b329 5a4c 065a b426     .Z.&Z..Z.)ZL.Z.&
   10725:	5a4a 265a a598 5ab5 2961 b806 5ab5 0963     ZJ&Z..Z.)a..Z..c
   10735:	5ab0 0663 5ab4 0661 c107 5ab0 265a 4180     Z..cZ..a..Z.&ZA.
   10745:	5aa1 665a b132 612c 005a b309 5a4c 0d5a     Z.fZ.2a,.Z..ZL.Z
   10755:	a443 5ab4 225a 4a29 5aa5 e65a b529 6146     .CZ."ZJ)Z..Z.)aF
   10765:	035a a137 635a a10a 635a b006 5aa1 e05a     .Z.7cZ..cZ..Z..Z
   10775:	b131 5ab5 0963 5aa1 bc63 5aa1 9861 4e04     .1Z..cZ..cZ..aN.
   10785:	5ab0 265a b111 5a41 a25a a1e6 5ab1 2561     Z.&Z..ZA.Z..Z.%a
   10795:	2c00 5aa2 8a5a b232 6146 035a a1c1 5ab4     ,.Z..Z.2aF.Z..Z.
   107a5:	0263 5ab0 065a a19d 635a a17c 635a a15d     .cZ..Z..cZ.|cZ.]
   107b5:	635a a18a 5ab1 2261 4f04 5ab0 265a a15a     cZ..Z."aO.Z.&Z.Z
   107c5:	5ab3 295a 4a20 5aa5 225a b52a 635a a12b     Z.)ZJ Z."Z.*cZ.+
   107d5:	635a a1fd 5ab1 2163 5aa1 d463 5ab0 065a     cZ..Z.!cZ..cZ..Z
   107e5:	b50a 61c0 075a b026 5ab1 015a 4180 5aa1     ..a..Z.&Z..ZA.Z.
   107f5:	665a b132 5ab3 095a 4c02 5aa4 665a b426     fZ.2Z..ZL.Z.fZ.&
   10805:	5a4a 345a a5e6 5ab5 2963 5aa1 3763 5ab0     ZJ4Z..Z.)cZ.7cZ.
   10815:	065a a10a 5ab5 0963 5aa1 e05a b131 635a     .Z..Z..cZ..Z.1cZ
   10825:	a1bc 635a a198 614f 045a a08a 5ab0 265a     ..cZ..aO.Z..Z.&Z
   10835:	b111 5a4a 125a a522 5ab5 2a63 5ab4 0661     ..ZJ.Z."Z.*cZ..a
   10845:	9b0d 5ab0 0661 4f04 5aa0 e65a b025 5a41     ..Z..aO.Z..Z.%ZA
   10855:	a261 2c00 5aa1 e65a b125 5ab2 125a 450a     .a,.Z..Z.%Z..ZE.
   10865:	5aa2 435a b232 5ab3 295a b50a 5a4a 1c5a     Z.CZ.2Z.)Z..ZJ.Z
   10875:	b52a 6146 035a a1c1 5ab2 1263 5ab0 055a     .*aF.Z..Z..cZ..Z
   10885:	a19d 635a a17c 635a a15d 635a a18a 5ab1     ..cZ.|cZ.]cZ..Z.
   10895:	2261 4e04 5aa0 225a b026 5aa1 5a5a b309     "aN.Z."Z.&Z.ZZ..
   108a5:	612d 005a b426 5ab5 0a5a 4a25 5ab5 2a61     a-.Z.&Z..ZJ%Z.*a
   108b5:	4503 5aa1 2b63 5aa1 fd5a b121 635a a1d4     E.Z.+cZ..Z.!cZ..
   108c5:	5ab4 0663 635a b006 614f 045a a0e6 5ab0     Z..ccZ..aO.Z..Z.
   108d5:	255a b101 5a41 805a a166 5ab1 325a b50a     %Z..ZA.Z.fZ.2Z..
   108e5:	5a4a 2d5a b52a 612c 005a a500 5ab5 005a     ZJ-Z.*a,.Z..Z..Z
   108f5:	a522 5ab5 2a61 4603 5aa1 3763 5aa1 0a63     ."Z.*aF.Z.7cZ..c
   10905:	5aa1 e05a b131 635a b005 5aa1 bc63 5aa1     Z..Z.1cZ..Z..cZ.
   10915:	9861 4e04 5aa0 985a b025 5ab1 115a a166     .aN.Z..Z.%Z..Z.f
   10925:	5ab1 325a b329 5a4c 075a b426 5ab5 0a5a     Z.2Z.)ZL.Z.&Z..Z
   10935:	4a28 612d 005a b52a 6145 035a a137 635a     J(a-.Z.*aE.Z.7cZ
   10945:	b005 5aa1 0a5a b406 635a a1e0 5ab1 3163     ..Z..Z..cZ..Z.1c
   10955:	5aa1 bc63 5aa1 9861 4f04 5aa0 225a b026     Z..cZ..aO.Z."Z.&
   10965:	5ab1 115a 41a2 5aa1 e65a b125 5a45 095a     Z..ZA.Z..Z.%ZE.Z
   10975:	b232 5ab3 095a b329 5a4c 065a a443 5ab4     .2Z..Z.)ZL.Z.CZ.
   10985:	225a b50a 612c 005a 4a23 5ab5 2a61 4603     "Z..a,.ZJ#Z.*aF.
   10995:	5aa1 c15a b212 635a a19d 635a a17c 635a     Z..Z..cZ..cZ.|cZ
   109a5:	a15d 635a b006 5aa1 8a5a b122 6122 045a     .]cZ..Z..Z."a".Z
   109b5:	a0e6 5ab0 2561 2c00 5aa1 5a5a b309 5ab4     ..Z.%a,.Z.ZZ..Z.
   109c5:	025a b50a 5a4a 1e5a b52a 6146 035a a12b     .Z..ZJ.Z.*aF.Z.+
   109d5:	635a a1fd 5ab1 2163 5aa1 d463 635a b005     cZ..Z.!cZ..ccZ..
   109e5:	614f 045a a06c 5ab0 295a b101 5a4c 0261     aO.Z.lZ.)Z..ZL.a
   109f5:	2c00 5aa4 665a b426 5ab5 0a5a 4a19 5ab5     ,.Z.fZ.&Z..ZJ.Z.
   10a05:	2a61 b806 5ab4 0661 a40e 5ab3 295a b50a     *a..Z..a..Z.)Z..
   10a15:	5a4a 145a b52a 6189 155a b009 5ac0 0a5a     ZJ.Z.*a..Z..Z..Z
   10a25:	60f8 5a80 355a 2012 5ae3 005a 63f4 5a83     `.Z.5Z .Z..Zc.Z.
   10a35:	665a 2303 5a40 0761 2c00 5a43 075a a022     fZ#.Z@.a,.ZC.Z."
   10a45:	5ab0 265a a1e6 5ab1 255a 4507 5ab2 325a     Z.&Z..Z.%ZE.Z.2Z
   10a55:	b309 5ab5 0a5a c50c 5a4a 165a 6a93 5a8a     ..Z..Z..ZJ.Zj.Z.
   10a65:	c45a 2a00 5a4d 045a 6d60 5a8d f361 2c00     .Z*.ZM.Zm`Z..a,.
   10a75:	5a2d f05a b52a 5ac6 0a5a f001 5a50 405a     Z-.Z.*Z..Z..ZP@Z
   10a85:	7012 5a90 f45a 3060 5af3 005a 5300 5a73     p.Z..Z0`Z..ZS.Zs
   10a95:	705a 9303 5a33 215a 5311 5ab6 315a c708     pZ..Z3!ZS.Z.1Z..
   10aa5:	5af1 015a 5140 5a71 1161 2c00 5a91 f25a     Z..ZQ@Zq.a,.Z..Z
   10ab5:	3161 5af4 005a 5480 5a74 405a 9402 5a34     1aZ..ZT.Zt@Z..Z4
   10ac5:	615a 548a 5aa7 8a5a b72e 5ac8 085a f203     aZT.Z..Z..Z..Z..
   10ad5:	5a52 405a 7212 5a92 f45a 3260 5af5 005a     ZR@Zr.Z..Z2`Z..Z
   10ae5:	5580 5a75 705a 9503 5a35 215a 5587 612c     U.ZupZ..Z5!ZU.a,
   10af5:	005a a822 5ab8 2e61 c202 5aa1 c15a b212     .Z."Z..a..Z..Z..
   10b05:	5aa5 235a a699 635a a19d 5aa6 9a63 5aa1     Z.#Z..cZ..Z..cZ.
   10b15:	7c5a a69b 635a a15d 635a a18a 5ab1 2261     |Z..cZ.]cZ..Z."a
   10b25:	4e04 5aa1 5a63 5aa1 2b63 5aa1 fd5a b121     N.Z.ZcZ.+cZ..Z.!
   10b35:	635a a1d4 635a b006 635a b101 614f 045a     cZ..cZ..cZ..aO.Z
   10b45:	4c09 5ab4 2661 0e11 5ab4 0661 4e04 5ab0     L.Z.&a..Z..aN.Z.
   10b55:	2661 2c00 5a4c 0e5a a443 5ab4 2261 5d15     &a,.ZL.Z.CZ."a].
   10b65:	5aa1 e65a b125 5a45 0d5a a28a 5ab2 325a     Z..Z.%ZE.Z..Z.2Z
   10b75:	b402 635a a1c1 635a b006 5aa1 9d63 5aa1     ..cZ..cZ..Z..cZ.
   10b85:	7c63 5aa1 5d63 5aa1 8a5a b122 614e 045a     |cZ.]cZ..Z."aN.Z
   10b95:	a15a 635a a12b 635a a1fd 5ab1 2163 5aa1     .ZcZ.+cZ..Z.!cZ.
   10ba5:	d461 c107 5ab1 0163 5a40 055a 4305 5aa0     .a..Z..cZ@.ZC.Z.
   10bb5:	985a b029 5a4c 075a a466 5ab4 2661 e52a     .Z.)ZL.Z.fZ.&a.*
   10bc5:	5aa1 e65a b125 612c 005a b212 5a45 075a     Z..Z.%a,.Z..ZE.Z
   10bd5:	a243 5ab2 325a b406 6146 035a a1c1 5ab2     .CZ.2Z..aF.Z..Z.
   10be5:	1263 5aa1 9d63 5aa1 7c63 5aa1 5d61 4e04     .cZ..cZ.|cZ.]aN.
   10bf5:	5aa1 8a5a b122 635a a15a 635a a12b 635a     Z..Z."cZ.ZcZ.+cZ
   10c05:	a1fd 5ab1 2163 5ab0 095a b101 6133 0b5a     ..Z.!cZ..Z..a3.Z
   10c15:	4007 5a43 075a a081 5ab0 295a 4c06 5ab4     @.ZC.Z..Z.)ZL.Z.
   10c25:	2661 c80d 5ab4 0661 c007 5a4c 0a5a a443     &a..Z..a..ZL.Z.C
   10c35:	5ab4 2261 c80d 5ab0 0961 c107 5a40 095a     Z."a..Z..a..Z@.Z
   10c45:	4309 5aa0 665a b026 5aa1 e65a b125 5a45     C.Z.fZ.&Z..Z.%ZE
   10c55:	045a a28a 5ab2 3263 5aa1 c163 5aa1 9d5a     .Z..Z.2cZ..cZ..Z
   10c65:	b402 635a a17c 635a b006 5aa1 5d61 2204     ..cZ.|cZ..Z.]a".
   10c75:	5aa1 8a61 2c00 5ab1 2261 4603 5a40 0761     Z..a,.Z."aF.Z@.a
   10c85:	2c00 5a43 075a a08a 5ab0 265a a15a 5a4c     ,.ZC.Z..Z.&Z.ZZL
   10c95:	065a b422 6146 035a a12b 635a a1fd 5ab1     .Z."aF.Z.+cZ..Z.
   10ca5:	2163 5aa1 d463 5ab1 0161 c107 5ab4 025a     !cZ..cZ..a..Z..Z
   10cb5:	4c04 5aa4 665a b426 6156 0a5a b006 6132     L.Z.fZ.&aV.Z..a2
   10cc5:	0b5a b026 61c8 0d5a b006 5ab4 0661 c107     .Z.&a..Z..Z..a..
   10cd5:	5a40 095a 4309 5aa0 225a b026 5aa1 e65a     Z@.ZC.Z."Z.&Z..Z
   10ce5:	b125 5ab2 125a 4507 5aa2 435a b232 635a     .%Z..ZE.Z.CZ.2cZ
   10cf5:	a1c1 5ab2 1263 5aa1 9d63 5aa1 7c63 5aa1     ..Z..cZ..cZ.|cZ.
   10d05:	5d61 4e04 5aa1 8a5a b122 635a a15a 635a     ]aN.Z..Z."cZ.ZcZ
   10d15:	a12b 635a a1fd 5ab1 2163 5ab1 0161 330b     .+cZ..Z.!cZ..a3.
   10d25:	5ab0 065a 4c07 5ab4 2661 ea11 5ab4 0663     Z..ZL.Z.&a..Z..c
   10d35:	5a40 085a 4308 5ab0 2661 2c00 5a4c 0d5a     Z@.ZC.Z.&a,.ZL.Z
   10d45:	a443 5ab4 2261 5c15 5aa1 e65a b125 5a45     .CZ."a\.Z..Z.%ZE
   10d55:	065a a28a 5ab2 325a b402 635a a1c1 635a     .Z..Z.2Z..cZ..cZ
   10d65:	a19d 635a a17c 635a b006 5aa1 5d61 4f04     ..cZ.|cZ..Z.]aO.
   10d75:	5aa1 8a5a b122 635a a15a 635a a12b 635a     Z..Z."cZ.ZcZ.+cZ
   10d85:	a1fd 5ab1 2163 5aa1 d463 5ab1 0161 c007     ..Z.!cZ..cZ..a..
   10d95:	5a40 065a 4306 5aa0 985a b029 5a4c 045a     Z@.ZC.Z..Z.)ZL.Z
   10da5:	a466 5ab4 2661 df1f 5ab4 0661 060b 5aa1     .fZ.&a..Z..a..Z.
   10db5:	e65a b125 612c 005a b212 5aa2 435a b232     .Z.%a,.Z..Z.CZ.2
   10dc5:	6146 035a a1c1 612c 005a b212 6146 035a     aF.Z..a,.Z..aF.Z
   10dd5:	a19d 635a a17c 635a a15d 614f 045a a18a     ..cZ.|cZ.]aO.Z..
   10de5:	5ab1 2263 5aa1 5a63 5aa1 2b63 5ab1 0263     Z."cZ.ZcZ.+cZ..c
   10df5:	635a b009 61c0 075a a081 5ab0 295a 4c06     cZ..a..Z..Z.)ZL.
   10e05:	5ab4 2661 1712 5ab4 0663 5a4c 0c5a a443     Z.&a..Z..cZL.Z.C
   10e15:	5ab4 2261 8815 5ab0 095a 4008 5a43 085a     Z."a..Z..Z@.ZC.Z
   10e25:	a066 5ab0 265a a1e6 5ab1 255a 4504 5aa2     .fZ.&Z..Z.%ZE.Z.
   10e35:	8a5a b232 5ab4 0263 5aa1 c163 5aa1 9d63     .Z.2Z..cZ..cZ..c
   10e45:	5aa1 7c61 4f04 5aa1 5d63 5ab0 065a a18a     Z.|aO.Z.]cZ..Z..
   10e55:	5ab1 2261 4603 5a40 0661 2c00 5a43 065a     Z."aF.Z@.a,.ZC.Z
   10e65:	a08a 5ab0 265a a15a 5a4c 065a b422 6146     ..Z.&Z.ZZL.Z."aF
   10e75:	035a a12b 635a b102 61a4 0e5a b402 5a4c     .Z.+cZ..a..Z..ZL
   10e85:	045a a466 5ab4 2661 560a 5ab0 0661 4f04     .Z.fZ.&aV.Z..aO.
   10e95:	5ab7 0e63 5ab6 115a b80e 635a b026 635a     Z..cZ..Z..cZ.&cZ
   10ea5:	b406 5ab5 0a61 320b 5ab0 0663 5a53 0a5a     ..Z..a2.Z..cZS.Z
   10eb5:	a6cb 5ab6 315a a76c 5ab7 315a 5585 5ab8     ..Z.1Z.lZ.1ZU.Z.
   10ec5:	2e63 5a40 075a 4307 5aa0 225a b026 5aa1     .cZ@.ZC.Z."Z.&Z.
   10ed5:	e65a b125 5ab2 125a 4506 5aa2 435a b232     .Z.%Z..ZE.Z.CZ.2
   10ee5:	612c 005a a522 5ab5 2a5a a6cc 6146 035a     a,.Z."Z.*Z..aF.Z
   10ef5:	a1c1 5ab2 125a a523 5aa6 cd63 5aa1 9d5a     ..Z..Z.#Z..cZ..Z
   10f05:	a6ce 635a a17c 5aa6 cf61 4f04 5aa1 5d63     ..cZ.|Z..aO.Z.]c
   10f15:	5aa1 8a5a b122 635a a15a 635a a12b 635a     Z..Z."cZ.ZcZ.+cZ
   10f25:	b102 61c0 075a b006 6363 5a4c 065a b426     ..a..Z..ccZL.Z.&
   10f35:	6179 0e5a b406 6363 5a40 065a 4306 5ab0     ay.Z..ccZ@.ZC.Z.
   10f45:	2661 2c00 5a4c 0c5a a443 5ab4 2261 5c15     &a,.ZL.Z.CZ."a\.
   10f55:	5aa1 e65a b125 5aa2 8a5a b232 5ab4 0263     Z..Z.%Z..Z.2Z..c
   10f65:	5aa1 c163 5aa1 9d63 5ab0 065a a17c 614f     Z..cZ..cZ..Z.|aO
   10f75:	045a a15d 635a a18a 5ab1 2263 5aa1 5a63     .Z.]cZ..Z."cZ.Zc
   10f85:	5aa1 2b63 5aa1 fd5a b121 635a b101 6132     Z.+cZ..Z.!cZ..a2
   10f95:	0b5a 4004 5a43 045a a098 5ab0 295a 4c02     .Z@.ZC.Z..Z.)ZL.
   10fa5:	5aa4 665a b426 616d 1c5a b406 6178 0e5a     Z.fZ.&am.Z..ax.Z
   10fb5:	a1e6 5ab1 2561 2c00 5ab2 125a 4507 5aa2     ..Z.%a,.Z..ZE.Z.
   10fc5:	435a b232 6146 035a a1c1 612c 005a b212     CZ.2aF.Z..a,.Z..
   10fd5:	6146 035a a19d 635a a17c 614f 045a a15d     aF.Z..cZ.|aO.Z.]
   10fe5:	635a a18a 5ab1 2263 5aa1 5a63 5aa1 2b63     cZ..Z."cZ.ZcZ.+c
   10ff5:	5ab1 0261 c007 5ab0 0963 635a 4006 5a43     Z..a..Z..ccZ@.ZC
   11005:	065a a081 5ab0 295a 4c06 5ab4 2661 1712     .Z..Z.)ZL.Z.&a..
   11015:	5ab4 0663 5a4c 0a5a a443 5ab4 2261 1612     Z..cZL.Z.CZ."a..
   11025:	5ab0 0963 5a40 075a 4307 5aa0 665a b026     Z..cZ@.ZC.Z.fZ.&
   11035:	5aa1 e65a b125 5a45 065a a28a 5ab2 325a     Z..Z.%ZE.Z..Z.2Z
   11045:	b402 635a a1c1 635a a19d 635a a17c 614f     ..cZ..cZ..cZ.|aO
   11055:	045a b006 5aa1 5d63 5aa1 8a5a b122 6145     .Z..Z.]cZ..Z."aE
   11065:	035a 4006 612d 005a 4306 5aa0 8a5a b026     .Z@.a-.ZC.Z..Z.&
   11075:	5aa1 5a5a 4c06 5ab4 2261 4503 5aa1 2b63     Z.ZZL.Z."aE.Z.+c
   11085:	5ab1 0261 a50e 5ab4 025a 4c02 5aa4 665a     Z..a..Z..ZL.Z.fZ
   11095:	b426 6156 0a5a b006 6132 0b5a b026 6156     .&aV.Z..a2.Z.&aV
   110a5:	0a5a b406 6133 0b5a b006 5aa0 225a b026     .Z..a3.Z..Z."Z.&
   110b5:	5aa1 e65a b125 5ab2 125a 4504 5aa2 4361     Z..Z.%Z..ZE.Z.Ca
   110c5:	2c00 5ab2 3261 4603 5aa1 c15a b212 635a     ,.Z.2aF.Z..Z..cZ
   110d5:	a19d 614e 045a a17c 635a a15d 635a a18a     ..aN.Z.|cZ.]cZ..
   110e5:	5ab1 2263 5aa1 5a63 5aa1 2b63 5ab1 0261     Z."cZ.ZcZ.+cZ..a
   110f5:	330b 5ab0 0663 5a4c 075a b426 61ea 115a     3.Z..cZL.Z.&a..Z
   11105:	b406 635a 4008 5a43 085a b026 612c 005a     ..cZ@.ZC.Z.&a,.Z
   11115:	4c0a 5aa4 435a b422 615d 155a a1e6 5ab1     L.Z.CZ."a].Z..Z.
   11125:	255a 4507 5aa2 8a5a b232 612c 005a b402     %ZE.Z..Z.2a,.Z..
   11135:	6146 035a a1c1 635a a19d 614e 045a b006     aF.Z..cZ..aN.Z..
   11145:	5aa1 7c63 5aa1 5d63 5aa1 8a5a b122 635a     Z.|cZ.]cZ..Z."cZ
   11155:	a15a 635a a12b 635a a1fd 5ab1 2161 4f04     .ZcZ.+cZ..Z.!aO.
   11165:	5ab1 0161 560a 5a40 035a 4303 5aa0 985a     Z..aV.Z@.ZC.Z..Z
   11175:	b029 5a4c 045a a466 5ab4 2661 2d24 5ab4     .)ZL.Z.fZ.&a-$Z.
   11185:	0661 b806 5aa1 e661 2c00 5ab1 255a b212     .a..Z..a,.Z.%Z..
   11195:	5a45 065a a243 5ab2 3261 4603 5aa1 c161     ZE.Z.CZ.2aF.Z..a
   111a5:	2c00 5ab2 1261 4603 5aa1 9d61 4e04 5aa1     ,.Z..aF.Z..aN.Z.
   111b5:	7c63 5ab0 095a a15d 635a a18a 5ab1 2263     |cZ..Z.]cZ..Z."c
   111c5:	5a40 055a 4305 5aa0 815a b029 5aa1 5a61     Z@.ZC.Z..Z.)Z.Za
   111d5:	2c00 5a4c 025a b426 6146 035a a12b 635a     ,.ZL.Z.&aF.Z.+cZ
   111e5:	b102 6133 0b5a b406 61a4 0e5a b009 6156     ..a3.Z..a..Z..aV
   111f5:	0a5a 4c07 5ab4 2661 1712 5ab4 0663 5aa1     .ZL.Z.&a..Z..cZ.
   11205:	e65a b125 5aa2 8a5a b232 5a4c 065a a443     .Z.%Z..Z.2ZL.Z.C
   11215:	5ab4 2263 5aa1 c163 5aa1 9d61 4e04 5aa1     Z."cZ..cZ..aN.Z.
   11225:	7c63 5aa1 5d63 5aa1 8a5a b122 635a a15a     |cZ.]cZ..Z."cZ.Z
   11235:	5ab4 0261 4603 5aa1 2b63 5ab1 0261 a50e     Z..aF.Z.+cZ..a..
   11245:	5a41 805a a166 5ab1 325a 4c04 612c 005a     ZA.Z.fZ.2ZL.a,.Z
   11255:	a466 5ab4 2661 4603 5aa1 375a b611 635a     .fZ.&aF.Z.7Z..cZ
   11265:	a10a 5ab7 115a b80e 614e 045a a1e0 5ab1     ..Z..Z..aN.Z..Z.
   11275:	3163 5aa1 bc63 5aa1 9863 5ab1 115a a166     1cZ..cZ..cZ..Z.f
   11285:	5ab1 3263 5aa1 3763 5aa1 0a61 4f04 5aa1     Z.2cZ.7cZ..aO.Z.
   11295:	e05a b131 635a a1bc 5ab4 0663 5aa1 9863     .Z.1cZ..Z..cZ..c
   112a5:	5a40 075a 4307 5aa0 225a b026 5ab1 115a     Z@.ZC.Z."Z.&Z..Z
   112b5:	41a2 5aa1 e65a b125 5ab2 125a 4502 612c     A.Z..Z.%Z..ZE.a,
   112c5:	005a a243 5ab2 325a b50a 5aa5 225a b52a     .Z.CZ.2Z..Z."Z.*
   112d5:	5a53 115a a698 5ab6 315a a78a 5ab7 2e5a     ZS.Z..Z.1Z..Z..Z
   112e5:	5587 5ab8 2e61 4603 5aa1 c15a b212 5aa5     U.Z..aF.Z..Z..Z.
   112f5:	235a a699 635a a19d 5aa6 9a61 4e04 5aa1     #Z..cZ..Z..aN.Z.
   11305:	7c5a a69b 635a a15d 635a a18a 5ab1 2263     |Z..cZ.]cZ..Z."c
   11315:	5aa1 5a63 5aa1 2b63 5aa1 fd5a b121 614f     Z.ZcZ.+cZ..Z.!aO
   11325:	045a a1d4 635a b006 6363 5ab1 015a 4b05     .Z..cZ..ccZ..ZK.
   11335:	5ab3 295a b426 61ea 115a b406 619e 035a     Z.)Z.&a..Z..a..Z
   11345:	b026 5a41 805a a166 5ab1 325a b309 5a4c     .&ZA.Z.fZ.2Z..ZL
   11355:	0e5a a443 5ab4 2261 4603 5aa1 3763 5aa1     .Z.CZ."aF.Z.7cZ.
   11365:	0a61 4f04 5aa1 e05a b131 635a a1bc 635a     .aO.Z..Z.1cZ..cZ
   11375:	a198 635a b111 5a41 a25a a1e6 5ab1 255a     ..cZ..ZA.Z..Z.%Z
   11385:	4506 5aa2 8a61 2c00 5ab2 3261 4603 5aa1     E.Z..a,.Z.2aF.Z.
   11395:	c15a b402 635a b006 5aa1 9d61 4e04 5aa1     .Z..cZ..Z..aN.Z.
   113a5:	7c63 5aa1 5d63 5aa1 8a5a b122 635a a15a     |cZ.]cZ..Z."cZ.Z
   113b5:	5ab3 2963 5aa1 2b61 4f04 5aa1 fd5a b121     Z.)cZ.+aO.Z..Z.!
   113c5:	635a a1d4 6156 0a5a 4005 5a43 055a a098     cZ..aV.Z@.ZC.Z..
   113d5:	5ab0 295a b101 5a41 805a a166 5ab1 325a     Z.)Z..ZA.Z.fZ.2Z
   113e5:	b309 5a4c 045a a466 5ab4 2663 5aa1 3761     ..ZL.Z.fZ.&cZ.7a
   113f5:	4e04 5aa1 0a63 5aa1 e05a b131 635a a1bc     N.Z..cZ..Z.1cZ..
   11405:	635a a198 635a b111 6133 0b5a b406 6129     cZ..cZ..a3.Z..a)
   11415:	0a5a 41a2 612d 005a a1e6 5ab1 255a b212     .ZA.a-.Z..Z.%Z..
   11425:	5aa2 435a b232 5ab3 2961 4503 5aa1 c161     Z.CZ.2Z.)aE.Z..a
   11435:	2d00 5ab2 1261 2204 5aa1 9d63 5aa1 7c63     -.Z..a".Z..cZ.|c
   11445:	5aa1 5d63 5aa1 8a5a b122 635a a15a 5ab3     Z.]cZ..Z."cZ.ZZ.
   11455:	0963 5aa1 2b61 4e04 5aa1 fd5a b121 635a     .cZ.+aN.Z..Z.!cZ
   11465:	b009 5aa1 d461 560a 5a40 075a 4307 5aa0     ..Z..aV.Z@.ZC.Z.
   11475:	815a b029 5ab1 015a 4180 5aa1 665a b132     .Z.)Z..ZA.Z.fZ.2
   11485:	612d 005a b426 6145 035a a137 614f 045a     a-.Z.&aE.Z.7aO.Z
   11495:	a10a 635a a1e0 5ab1 3163 5aa1 bc63 5aa1     ..cZ..Z.1cZ..cZ.
   114a5:	985a b406 635a b111 5ab3 295a 4c0e 5aa4     .Z..cZ..Z.)ZL.Z.
   114b5:	435a b422 61a4 0e5a b009 6363 5a40 095a     CZ."a..Z..ccZ@.Z
   114c5:	4309 5aa0 665a b026 5a41 a25a a1e6 5ab1     C.Z.fZ.&ZA.Z..Z.
   114d5:	255a a28a 5ab2 325a b309 5ab3 2963 5aa1     %Z..Z.2Z..Z.)cZ.
   114e5:	c15a b402 614f 045a a19d 635a a17c 635a     .Z..aO.Z..cZ.|cZ
   114f5:	b006 5aa1 5d63 5aa1 8a5a b122 635a 4007     ..Z.]cZ..Z."cZ@.
   11505:	5a43 075a a08a 5ab0 265a a15a 5ab3 095a     ZC.Z..Z.&Z.ZZ..Z
   11515:	4c06 5ab4 2261 4603 5aa1 2b61 4e04 5aa1     L.Z."aF.Z.+aN.Z.
   11525:	fd5a b121 635a a1d4 6156 0a5a b101 5ab3     .Z.!cZ..aV.Z..Z.
   11535:	2961 2c00 5ab4 025a 4c04 5aa4 665a b426     )a,.Z..ZL.Z.fZ.&
   11545:	6107 0b5a b006 6156 0a5a b026 5ab3 0961     a..Z..aV.Z.&Z..a
   11555:	c007 5ab4 0663 635a b006 6363 5a40 095a     ..Z..ccZ..ccZ@.Z
   11565:	4309 5aa0 225a b026 5aa1 e65a b125 5ab2     C.Z."Z.&Z..Z.%Z.
   11575:	125a a243 5ab2 3263 5aa1 c15a b212 614f     .Z.CZ.2cZ..Z..aO
   11585:	045a a19d 635a a17c 635a a15d 635a a18a     .Z..cZ.|cZ.]cZ..
   11595:	5ab1 2263 5aa1 5a63 5aa1 2b61 4e04 5aa1     Z."cZ.ZcZ.+aN.Z.
   115a5:	fd5a b121 635a a1d4 6156 0a5a b006 5ab1     .Z.!cZ..aV.Z..Z.
   115b5:	015a b329 5a4c 065a b426 61eb 115a b406     .Z.)ZL.Z.&a..Z..
   115c5:	635a 4008 5a43 0861 2c00 5ab0 265a 4180     cZ@.ZC.a,.Z.&ZA.
   115d5:	5aa1 665a b132 5ab3 095a 4c0c 5aa4 435a     Z.fZ.2Z..ZL.Z.CZ
   115e5:	b422 6146 035a a137 614e 045a a10a 635a     ."aF.Z.7aN.Z..cZ
   115f5:	a1e0 5ab1 3163 5aa1 bc63 5aa1 9863 5ab1     ..Z.1cZ..cZ..cZ.
   11605:	115a 41a2 5aa1 e65a b125 5a45 075a a28a     .ZA.Z..Z.%ZE.Z..
   11615:	612c 005a b232 6146 035a a1c1 5ab4 0261     a,.Z.2aF.Z..Z..a
   11625:	4f04 5aa1 9d63 5aa1 7c63 5ab0 065a a15d     O.Z..cZ.|cZ..Z.]
   11635:	635a a18a 5ab1 2263 5aa1 5a5a b329 635a     cZ..Z."cZ.ZZ.)cZ
   11645:	a12b 614e 045a a1fd 5ab1 2163 5aa1 d461     .+aN.Z..Z.!cZ..a
   11655:	560a 5a40 065a 4306 5aa0 985a b029 5ab1     V.Z@.ZC.Z..Z.)Z.
   11665:	015a 4180 5aa1 665a b132 5ab3 095a 4c02     .ZA.Z.fZ.2Z..ZL.
   11675:	5aa4 665a b426 635a a137 614f 045a a10a     Z.fZ.&cZ.7aO.Z..
   11685:	635a a1e0 5ab1 3163 5aa1 bc63 5aa1 9863     cZ..Z.1cZ..cZ..c
   11695:	5ab1 1161 c007 5ab4 0661 9c0d 5a41 a261     Z..a..Z..a..ZA.a
   116a5:	2c00 5aa1 e65a b125 5ab2 125a 4504 5aa2     ,.Z..Z.%Z..ZE.Z.
   116b5:	435a b232 5ab3 2961 4603 5aa1 c161 2c00     CZ.2Z.)aF.Z..a,.
   116c5:	5ab2 1261 2304 5aa1 9d63 5aa1 7c63 5aa1     Z..a#.Z..cZ.|cZ.
   116d5:	5d63 5aa1 8a5a b122 635a a15a 5ab3 0963     ]cZ..Z."cZ.ZZ..c
   116e5:	5aa1 2b61 4e04 5aa1 fd5a b121 635a a1d4     Z.+aN.Z..Z.!cZ..
   116f5:	635a b009 6363 5aa0 815a b029 5ab1 015a     cZ..ccZ..Z.)Z..Z
   11705:	4180 5aa1 665a b132 612c 005a 4c06 5ab4     A.Z.fZ.2a,.ZL.Z.
   11715:	2661 4603 5aa1 3761 4f04 5aa1 0a63 5aa1     &aF.Z.7aO.Z..cZ.
   11725:	e05a b131 635a a1bc 635a a198 5ab4 0663     .Z.1cZ..cZ..Z..c
   11735:	5ab1 115a b329 5a4c 095a a443 5ab4 2261     Z..Z.)ZL.Z.CZ."a
   11745:	8815 5ab0 095a 4008 5a43 085a a066 5ab0     ..Z..Z@.ZC.Z.fZ.
   11755:	265a 41a2 5aa1 e65a b125 5a45 065a a28a     &ZA.Z..Z.%ZE.Z..
   11765:	5ab2 325a b309 5ab3 2961 4f04 5aa1 c15a     Z.2Z..Z.)aO.Z..Z
   11775:	b402 635a a19d 635a a17c 635a a15d 635a     ..cZ..cZ.|cZ.]cZ
   11785:	b006 5aa1 8a5a b122 635a 4006 5a43 065a     ..Z..Z."cZ@.ZC.Z
   11795:	a08a 5ab0 265a a15a 5ab3 095a 4c06 5ab4     ..Z.&Z.ZZ..ZL.Z.
   117a5:	2261 2204 5aa1 2b63 5aa1 fd5a b121 635a     "a".Z.+cZ..Z.!cZ
   117b5:	a1d4 6156 0a5a b101 612c 005a b329 5ab4     ..aV.Z..a,.Z.)Z.
   117c5:	025a 4c04 5aa4 665a b426 6107 0b5a b006     .ZL.Z.fZ.&a..Z..
   117d5:	635a b70e 635a b611 5ab8 0e63 5ab0 265a     cZ..cZ..Z..cZ.&Z
   117e5:	b309 614e 045a b50a 635a b406 6363 5ab0     ..aN.Z..cZ..ccZ.
   117f5:	0663 5a53 0a5a a6cb 5ab6 315a a76c 5ab7     .cZS.Z..Z.1Z.lZ.
   11805:	315a 5585 5ab8 2e63 5a40 075a 4307 5aa0     1ZU.Z..cZ@.ZC.Z.
   11815:	225a b026 5aa1 e65a b125 5ab2 125a a243     "Z.&Z..Z.%Z..Z.C
   11825:	5ab2 3261 2c00 5aa5 225a b52a 5aa6 cc61     Z.2a,.Z."Z.*Z..a
   11835:	2304 5aa1 c15a b212 5aa5 235a a6cd 635a     #.Z..Z..Z.#Z..cZ
   11845:	a19d 5aa6 ce63 5aa1 7c5a a6cf 635a a15d     ..Z..cZ.|Z..cZ.]
   11855:	635a a18a 5ab1 2263 5aa1 5a61 4e04 5aa1     cZ..Z."cZ.ZaN.Z.
   11865:	2b63 5aa1 fd5a b121 635a a1d4 635a b006     +cZ..Z.!cZ..cZ..
   11875:	6363 5ab1 015a 4b06 5ab3 295a 4c06 5ab4     ccZ..ZK.Z.)ZL.Z.
   11885:	2661 ea11 5ab4 0663 5a40 065a 4306 612d     &a..Z..cZ@.ZC.a-
   11895:	005a b026 5a41 805a a166 5ab1 325a b309     .Z.&ZA.Z.fZ.2Z..
   118a5:	5a4c 0c5a a443 5ab4 2261 2204 5aa1 3763     ZL.Z.CZ."a".Z.7c
   118b5:	5aa1 0a63 5aa1 e05a b131 635a a1bc 635a     Z..cZ..Z.1cZ..cZ
   118c5:	a198 635a b111 5a41 a25a a1e6 5ab1 2561     ..cZ..ZA.Z..Z.%a
   118d5:	2c00 5aa2 8a5a b232 5ab4 0261 2204 5aa1     ,.Z..Z.2Z..a".Z.
   118e5:	c163 5aa1 9d63 5ab0 065a a17c 635a a15d     .cZ..cZ..Z.|cZ.]
   118f5:	635a a18a 5ab1 2263 5aa1 5a5a b329 614f     cZ..Z."cZ.ZZ.)aO
   11905:	045a a12b 635a a1fd 5ab1 2163 5aa1 d461     .Z.+cZ..Z.!cZ..a
   11915:	560a 5a40 045a 4304 5aa0 985a b029 5ab1     V.Z@.ZC.Z..Z.)Z.
   11925:	015a 4180 5aa1 665a b132 5ab3 095a 4c02     .ZA.Z.fZ.2Z..ZL.
   11935:	5aa4 665a b426 614e 045a a137 635a a10a     Z.fZ.&aN.Z.7cZ..
   11945:	635a a1e0 5ab1 3163 5aa1 bc63 5aa1 9863     cZ..Z.1cZ..cZ..c
   11955:	5ab1 1161 c107 5ab4 0661 9c0d 5a41 a261     Z..a..Z..a..ZA.a
   11965:	2c00 5aa1 e65a b125 5ab2 125a a243 5ab2     ,.Z..Z.%Z..Z.CZ.
   11975:	325a b329 6122 045a a1c1 612c 005a b212     2Z.)a".Z..a,.Z..
   11985:	6146 035a a19d 635a a17c 635a a15d 635a     aF.Z..cZ.|cZ.]cZ
   11995:	a18a 5ab1 2263 5aa1 5a5a b309 614f 045a     ..Z."cZ.ZZ..aO.Z
   119a5:	a12b 635a a1fd 5ab1 2163 5aa1 d463 5ab0     .+cZ..Z.!cZ..cZ.
   119b5:	0963 635a 4006 5a43 065a a081 5ab0 295a     .ccZ@.ZC.Z..Z.)Z
   119c5:	b101 5a41 805a a166 5ab1 3261 2c00 5a4c     ..ZA.Z.fZ.2a,.ZL
   119d5:	075a b426 6122 045a a137 635a a10a 635a     .Z.&a".Z.7cZ..cZ
   119e5:	a1e0 5ab1 3163 5aa1 bc63 5aa1 985a b406     ..Z.1cZ..cZ..Z..
   119f5:	635a b111 5ab3 295a 4c0e 5aa4 435a b422     cZ..Z.)ZL.Z.CZ."
   11a05:	6117 125a b009 635a 4007 5a43 075a a066     a..Z..cZ@.ZC.Z.f
   11a15:	5ab0 265a 41a2 5aa1 e65a b125 5a45 095a     Z.&ZA.Z..Z.%ZE.Z
   11a25:	a28a 5ab2 325a b309 5ab3 295a b402 614e     ..Z.2Z..Z.)Z..aN
   11a35:	045a a1c1 635a a19d 635a a17c 635a b006     .Z..cZ..cZ.|cZ..
   11a45:	5aa1 5d63 5aa1 8a5a b122 635a 4006 5a43     Z.]cZ..Z."cZ@.ZC
   11a55:	065a a08a 5ab0 265a a15a 5ab3 095a 4c06     .Z..Z.&Z.ZZ..ZL.
   11a65:	5aa4 665a b426 614f 045a a12b 6146 035a     Z.fZ.&aO.Z.+aF.Z
   11a75:	a1fd 612c 005a b121 6146 035a a1d4 612c     ..a,.Z.!aF.Z..a,
   11a85:	005a b406 612a 0a5a b101 612c 005a b329     .Z..a*.Z..a,.Z.)
   11a95:	5a4c 0d5a a443 5ab4 2261 060b 5ab0 0663     ZL.Z.CZ."a..Z..c
   11aa5:	5ab4 0263 635a b026 5ab3 095a 4c07 5aa4     Z..ccZ.&Z..ZL.Z.
   11ab5:	6661 2c00 5ab4 2661 070b 5ab4 0661 320b     fa,.Z.&a..Z..a2.
   11ac5:	5ab0 065a a022 5ab0 265a a1e6 5ab1 255a     Z..Z."Z.&Z..Z.%Z
   11ad5:	b212 5a45 0661 2c00 5aa2 435a b232 6146     ..ZE.a,.Z.CZ.2aF
   11ae5:	035a a1c1 5ab2 1263 5aa1 9d63 5aa1 7c63     .Z..Z..cZ..cZ.|c
   11af5:	5aa1 5d63 5aa1 8a5a b122 614f 045a a15a     Z.]cZ..Z."aO.Z.Z
   11b05:	635a a12b 635a a1fd 5ab1 2163 5aa1 d463     cZ.+cZ..Z.!cZ..c
   11b15:	635a b006 614e 045a b101 5ab3 295a 4c06     cZ..aN.Z..Z.)ZL.
   11b25:	5ab4 2661 c80d 5ab4 0661 9507 5a40 085a     Z.&a..Z..a..Z@.Z
   11b35:	4308 612c 005a b026 5a41 805a a166 5ab1     C.a,.Z.&ZA.Z.fZ.
   11b45:	325a b309 5a4c 0d5a a443 5ab4 2261 4603     2Z..ZL.Z.CZ."aF.
   11b55:	5aa1 3763 5aa1 0a63 5aa1 e05a b131 635a     Z.7cZ..cZ..Z.1cZ
   11b65:	a1bc 635a a198 614e 045a b111 5a41 a25a     ..cZ..aN.Z..ZA.Z
   11b75:	a1e6 5ab1 2561 2c00 5aa2 8a5a b232 6146     ..Z.%a,.Z..Z.2aF
   11b85:	035a a1c1 5ab4 0263 5aa1 9d63 5ab0 065a     .Z..Z..cZ..cZ..Z
   11b95:	a17c 635a a15d 635a a18a 5ab1 2261 4f04     .|cZ.]cZ..Z."aO.
   11ba5:	5aa1 5a5a b329 635a a12b 635a a1fd 5ab1     Z.ZZ.)cZ.+cZ..Z.
   11bb5:	2163 5aa1 d461 320b 5a40 035a 4303 5aa0     !cZ..a2.Z@.ZC.Z.
   11bc5:	985a b029 5ab1 015a 4180 5aa1 665a b132     .Z.)Z..ZA.Z.fZ.2
   11bd5:	5ab3 095a 4c02 5aa4 665a b426 635a a137     Z..ZL.Z.fZ.&cZ.7
   11be5:	635a a10a 635a a1e0 5ab1 3163 5aa1 bc63     cZ..cZ..Z.1cZ..c
   11bf5:	5aa1 9861 4f04 5ab1 1163 5ab4 0661 ea11     Z..aO.Z..cZ..a..
   11c05:	5a41 a261 2c00 5aa1 e65a b125 5ab2 125a     ZA.a,.Z..Z.%Z..Z
   11c15:	450a 5aa2 435a b232 5ab3 2961 4603 5aa1     E.Z.CZ.2Z.)aF.Z.
   11c25:	c161 2c00 5ab2 1261 4603 5aa1 9d63 5aa1     .a,.Z..aF.Z..cZ.
   11c35:	7c63 5ab0 095a a15d 635a a18a 5ab1 2261     |cZ..Z.]cZ..Z."a
   11c45:	4f04 5a40 055a 4305 5aa0 815a b029 5aa1     O.Z@.ZC.Z..Z.)Z.
   11c55:	5a61 2c00 5ab3 095a b426 6146 035a a12b     Za,.Z..Z.&aF.Z.+
   11c65:	635a a1fd 5ab1 2163 5aa1 d45a b406 6132     cZ..Z.!cZ..Z..a2
   11c75:	0b5a b101 5a41 805a a166 5ab1 3263 5aa1     .Z..ZA.Z.fZ.2cZ.
   11c85:	3763 5aa1 0a63 5ab0 095a a1e0 5ab1 3163     7cZ..cZ..Z..Z.1c
   11c95:	5aa1 bc63 5aa1 9861 4f04 5ab1 115a a166     Z..cZ..aO.Z..Z.f
   11ca5:	5ab1 325a b329 5a4c 075a b426 635a a137     Z.2Z.)ZL.Z.&cZ.7
   11cb5:	635a a10a 5ab4 0663 5aa1 e05a b131 635a     cZ..Z..cZ..Z.1cZ
   11cc5:	a1bc 635a a198 614e 045a b111 5a41 a25a     ..cZ..aN.Z..ZA.Z
   11cd5:	a1e6 5ab1 255a 4509 5ab2 325a b309 5ab3     ..Z.%ZE.Z.2Z..Z.
   11ce5:	295a 4c06 5aa4 435a b422 635a a1c1 5ab2     )ZL.Z.CZ."cZ..Z.
   11cf5:	1263 5aa1 9d63 5aa1 7c63 5aa1 5d63 5aa1     .cZ..cZ.|cZ.]cZ.
   11d05:	8a5a b122 614f 045a a15a 5ab3 095a b402     .Z."aO.Z.ZZ..Z..
   11d15:	635a a12b 6145 035a a1fd 612d 005a b121     cZ.+aE.Z..a-.Z.!
   11d25:	6145 035a a1d4 6133 0b5a b101 5a4c 0261     aE.Z..a3.Z..ZL.a
   11d35:	2c00 5aa4 665a b426 6146 035a b611 635a     ,.Z.fZ.&aF.Z..cZ
   11d45:	b406 5ab7 1161 2c00 5ab8 0e61 780e 5ab3     ..Z..a,.Z..ax.Z.
   11d55:	2961 8915 5a40 075a 4307 5aa0 225a b026     )a..Z@.ZC.Z."Z.&
   11d65:	5aa1 e65a b125 5a45 075a b232 5ab3 0961     Z..Z.%ZE.Z.2Z..a
   11d75:	2c00 5ac4 0a5a e901 5a49 0c5a 69fa 5a29     ,.Z..Z..ZI.Zi.Z)
   11d85:	185a 4c00 5a6c f95a 8c16 5a2c 125a a422     .ZL.Zl.Z..Z,.Z."
   11d95:	5ab4 325a b50a 5aa5 225a b52a 5a53 115a     Z.2Z..Z."Z.*ZS.Z
   11da5:	a698 5ab6 3161 2c00 5aa7 8a5a b72e 5a55     ..Z.1a,.Z..Z..ZU
   11db5:	875a b82e 611a 035a a1c1 5ab2 125a a523     .Z..a..Z..Z..Z.#
   11dc5:	5aa6 9963 5aa1 9d5a b412 5aa6 9a63 5aa1     Z..cZ..Z..Z..cZ.
   11dd5:	7c5a a69b 635a a15d 635a a18a 5ab1 2261     |Z..cZ.]cZ..Z."a
   11de5:	4e04 5aa1 5a63 5aa1 2b63 5aa1 fd5a b121     N.Z.ZcZ.+cZ..Z.!
   11df5:	635a a1d4 635a b006 61c1 075a b101 5a4b     cZ..cZ..a..Z..ZK
   11e05:	055a b329 6188 155a b026 5a41 805a a166     .Z.)a..Z.&ZA.Z.f
   11e15:	5ab1 325a b309 6146 035a a137 635a a10a     Z.2Z..aF.Z.7cZ..
   11e25:	635a a1e0 5ab1 3163 5aa1 bc63 5aa1 9861     cZ..Z.1cZ..cZ..a
   11e35:	4f04 5ab1 115a 41a2 5aa1 e65a b125 5a45     O.Z..ZA.Z..Z.%ZE
   11e45:	0d61 2c00 5aa2 8a5a b232 5ab4 2e61 4603     .a,.Z..Z.2Z..aF.
   11e55:	5aa1 c163 5ab0 065a a19d 5ab4 0e63 5aa1     Z..cZ..Z..Z..cZ.
   11e65:	7c63 5aa1 5d63 5aa1 8a5a b122 614e 045a     |cZ.]cZ..Z."aN.Z
   11e75:	a15a 5ab3 2963 5aa1 2b63 5aa1 fd5a b121     .ZZ.)cZ.+cZ..Z.!
   11e85:	635a a1d4 6133 0b5a 4005 5a43 055a a098     cZ..a3.Z@.ZC.Z..
   11e95:	5ab0 295a b101 5a41 805a a166 5ab1 325a     Z.)Z..ZA.Z.fZ.2Z
   11ea5:	b309 635a a137 635a a10a 635a a1e0 5ab1     ..cZ.7cZ..cZ..Z.
   11eb5:	3163 5aa1 bc61 4e04 5aa1 9863 5ab1 1161     1cZ..aN.Z..cZ..a
   11ec5:	5d15 5a41 a261 2c00 5aa1 e65a b125 5ab2     ].ZA.a,.Z..Z.%Z.
   11ed5:	125a 4507 5aa2 435a b232 5ab3 295a b42e     .ZE.Z.CZ.2Z.)Z..
   11ee5:	6146 035a a1c1 612c 005a b212 6146 035a     aF.Z..a,.Z..aF.Z
   11ef5:	a19d 612c 005a b40e 6146 035a a17c 635a     ..a,.Z..aF.Z.|cZ
   11f05:	a15d 614e 045a a18a 5ab1 2263 5aa1 5a5a     .]aN.Z..Z."cZ.ZZ
   11f15:	b309 635a a12b 635a a1fd 5ab1 2163 5ab0     ..cZ.+cZ..Z.!cZ.
   11f25:	095a a1d4 6133 0b5a 4007 5a43 075a a081     .Z..a3.Z@.ZC.Z..
   11f35:	5ab0 295a b101 5a41 805a a166 5ab1 3263     Z.)Z..ZA.Z.fZ.2c
   11f45:	5aa1 3763 5aa1 0a63 5aa1 e05a b131 635a     Z.7cZ..cZ..Z.1cZ
   11f55:	a1bc 614e 045a a198 635a b111 5ab3 2961     ..aN.Z..cZ..Z.)a
   11f65:	c80d 5ab0 0961 c107 5a40 095a 4309 5aa0     ..Z..a..Z@.ZC.Z.
   11f75:	665a b026 5a41 a25a a1e6 5ab1 255a 4504     fZ.&ZA.Z..Z.%ZE.
   11f85:	5aa2 8a5a b232 5ab3 095a b329 5ab4 2e63     Z..Z.2Z..Z.)Z..c
   11f95:	5aa1 c163 5aa1 9d5a b40e 635a a17c 635a     Z..cZ..Z..cZ.|cZ
   11fa5:	b006 5aa1 5d61 4e04 5aa1 8a5a b122 635a     ..Z.]aN.Z..Z."cZ
   11fb5:	4007 5a43 075a a08a 5ab0 265a a15a 5ab3     @.ZC.Z..Z.&Z.ZZ.
   11fc5:	0963 5aa1 2b63 5aa1 fd5a b121 6146 035a     .cZ.+cZ..Z.!aF.Z
   11fd5:	a1d4 6133 0b5a b101 612c 005a b329 612a     ..a3.Z..a,.Z.)a*
   11fe5:	0a5a b006 6132 0b5a b026 5ab3 0961 c80d     .Z..a2.Z.&Z..a..
   11ff5:	5ab0 0661 c107 5a40 095a 4309 5aa0 225a     Z..a..Z@.ZC.Z."Z
   12005:	b026 5aa1 e65a b125 5ab2 125a 4507 5aa2     .&Z..Z.%Z..ZE.Z.
   12015:	435a b232 612c 005a b432 6146 035a a1c1     CZ.2a,.Z.2aF.Z..
   12025:	5ab2 1263 5aa1 9d5a b412 635a a17c 635a     Z..cZ..Z..cZ.|cZ
   12035:	a15d 614e 045a a18a 5ab1 2263 5aa1 5a63     .]aN.Z..Z."cZ.Zc
   12045:	5aa1 2b63 5aa1 fd5a b121 635a a1d4 6133     Z.+cZ..Z.!cZ..a3
   12055:	0b5a b006 5ab1 015a b329 615c 155a 4008     .Z..Z..Z.)a\.Z@.
   12065:	5a43 0861 2c00 5ab0 265a 4180 5aa1 665a     ZC.a,.Z.&ZA.Z.fZ
   12075:	b132 5ab3 0961 4603 5aa1 3763 5aa1 0a63     .2Z..aF.Z.7cZ..c
   12085:	5aa1 e05a b131 635a a1bc 614f 045a a198     Z..Z.1cZ..aO.Z..
   12095:	635a b111 5a41 a25a a1e6 5ab1 255a 4506     cZ..ZA.Z..Z.%ZE.
   120a5:	612c 005a a28a 5ab2 325a b42e 6146 035a     a,.Z..Z.2Z..aF.Z
   120b5:	a1c1 635a a19d 5ab4 0e63 5aa1 7c63 5ab0     ..cZ..Z..cZ.|cZ.
   120c5:	065a a15d 614e 045a a18a 5ab1 2263 5aa1     .Z.]aN.Z..Z."cZ.
   120d5:	5a5a b329 635a a12b 635a a1fd 5ab1 2163     ZZ.)cZ.+cZ..Z.!c
   120e5:	5aa1 d461 330b 5a40 065a 4306 5aa0 985a     Z..a3.Z@.ZC.Z..Z
   120f5:	b029 5ab1 015a 4180 5aa1 665a b132 5ab3     .)Z..ZA.Z.fZ.2Z.
   12105:	0963 5aa1 3763 5aa1 0a63 5aa1 e05a b131     .cZ.7cZ..cZ..Z.1
   12115:	635a a1bc 614e 045a a198 635a b111 6189     cZ..aN.Z..cZ..a.
   12125:	155a 41a2 5aa1 e65a b125 5ab2 125a a243     .ZA.Z..Z.%Z..Z.C
   12135:	5ab2 325a b329 5ab4 2e61 4503 5aa1 c161     Z.2Z.)Z..aE.Z..a
   12145:	2d00 5ab2 125a b40e 6145 035a a19d 635a     -.Z..Z..aE.Z..cZ
   12155:	a17c 635a a15d 614f 045a a18a 5ab1 2263     .|cZ.]aO.Z..Z."c
   12165:	5aa1 5a5a b309 635a a12b 635a a1fd 5ab1     Z.ZZ..cZ.+cZ..Z.
   12175:	2163 5aa1 d463 5ab0 0961 c007 5aa0 815a     !cZ..cZ..a..Z..Z
   12185:	b029 5ab1 015a 4180 5aa1 665a b132 635a     .)Z..ZA.Z.fZ.2cZ
   12195:	a137 635a a10a 635a a1e0 5ab1 3161 4f04     .7cZ..cZ..Z.1aO.
   121a5:	5aa1 bc63 5aa1 9863 5ab1 115a b329 6188     Z..cZ..cZ..Z.)a.
   121b5:	155a b009 5a40 085a 4308 5aa0 665a b026     .Z..Z@.ZC.Z.fZ.&
   121c5:	5a41 a25a a1e6 5ab1 255a 4504 5aa2 8a5a     ZA.Z..Z.%ZE.Z..Z
   121d5:	b232 5ab3 095a b329 612d 005a b42e 6145     .2Z..Z.)a-.Z..aE
   121e5:	035a a1c1 5ab4 0e63 5aa1 9d63 5aa1 7c61     .Z..Z..cZ..cZ.|a
   121f5:	4f04 5aa1 5d63 5ab0 065a a18a 5ab1 2263     O.Z.]cZ..Z..Z."c
   12205:	5a40 065a 4306 5aa0 8a5a b026 5aa1 5a5a     Z@.ZC.Z..Z.&Z.ZZ
   12215:	b309 635a a12b 635a a1fd 5ab1 2161 4603     ..cZ.+cZ..Z.!aF.
   12225:	5aa1 d461 320b 5ab1 0161 2c00 5ab3 2961     Z..a2.Z..a,.Z.)a
   12235:	2a0a 5ab0 0661 4f04 5ab7 0e63 5ab6 115a     *.Z..aO.Z..cZ..Z
   12245:	b80e 635a b026 5ab3 0963 5ab5 0a61 320b     ..cZ.&Z..cZ..a2.
   12255:	5ab0 0663 5a53 0a5a a6cb 5ab6 315a a76c     Z..cZS.Z..Z.1Z.l
   12265:	5ab7 315a 5585 5ab8 2e63 5a40 075a 4307     Z.1ZU.Z..cZ@.ZC.
   12275:	5aa0 225a b026 5aa1 e65a b125 5ab2 125a     Z."Z.&Z..Z.%Z..Z
   12285:	4506 5aa2 4361 2c00 5ab2 325a b432 5aa5     E.Z.Ca,.Z.2Z.2Z.
   12295:	225a b52a 5aa6 cc61 4603 5aa1 c15a b212     "Z.*Z..aF.Z..Z..
   122a5:	5aa5 235a a6cd 635a a19d 5ab4 125a a6ce     Z.#Z..cZ..Z..Z..
   122b5:	635a a17c 5aa6 cf61 4f04 5aa1 5d63 5aa1     cZ.|Z..aO.Z.]cZ.
   122c5:	8a5a b122 635a a15a 635a a12b 635a a1fd     .Z."cZ.ZcZ.+cZ..
   122d5:	5ab1 2163 5aa1 d461 4e04 5ab0 0663 635a     Z.!cZ..aN.Z..ccZ
   122e5:	b101 5a4b 065a b329 615d 155a 4006 612c     ..ZK.Z.)a].Z@.a,
   122f5:	005a 4306 5ab0 265a 4180 5aa1 665a b132     .ZC.Z.&ZA.Z.fZ.2
   12305:	5ab3 0961 4603 5aa1 3763 5aa1 0a63 5aa1     Z..aF.Z.7cZ..cZ.
   12315:	e05a b131 614e 045a a1bc 635a a198 635a     .Z.1aN.Z..cZ..cZ
   12325:	b111 5a41 a25a a1e6 5ab1 2561 2c00 5aa2     ..ZA.Z..Z.%a,.Z.
   12335:	8a5a b232 5ab4 2e61 4603 5aa1 c163 5aa1     .Z.2Z..aF.Z..cZ.
   12345:	9d5a b40e 635a b006 5aa1 7c61 4f04 5aa1     .Z..cZ..Z.|aO.Z.
   12355:	5d63 5aa1 8a5a b122 635a a15a 5ab3 2963     ]cZ..Z."cZ.ZZ.)c
   12365:	5aa1 2b63 5aa1 fd5a b121 635a a1d4 6132     Z.+cZ..Z.!cZ..a2
   12375:	0b5a 4004 5a43 045a a098 5ab0 295a b101     .Z@.ZC.Z..Z.)Z..
   12385:	5a41 805a a166 5ab1 325a b309 635a a137     ZA.Z.fZ.2Z..cZ.7
   12395:	635a a10a 635a a1e0 5ab1 3161 4f04 5aa1     cZ..cZ..Z.1aO.Z.
   123a5:	bc63 5aa1 9863 5ab1 1161 8815 5a41 a25a     .cZ..cZ..a..ZA.Z
   123b5:	a1e6 5ab1 255a b212 5a45 075a a243 5ab2     ..Z.%Z..ZE.Z.CZ.
   123c5:	325a b329 5ab4 2e61 4603 5aa1 c161 2c00     2Z.)Z..aF.Z..a,.
   123d5:	5ab2 1261 4603 5aa1 9d61 2c00 5ab4 0e61     Z..aF.Z..a,.Z..a
   123e5:	4603 5aa1 7c61 4f04 5aa1 5d63 5aa1 8a5a     F.Z.|aO.Z.]cZ..Z
   123f5:	b122 635a a15a 5ab3 0963 5aa1 2b63 5aa1     ."cZ.ZZ..cZ.+cZ.
   12405:	fd5a b121 635a a1d4 614e 045a b009 6363     .Z.!cZ..aN.Z..cc
   12415:	5a40 065a 4306 5aa0 815a b029 5ab1 015a     Z@.ZC.Z..Z.)Z..Z
   12425:	4180 5aa1 6661 2c00 5ab1 3261 4603 5aa1     A.Z.fa,.Z.2aF.Z.
   12435:	3763 5aa1 0a63 5aa1 e05a b131 614f 045a     7cZ..cZ..Z.1aO.Z
   12445:	a1bc 635a a198 635a b111 5ab3 2961 1612     ..cZ..cZ..Z.)a..
   12455:	5ab0 0963 5a40 075a 4307 5aa0 665a b026     Z..cZ@.ZC.Z.fZ.&
   12465:	5a41 a25a a1e6 5ab1 255a 4506 5aa2 8a5a     ZA.Z..Z.%ZE.Z..Z
   12475:	b232 5ab3 095a b329 612c 005a b42e 6146     .2Z..Z.)a,.Z..aF
   12485:	035a a1c1 635a a19d 5ab4 0e63 5aa1 7c61     .Z..cZ..Z..cZ.|a
   12495:	4f04 5ab0 065a a15d 635a a18a 5ab1 2263     O.Z..Z.]cZ..Z."c
   124a5:	5a40 065a 4306 5aa0 8a5a b026 5aa1 5a5a     Z@.ZC.Z..Z.&Z.ZZ
   124b5:	b309 635a a12b 635a a1fd 5ab1 2163 5aa1     ..cZ.+cZ..Z.!cZ.
   124c5:	d461 060b 5ab1 0161 2c00 5ab3 2961 2a0a     .a..Z..a,.Z.)a*.
   124d5:	5ab0 0661 330b 5ab0 265a b309 6188 155a     Z..a3.Z.&Z..a..Z
   124e5:	b006 5aa0 225a b026 5aa1 e65a b125 5ab2     ..Z."Z.&Z..Z.%Z.
   124f5:	1261 2c00 5a45 045a a243 5ab2 325a b432     .a,.ZE.Z.CZ.2Z.2
   12505:	6146 035a a1c1 5ab2 1263 5aa1 9d61 4f04     aF.Z..Z..cZ..aO.
   12515:	5aa1 7c5a b412 635a a15d 635a a18a 5ab1     Z.|Z..cZ.]cZ..Z.
   12525:	2263 5aa1 5a63 5aa1 2b63 5aa1 fd5a b121     "cZ.ZcZ.+cZ..Z.!
   12535:	614e 045a a1d4 6363 5ab0 0663 5ab1 015a     aN.Z..ccZ..cZ..Z
   12545:	b329 615c 155a 4008 612d 005a 4308 5ab0     .)a\.Z@.a-.ZC.Z.
   12555:	265a 4180 5aa1 665a b132 5ab3 095a b42e     &ZA.Z.fZ.2Z..Z..
   12565:	6145 035a a137 612d 005a b40e 6145 035a     aE.Z.7a-.Z..aE.Z
   12575:	a10a 614f 045a a1e0 5ab1 3163 5aa1 bc63     ..aO.Z..Z.1cZ..c
   12585:	5aa1 9863 5ab1 115a 41a2 5aa1 e65a b125     Z..cZ..ZA.Z..Z.%
   12595:	612c 005a 4507 5aa2 8a5a b232 5ab4 2e61     a,.ZE.Z..Z.2Z..a
   125a5:	4603 5aa1 c15a b40e 635a a19d 614e 045a     F.Z..Z..cZ..aN.Z
   125b5:	b006 5aa1 7c63 5aa1 5d63 5aa1 8a5a b122     ..Z.|cZ.]cZ..Z."
   125c5:	635a a15a 5ab3 2963 5aa1 2b63 5aa1 fd5a     cZ.ZZ.)cZ.+cZ..Z
   125d5:	b121 614f 045a a1d4 6156 0a5a 4003 5a43     .!aO.Z..aV.Z@.ZC
   125e5:	035a a098 5ab0 295a b101 5a41 805a a166     .Z..Z.)Z..ZA.Z.f
   125f5:	5ab1 325a b309 5ab4 2e63 5aa1 375a b40e     Z.2Z..Z..cZ.7Z..
   12605:	635a a10a 614e 045a a1e0 5ab1 3163 5aa1     cZ..aN.Z..Z.1cZ.
   12615:	bc63 5aa1 9863 5ab1 1161 8915 5a41 a25a     .cZ..cZ..a..ZA.Z
   12625:	a1e6 5ab1 255a b212 5a45 065a a243 5ab2     ..Z.%Z..ZE.Z.CZ.
   12635:	325a b329 5ab4 2e63 5aa1 c15a b212 5ab4     2Z.)Z..cZ..Z..Z.
   12645:	0e61 4603 5aa1 9d61 4e04 5aa1 7c63 5ab0     .aF.Z..aN.Z.|cZ.
   12655:	0961 2c00 5aa1 5d61 4603 5aa1 8a5a b122     .a,.Z.]aF.Z..Z."
   12665:	635a 4005 5a43 055a a081 5ab0 2961 2c00     cZ@.ZC.Z..Z.)a,.
   12675:	5aa1 5a5a b309 5ab4 2e61 4603 5aa1 2b5a     Z.ZZ..Z..aF.Z.+Z
   12685:	b40e 635a a1fd 5ab1 2161 4f04 5aa1 d461     ..cZ..Z.!aO.Z..a
   12695:	560a 5ab1 015a 4180 5aa1 665a b132 635a     V.Z..ZA.Z.fZ.2cZ
   126a5:	a137 635a a10a 614e 045a b009 5aa1 e05a     .7cZ..aN.Z..Z..Z
   126b5:	b131 635a a1bc 635a a198 635a b111 5aa1     .1cZ..cZ..cZ..Z.
   126c5:	665a b132 5ab3 295a b42e 635a a137 5ab4     fZ.2Z.)Z..cZ.7Z.
   126d5:	0e63 5aa1 0a61 4f04 5aa1 e05a b131 635a     .cZ..aO.Z..Z.1cZ
   126e5:	a1bc 635a a198 635a b111 5a41 a25a a1e6     ..cZ..cZ..ZA.Z..
   126f5:	5ab1 255a a28a 5ab2 325a b309 5ab3 295a     Z.%Z..Z.2Z..Z.)Z
   12705:	b42e 635a a1c1 635a a19d 5ab4 0e61 4e04     ..cZ..cZ..Z..aN.
   12715:	5aa1 7c63 5aa1 5d63 5aa1 8a5a b122 635a     Z.|cZ.]cZ..Z."cZ
   12725:	a15a 5ab3 0963 5aa1 2b63 5aa1 fd5a b121     .ZZ..cZ.+cZ..Z.!
   12735:	614f 045a a1d4 612a 0a5a b101 612c 005a     aO.Z..a*.Z..a,.Z
   12745:	b432 6146 035a b611 635a b412 5ab7 1161     .2aF.Z..cZ..Z..a
   12755:	2c00 5ab8 0e61 780e 5ab3 2961 8915 5a40     ,.Z..ax.Z.)a..Z@
   12765:	075a 4307 5aa0 225a b026 5aa1 e65a b125     .ZC.Z."Z.&Z..Z.%
   12775:	5ab2 125a 4502 612c 005a a243 5ab2 325a     Z..ZE.a,.Z.CZ.2Z
   12785:	b309 5ab4 2e5a b50a 5aa5 225a b52a 5a53     ..Z..Z..Z."Z.*ZS
   12795:	115a a698 5ab6 315a a78a 5ab7 2e5a 5587     .Z..Z.1Z..Z..ZU.
   127a5:	5ab8 2e61 4603 5aa1 c15a b212 5aa5 235a     Z..aF.Z..Z..Z.#Z
   127b5:	a699 635a a19d 5aa6 9a61 4e04 5aa1 7c5a     ..cZ..Z..aN.Z.|Z
   127c5:	b40e 5aa6 9b63 5aa1 5d63 5aa1 8a5a b122     ..Z..cZ.]cZ..Z."
   127d5:	635a a15a 635a a12b 635a a1fd 5ab1 2161     cZ.ZcZ.+cZ..Z.!a
   127e5:	4f04 5aa1 d463 5ab0 0663 635a b101 5a4b     O.Z..cZ..ccZ..ZK
   127f5:	055a b329 6188 155a b026 5a41 805a a166     .Z.)a..Z.&ZA.Z.f
   12805:	5ab1 325a b309 6146 035a a137 635a a10a     Z.2Z..aF.Z.7cZ..
   12815:	614f 045a a1e0 5ab1 3163 5aa1 bc63 5aa1     aO.Z..Z.1cZ..cZ.
   12825:	9863 5ab1 115a 41a2 5aa1 e65a b125 612c     .cZ..ZA.Z..Z.%a,
   12835:	005a 4506 5aa2 8a5a b232 5ab4 2e61 4603     .ZE.Z..Z.2Z..aF.
   12845:	5aa1 c163 5ab0 065a a19d 5ab4 0e61 4e04     Z..cZ..Z..Z..aN.
   12855:	5aa1 7c63 5aa1 5d63 5aa1 8a5a b122 635a     Z.|cZ.]cZ..Z."cZ
   12865:	a15a 5ab3 2963 5aa1 2b61 4f04 5aa1 fd5a     .ZZ.)cZ.+aO.Z..Z
   12875:	b121 635a a1d4 6156 0a5a 4005 5a43 055a     .!cZ..aV.Z@.ZC.Z
   12885:	a098 5ab0 295a b101 5a41 805a a166 5ab1     ..Z.)Z..ZA.Z.fZ.
   12895:	325a b309 635a a137 614e 045a a10a 635a     2Z..cZ.7aN.Z..cZ
   128a5:	a1e0 5ab1 3163 5aa1 bc63 5aa1 9863 5ab1     ..Z.1cZ..cZ..cZ.
   128b5:	1161 8915 5a41 a25a a1e6 5ab1 255a b212     .a..ZA.Z..Z.%Z..
   128c5:	5aa2 435a b232 5ab3 295a b42e 635a a1c1     Z.CZ.2Z.)Z..cZ..
   128d5:	5ab2 1261 2204 5aa1 9d61 2c00 5ab4 0e61     Z..a".Z..a,.Z..a
   128e5:	4603 5aa1 7c63 5aa1 5d63 5aa1 8a5a b122     F.Z.|cZ.]cZ..Z."
   128f5:	635a a15a 5ab3 0963 5aa1 2b61 4f04 5aa1     cZ.ZZ..cZ.+aO.Z.
   12905:	fd5a b121 635a b009 5aa1 d461 560a 5a40     .Z.!cZ..Z..aV.Z@
   12915:	075a 4307 5aa0 815a b029 5ab1 015a 4180     .ZC.Z..Z.)Z..ZA.
   12925:	5aa1 6661 2c00 5ab1 3261 4603 5aa1 3761     Z.fa,.Z.2aF.Z.7a
   12935:	4e04 5aa1 0a63 5aa1 e05a b131 635a a1bc     N.Z..cZ..Z.1cZ..
   12945:	635a a198 635a b111 5ab3 295a b432 61c1     cZ..cZ..Z.)Z.2a.
   12955:	075a b412 6363 5ab0 0963 635a 4009 5a43     .Z..ccZ..ccZ@.ZC
   12965:	095a a066 5ab0 265a 41a2 5aa1 e65a b125     .Z.fZ.&ZA.Z..Z.%
   12975:	5aa2 8a5a b232 5ab3 095a b329 612c 005a     Z..Z.2Z..Z.)a,.Z
   12985:	b42e 6146 035a a1c1 614e 045a a19d 5ab4     ..aF.Z..aN.Z..Z.
   12995:	0e63 5aa1 7c63 5ab0 065a a15d 635a a18a     .cZ.|cZ..Z.]cZ..
   129a5:	5ab1 2263 5a40 075a 4307 5aa0 8a5a b026     Z."cZ@.ZC.Z..Z.&
   129b5:	5aa1 5a5a b309 635a a12b 614f 045a a1fd     Z.ZZ..cZ.+aO.Z..
   129c5:	5ab1 2163 5aa1 d461 290a 5ab1 0161 2d00     Z.!cZ..a).Z..a-.
   129d5:	5ab3 295a b432 6145 035a b412 61c1 075a     Z.)Z.2aE.Z..a..Z
   129e5:	b006 6156 0a5a b026 5ab3 0961 a40e 5ab0     ..aV.Z.&Z..a..Z.
   129f5:	0663 635a 4009 5a43 095a a022 5ab0 265a     .ccZ@.ZC.Z."Z.&Z
   12a05:	a1e6 5ab1 255a b212 612d 005a a243 5ab2     ..Z.%Z..a-.Z.CZ.
   12a15:	325a b42e 6145 035a a1c1 5ab2 1261 4f04     2Z..aE.Z..Z..aO.
   12a25:	5aa1 9d5a b40e 635a a17c 635a a15d 635a     Z..Z..cZ.|cZ.]cZ
   12a35:	a18a 5ab1 2263 5aa1 5a63 5aa1 2b61 4e04     ..Z."cZ.ZcZ.+aN.
   12a45:	5aa1 fd5a b121 635a a1d4 6156 0a5a b006     Z..Z.!cZ..aV.Z..
   12a55:	5ab1 015a b329 615d 155a 4008 612c 005a     Z..Z.)a].Z@.a,.Z
   12a65:	4308 5ab0 265a 4180 5aa1 665a b132 5ab3     C.Z.&ZA.Z.fZ.2Z.
   12a75:	095a b42e 6146 035a a137 612c 005a b40e     .Z..aF.Z.7a,.Z..
   12a85:	6122 045a a10a 635a a1e0 5ab1 3163 5aa1     a".Z..cZ..Z.1cZ.
   12a95:	bc63 5aa1 9863 5ab1 115a 41a2 5aa1 e65a     .cZ..cZ..ZA.Z..Z
   12aa5:	b125 612c 005a 4507 5aa2 8a5a b232 5ab4     .%a,.ZE.Z..Z.2Z.
   12ab5:	2e61 4603 5aa1 c161 4f04 5aa1 9d5a b40e     .aF.Z..aO.Z..Z..
   12ac5:	635a a17c 635a b006 5aa1 5d63 5aa1 8a5a     cZ.|cZ..Z.]cZ..Z
   12ad5:	b122 635a a15a 5ab3 2963 5aa1 2b61 4e04     ."cZ.ZZ.)cZ.+aN.
   12ae5:	5aa1 fd5a b121 635a a1d4 6156 0a5a 4006     Z..Z.!cZ..aV.Z@.
   12af5:	5a43 065a a098 5ab0 295a b101 5a41 805a     ZC.Z..Z.)Z..ZA.Z
   12b05:	a166 5ab1 325a b309 5aa4 6c5a b431 635a     .fZ.2Z..Z.lZ.1cZ
   12b15:	a137 614f 045a a10a 5ab4 1163 5aa1 e05a     .7aO.Z..Z..cZ..Z
   12b25:	b131 635a a1bc 635a a198 635a b111 6188     .1cZ..cZ..cZ..a.
   12b35:	155a 41a2 5aa1 e65a b125 5ab2 125a 4504     .ZA.Z..Z.%Z..ZE.
   12b45:	5aa2 435a b232 5ab3 295a a422 5ab4 2e63     Z.CZ.2Z.)Z."Z..c
   12b55:	5aa1 c15a b212 6123 045a a19d 612c 005a     Z..Z..a#.Z..a,.Z
   12b65:	b40e 6146 035a a17c 635a a15d 635a a18a     ..aF.Z.|cZ.]cZ..
   12b75:	5ab1 2263 5aa1 5a5a b309 612c 005a a498     Z."cZ.ZZ..a,.Z..
   12b85:	5ab4 3161 4603 5aa1 2b61 4e04 5aa1 fd5a     Z.1aF.Z.+aN.Z..Z
   12b95:	b121 5ab4 1163 5aa1 d463 5ab0 0963 635a     .!Z..cZ..cZ..ccZ
   12ba5:	a081 5ab0 295a b101 5a41 8061 2c00 5aa1     ..Z.)Z..ZA.a,.Z.
   12bb5:	665a b132 6146 035a a137 614f 045a a10a     fZ.2aF.Z.7aO.Z..
   12bc5:	635a a1e0 5ab1 3163 5aa1 bc63 5aa1 9863     cZ..Z.1cZ..cZ..c
   12bd5:	5ab1 115a b329 5aa4 6c5a b431 614e 045a     Z..Z.)Z.lZ.1aN.Z
   12be5:	b411 613a 115a b009 5a40 085a 4308 5aa0     ..a:.Z..Z@.ZC.Z.
   12bf5:	665a b026 5a41 a25a a1e6 5ab1 255a 4506     fZ.&ZA.Z..Z.%ZE.
   12c05:	5aa2 8a5a b232 5ab3 0961 2c00 5ab3 295a     Z..Z.2Z..a,.Z.)Z
   12c15:	a48a 5ab4 2e61 2304 5aa1 c163 5aa1 9d5a     ..Z..a#.Z..cZ..Z
   12c25:	b40e 635a a17c 635a a15d 635a b006 5aa1     ..cZ.|cZ.]cZ..Z.
   12c35:	8a5a b122 635a 4006 5a43 065a a08a 5ab0     .Z."cZ@.ZC.Z..Z.
   12c45:	265a a15a 5ab3 0961 4e04 5aa1 2b63 5aa1     &Z.ZZ..aN.Z.+cZ.
   12c55:	fd5a b121 635a a1d4 612a 0a5a b101 612c     .Z.!cZ..a*.Z..a,
   12c65:	005a b329 5aa4 225a b432 6195 075a b412     .Z.)Z."Z.2a..Z..
   12c75:	635a b006 635a b70e 635a b611 5ab8 0e63     cZ..cZ..cZ..Z..c
   12c85:	5ab0 265a b309 614e 045a b50a 6156 0a5a     Z.&Z..aN.Z..aV.Z
   12c95:	b006 635a 530a 5aa6 cb5a b631 5aa7 6c5a     ..cZS.Z..Z.1Z.lZ
   12ca5:	b731 5a55 855a b82e 635a 4007 5a43 075a     .1ZU.Z..cZ@.ZC.Z
   12cb5:	a022 5ab0 265a a1e6 5ab1 255a b212 612c     ."Z.&Z..Z.%Z..a,
   12cc5:	005a a243 5ab2 325a b42e 5aa5 225a b52a     .Z.CZ.2Z..Z."Z.*
   12cd5:	5aa6 cc61 2304 5aa1 c15a b212 5aa5 235a     Z..a#.Z..Z..Z.#Z
   12ce5:	a6cd 635a a19d 5aa6 ce63 5aa1 7c5a a6cf     ..cZ..Z..cZ.|Z..
   12cf5:	635a a15d 5ab4 0e63 5aa1 8a5a b122 635a     cZ.]Z..cZ..Z."cZ
   12d05:	a15a 614e 045a a12b 635a a1fd 5ab1 2163     .ZaN.Z.+cZ..Z.!c
   12d15:	5aa1 d463 5ab0 0663 635a b101 5a4b 065a     Z..cZ..ccZ..ZK.Z
   12d25:	b329 6189 155a 4006 5a43 065a b026 5a41     .)a..Z@.ZC.Z.&ZA
   12d35:	805a a166 5ab1 325a b309 6122 045a a137     .Z.fZ.2Z..a".Z.7
   12d45:	635a a10a 635a a1e0 5ab1 3163 5aa1 bc63     cZ..cZ..Z.1cZ..c
   12d55:	5aa1 9863 5ab1 115a 41a2 5aa1 e65a b125     Z..cZ..ZA.Z..Z.%
   12d65:	612c 005a a28a 5ab2 325a b42e 6123 045a     a,.Z..Z.2Z..a#.Z
   12d75:	a1c1 635a a19d 635a b006 5aa1 7c5a b40e     ..cZ..cZ..Z.|Z..
   12d85:	635a a15d 635a a18a 5ab1 2263 5aa1 5a5a     cZ.]cZ..Z."cZ.ZZ
   12d95:	b329 614e 045a a12b 635a a1fd 5ab1 2163     .)aN.Z.+cZ..Z.!c
   12da5:	5aa1 d461 560a 5a40 045a 4304 5aa0 985a     Z..aV.Z@.ZC.Z..Z
   12db5:	b029 5ab1 015a 4180 5aa1 665a b132 5ab3     .)Z..ZA.Z.fZ.2Z.
   12dc5:	0961 4f04 5aa1 3763 5aa1 0a63 5aa1 e05a     .aO.Z.7cZ..cZ..Z
   12dd5:	b131 635a a1bc 635a a198 635a b111 6188     .1cZ..cZ..cZ..a.
   12de5:	155a 41a2 5aa1 e65a b125 5ab2 125a a243     .ZA.Z..Z.%Z..Z.C
   12df5:	5ab2 325a b329 5ab4 2e61 4f04 5aa1 c15a     Z.2Z.)Z..aO.Z..Z
   12e05:	b212 635a a19d 6145 035a a17c 635a a15d     ..cZ..aE.Z.|cZ.]
   12e15:	612d 005a b40e 6145 035a a18a 5ab1 2263     a-.Z..aE.Z..Z."c
   12e25:	5aa1 5a61 2d00 5ab3 0961 2204 5aa1 2b63     Z.Za-.Z..a".Z.+c
   12e35:	5aa1 fd5a b121 635a a1d4 635a b009 6363     Z..Z.!cZ..cZ..cc
   12e45:	5a40 065a 4306 5aa0 815a b029 5ab1 015a     Z@.ZC.Z..Z.)Z..Z
   12e55:	4180 612c 005a a166 5ab1 325a b432 6122     A.a,.Z.fZ.2Z.2a"
   12e65:	045a a137 5ab4 1263 5aa1 0a63 5aa1 e05a     .Z.7Z..cZ..cZ..Z
   12e75:	b131 635a a1bc 635a a198 635a b111 5ab3     .1cZ..cZ..cZ..Z.
   12e85:	2961 1712 5ab0 0963 5a40 075a 4307 5aa0     )a..Z..cZ@.ZC.Z.
   12e95:	665a b026 5a41 a25a a1e6 5ab1 255a 4509     fZ.&ZA.Z..Z.%ZE.
   12ea5:	5aa2 8a5a b232 5ab3 095a b329 612c 005a     Z..Z.2Z..Z.)a,.Z
   12eb5:	b42e 6122 045a a1c1 635a a19d 635a a17c     ..a".Z..cZ..cZ.|
   12ec5:	5ab4 0e63 5ab0 065a a15d 635a a18a 5ab1     Z..cZ..Z.]cZ..Z.
   12ed5:	2263 5a40 065a 4306 5aa0 8a5a b026 5aa1     "cZ@.ZC.Z..Z.&Z.
   12ee5:	5a5a b309 614f 045a a12b 635a a1fd 5ab1     ZZ..aO.Z.+cZ..Z.
   12ef5:	2163 5aa1 d461 2a0a 5ab1 0161 2c00 5ab3     !cZ..a*.Z..a,.Z.
   12f05:	2961 060b 5ab0 0661 560a 5ab0 265a b309     )a..Z..aV.Z.&Z..
   12f15:	6165 165a b006 5aa0 225a b026 5aa1 e65a     ae.Z..Z."Z.&Z..Z
   12f25:	b125 612c 005a b212 5a45 065a a243 5ab2     .%a,.Z..ZE.Z.CZ.
   12f35:	325a b42e 6146 035a a1c1 5ab2 1263 5aa1     2Z..aF.Z..Z..cZ.
   12f45:	9d63 5aa1 7c5a b40e 635a a15d 635a a18a     .cZ.|Z..cZ.]cZ..
   12f55:	5ab1 2261 4f04 5aa1 5a63 5aa1 2b63 5aa1     Z."aO.Z.ZcZ.+cZ.
   12f65:	fd5a b121 635a a1d4 6363 5ab0 0661 4e04     .Z.!cZ..ccZ..aN.
   12f75:	5ab1 015a b329 6189 155a 4008 5a43 085a     Z..Z.)a..Z@.ZC.Z
   12f85:	b026 5a41 805a a166 5ab1 325a b309 6146     .&ZA.Z.fZ.2Z..aF
   12f95:	035a a137 635a a10a 635a a1e0 5ab1 3163     .Z.7cZ..cZ..Z.1c
   12fa5:	5aa1 bc63 5aa1 9861 4e04 5ab1 115a 41a2     Z..cZ..aN.Z..ZA.
   12fb5:	5aa1 e65a b125 612c 005a a28a 5ab2 325a     Z..Z.%a,.Z..Z.2Z
   12fc5:	b42e 6146 035a a1c1 635a a19d 635a b006     ..aF.Z..cZ..cZ..
   12fd5:	5aa1 7c63 5aa1 5d5a b40e 635a a18a 5ab1     Z.|cZ.]Z..cZ..Z.
   12fe5:	2261 4f04 5aa1 5a5a b329 635a a12b 635a     "aO.Z.ZZ.)cZ.+cZ
   12ff5:	a1fd 5ab1 2163 5aa1 d461 320b 5a40 035a     ..Z.!cZ..a2.Z@.Z
   13005:	4303 5aa0 985a b029 5ab1 015a 4180 5aa1     C.Z..Z.)Z..ZA.Z.
   13015:	665a b132 5ab3 0963 5aa1 3763 5aa1 0a63     fZ.2Z..cZ.7cZ..c
   13025:	5aa1 e05a b131 635a a1bc 635a a198 614f     Z..Z.1cZ..cZ..aO
   13035:	045a b111 5ab4 3263 5ab4 1261 1612 5a41     .Z..Z.2cZ..a..ZA
   13045:	a25a a1e6 5ab1 255a b212 5a45 0a5a a243     .Z..Z.%Z..ZE.Z.C
   13055:	5ab2 325a b329 5ab4 2e63 5aa1 c15a b212     Z.2Z.)Z..cZ..Z..
   13065:	635a a19d 6146 035a a17c 612c 005a b40e     cZ..aF.Z.|a,.Z..
   13075:	6146 035a b009 612c 005a a15d 6146 035a     aF.Z..a,.Z.]aF.Z
   13085:	a18a 5ab1 2261 4f04 5a40 055a 4305 5aa0     ..Z."aO.Z@.ZC.Z.
   13095:	8161 2c00 5ab0 295a a15a 5ab3 0961 4603     .a,.Z.)Z.ZZ..aF.
   130a5:	5aa1 2b63 5aa1 fd5a b121 635a a1d4 6132     Z.+cZ..Z.!cZ..a2
   130b5:	0b5a b101 5a41 805a a166 5ab1 325a a46c     .Z..ZA.Z.fZ.2Z.l
   130c5:	5ab4 3163 5aa1 3763 5aa1 0a63 5ab0 095a     Z.1cZ.7cZ..cZ..Z
   130d5:	a1e0 5ab1 315a b411 635a a1bc 635a a198     ..Z.1Z..cZ..cZ..
   130e5:	614f 045a b111 5aa1 665a b132 5ab3 2963     aO.Z..Z.fZ.2Z.)c
   130f5:	5aa1 3763 5aa1 0a63 5aa1 e05a b131 635a     Z.7cZ..cZ..Z.1cZ
   13105:	a1bc 635a a198 614e 045a b111 5a41 a25a     ..cZ..aN.Z..ZA.Z
   13115:	a1e6 5ab1 255a 4509 5ab2 325a b309 5ab3     ..Z.%ZE.Z.2Z..Z.
   13125:	295a a422 5ab4 2e63 5aa1 c15a b212 635a     )Z."Z..cZ..Z..cZ
   13135:	a19d 5ab4 0e63 5aa1 7c63 5aa1 5d63 5aa1     ..Z..cZ.|cZ.]cZ.
   13145:	8a5a b122 614f 045a a15a 5ab3 095a a498     .Z."aO.Z.ZZ..Z..
   13155:	5ab4 3163 5aa1 2b5a b411 635a a1fd 5ab1     Z.1cZ.+Z..cZ..Z.
   13165:	2163 5aa1 d461 060b 5ab1 0161 2c00 5aa4     !cZ..a..Z..a,.Z.
   13175:	225a b42e 6146 035a b40e 612c 005a b611     "Z..aF.Z..a,.Z..
   13185:	6146 035a b711 612c 005a b80e 6179 0e5a     aF.Z..a,.Z..ay.Z
   13195:	b329 6188 155a 4007 5a43 075a a022 5ab0     .)a..Z@.ZC.Z."Z.
   131a5:	265a a1e6 5ab1 255a b309 612c 005a b42e     &Z..Z.%Z..a,.Z..
   131b5:	5ab5 0a5a a522 5ab5 2a5a 5311 5aa6 985a     Z..Z."Z.*ZS.Z..Z
   131c5:	b631 5aa7 8a5a b72e 5a55 875a b82e 6146     .1Z..Z..ZU.Z..aF
   131d5:	035a a1c1 5aa5 235a a699 635a a19d 5aa6     .Z..Z.#Z..cZ..Z.
   131e5:	9a63 5aa1 7c5a b40e 5aa6 9b63 5aa1 5d63     .cZ.|Z..Z..cZ.]c
   131f5:	5aa1 8a5a b122 614f 045a a15a 635a a12b     Z..Z."aO.Z.ZcZ.+
   13205:	635a a1fd 5ab1 2163 5aa1 d463 5ab0 0663     cZ..Z.!cZ..cZ..c
   13215:	5ab1 0161 d719 5ab0 2661 5c15 5aa1 e65a     Z..a..Z.&a\.Z..Z
   13225:	b125 612c 005a b42e 6146 035a a1c1 635a     .%a,.Z..aF.Z..cZ
   13235:	b006 5aa1 9d5a b40e 635a a17c 635a a15d     ..Z..Z..cZ.|cZ.]
   13245:	635a a18a 5ab1 2261 4e04 5aa1 5a63 5aa1     cZ..Z."aN.Z.ZcZ.
   13255:	2b63 5aa1 fd5a b121 635a a1d4 61c1 075a     +cZ..Z.!cZ..a..Z
   13265:	b101 635a 4005 5a43 055a a098 5ab0 2961     ..cZ@.ZC.Z..Z.)a
   13275:	112b 5aa1 e65a b125 5ab4 2e63 5aa1 c163     .+Z..Z.%Z..cZ..c
   13285:	5aa1 9d5a b40e 635a a17c 6146 035a a15d     Z..Z..cZ.|aF.Z.]
   13295:	614e 045a a18a 5ab1 2263 5aa1 5a63 5aa1     aN.Z..Z."cZ.ZcZ.
   132a5:	2b63 5aa1 fd5a b121 635a b009 5ab1 0161     +cZ..Z.!cZ..Z..a
   132b5:	330b 5a40 075a 4307 5aa0 815a b029 6188     3.Z@.ZC.Z..Z.)a.
   132c5:	155a b432 6363 5ab4 1263 635a b009 61c1     .Z.2ccZ..ccZ..a.
   132d5:	075a 4009 5a43 095a a066 5ab0 265a a1e6     .Z@.ZC.Z.fZ.&Z..
   132e5:	5ab1 255a b42e 635a a1c1 635a a19d 5ab4     Z.%Z..cZ..cZ..Z.
   132f5:	0e63 5aa1 7c63 5ab0 065a a15d 614e 045a     .cZ.|cZ..Z.]aN.Z
   13305:	a18a 5ab1 2263 5a40 075a 4307 5aa0 8a5a     ..Z."cZ@.ZC.Z..Z
   13315:	b026 5aa1 5a63 5aa1 2b63 5aa1 fd5a b121     .&Z.ZcZ.+cZ..Z.!
   13325:	635a a1d4 635a b101 61c1 075a b432 6146     cZ..cZ..a..Z.2aF
   13335:	035a b412 6363 5ab0 0661 320b 5ab0 2661     .Z..ccZ..a2.Z.&a
   13345:	c80d 5ab0 0661 c107 5a40 095a 4309 5aa0     ..Z..a..Z@.ZC.Z.
   13355:	225a b026 5aa1 e65a b125 5ab4 2e63 5aa1     "Z.&Z..Z.%Z..cZ.
   13365:	c163 5aa1 9d5a b40e 635a a17c 635a a15d     .cZ..Z..cZ.|cZ.]
   13375:	614e 045a a18a 5ab1 2263 5aa1 5a63 5aa1     aN.Z..Z."cZ.ZcZ.
   13385:	2b63 5aa1 fd5a b121 635a b101 6133 0b5a     +cZ..Z.!cZ..a3.Z
   13395:	b006 6188 155a 4008 5a43 085a b026 5ab4     ..a..Z@.ZC.Z.&Z.
   133a5:	2e63 5ab4 0e61 eb11 5aa1 e65a b125 612c     .cZ..a..Z..Z.%a,
   133b5:	005a b42e 6146 035a a1c1 635a a19d 5ab4     .Z..aF.Z..cZ..Z.
   133c5:	0e63 5aa1 7c63 5ab0 065a a15d 614e 045a     .cZ.|cZ..Z.]aN.Z
   133d5:	a18a 5ab1 2263 5aa1 5a63 5aa1 2b63 5aa1     ..Z."cZ.ZcZ.+cZ.
   133e5:	fd5a b121 635a a1d4 635a b101 61c1 075a     .Z.!cZ..cZ..a..Z
   133f5:	4006 5a43 065a a098 5ab0 295a a46c 5ab4     @.ZC.Z..Z.)Z.lZ.
   13405:	3163 635a b411 612d 245a a1e6 5ab1 255a     1ccZ..a-$Z..Z.%Z
   13415:	a422 5ab4 2e63 5aa1 c163 5aa1 9d5a b40e     ."Z..cZ..cZ..Z..
   13425:	635a a17c 6146 035a a15d 614e 045a a18a     cZ.|aF.Z.]aN.Z..
   13435:	5ab1 2263 5aa1 5a61 2c00 5aa4 985a b431     Z."cZ.Za,.Z..Z.1
   13445:	6146 035a a12b 635a b102 5ab4 1163 635a     aF.Z.+cZ..Z..ccZ
   13455:	b009 61c1 075a a081 5ab0 2961 8815 5aa4     ..a..Z..Z.)a..Z.
   13465:	6c5a b431 635a b411 6117 125a b009 5a40     lZ.1cZ..a..Z..Z@
   13475:	085a 4308 5aa0 665a b026 5aa1 e65a b125     .ZC.Z.fZ.&Z..Z.%
   13485:	5aa4 8a5a b42e 635a a1c1 635a a19d 5ab4     Z..Z..cZ..cZ..Z.
   13495:	0e63 5aa1 7c61 4e04 5aa1 5d63 5ab0 065a     .cZ.|aN.Z.]cZ..Z
   134a5:	a18a 5ab1 2263 5a40 065a 4306 5aa0 8a5a     ..Z."cZ@.ZC.Z..Z
   134b5:	b026 5aa1 5a63 5aa1 2b63 5ab1 0261 780e     .&Z.ZcZ.+cZ..ax.
   134c5:	5aa4 2261 2d00 5ab4 3261 b706 5ab4 1263     Z."a-.Z.2a..Z..c
   134d5:	5ab0 0661 4f04 5ab7 0e63 5ab6 115a b80e     Z..aO.Z..cZ..Z..
   134e5:	635a b026 635a b50a 6132 0b5a b006 635a     cZ.&cZ..a2.Z..cZ
   134f5:	530a 5aa6 cb5a b631 5aa7 6c5a b731 5a55     S.Z..Z.1Z.lZ.1ZU
   13505:	8561 2d00 5ab8 2e61 4503 5a40 075a 4307     .a-.Z..aE.Z@.ZC.
   13515:	5aa0 225a b026 5aa1 e65a b125 5ab4 2e61     Z."Z.&Z..Z.%Z..a
   13525:	2d00 5aa5 225a b52a 5aa6 cc61 4503 5aa1     -.Z."Z.*Z..aE.Z.
   13535:	c15a a523 5aa6 cd63 5aa1 9d5a a6ce 635a     .Z.#Z..cZ..Z..cZ
   13545:	a17c 5aa6 cf61 4f04 5aa1 5d5a b40e 635a     .|Z..aO.Z.]Z..cZ
   13555:	a18a 5ab1 2263 5aa1 5a63 5aa1 2b63 5ab1     ..Z."cZ.ZcZ.+cZ.
   13565:	0261 c007 5ab0 0661 6d1c 5a40 065a 4306     .a..Z..am.Z@.ZC.
   13575:	5ab0 2661 5c15 5aa1 e65a b125 612c 005a     Z.&a\.Z..Z.%a,.Z
   13585:	b42e 6146 035a a1c1 635a a19d 635a b006     ..aF.Z..cZ..cZ..
   13595:	5aa1 7c5a b40e 614f 045a a15d 635a a18a     Z.|Z..aO.Z.]cZ..
   135a5:	5ab1 2263 5aa1 5a63 5aa1 2b63 5aa1 fd5a     Z."cZ.ZcZ.+cZ..Z
   135b5:	b121 635a b101 6132 0b5a 4004 5a43 045a     .!cZ..a2.Z@.ZC.Z
   135c5:	a098 5ab0 2961 112b 5aa1 e65a b125 5ab4     ..Z.)a.+Z..Z.%Z.
   135d5:	2e63 5aa1 c163 5aa1 9d63 5aa1 7c61 2304     .cZ..cZ..cZ.|a#.
   135e5:	5aa1 5d61 2c00 5ab4 0e61 4603 5aa1 8a5a     Z.]a,.Z..aF.Z..Z
   135f5:	b122 635a a15a 635a a12b 635a b102 61c0     ."cZ.ZcZ.+cZ..a.
   13605:	075a b009 6363 5a40 065a 4306 5aa0 815a     .Z..ccZ@.ZC.Z..Z
   13615:	b029 5ab4 3263 5ab4 1261 2d24 5ab0 0963     .)Z.2cZ..a-$Z..c
   13625:	5a40 075a 4307 5aa0 665a b026 5aa1 e65a     Z@.ZC.Z.fZ.&Z..Z
   13635:	b125 5ab4 2e63 5aa1 c163 5aa1 9d63 5aa1     .%Z..cZ..cZ..cZ.
   13645:	7c5a b40e 614f 045a b006 5aa1 5d63 5aa1     |Z..aO.Z..Z.]cZ.
   13655:	8a5a b122 635a 4006 5a43 065a a08a 5ab0     .Z."cZ@.ZC.Z..Z.
   13665:	265a a15a 635a a12b 635a b102 61ce 185a     &Z.ZcZ.+cZ..a..Z
   13675:	b006 6133 0b5a b026 6188 155a b006 5aa0     ..a3.Z.&a..Z..Z.
   13685:	225a b026 5aa1 e65a b125 612c 005a b42e     "Z.&Z..Z.%a,.Z..
   13695:	6146 035a a1c1 635a a19d 614f 045a a17c     aF.Z..cZ..aO.Z.|
   136a5:	5ab4 0e63 5aa1 5d63 5aa1 8a5a b122 635a     Z..cZ.]cZ..Z."cZ
   136b5:	a15a 635a a12b 635a b102 6132 0b5a b006     .ZcZ.+cZ..a2.Z..
   136c5:	61fb 185a 4008 5a43 085a b026 615c 155a     a..Z@.ZC.Z.&a\.Z
   136d5:	a1e6 5ab1 2561 2c00 5ab4 2e61 4603 5aa1     ..Z.%a,.Z..aF.Z.
   136e5:	c163 5aa1 9d61 4f04 5ab0 065a a17c 635a     .cZ..aO.Z..Z.|cZ
   136f5:	a15d 5ab4 0e63 5aa1 8a5a b122 635a a15a     .]Z..cZ..Z."cZ.Z
   13705:	635a a12b 635a a1fd 5ab1 2161 4e04 5ab1     cZ.+cZ..Z.!aN.Z.
   13715:	0161 560a 5a40 035a 4303 5aa0 985a b029     .aV.Z@.ZC.Z..Z.)
   13725:	6189 155a b432 635a b412 6116 125a a1e6     a..Z.2cZ..a..Z..
   13735:	5ab1 255a b42e 635a a1c1 635a a19d 614f     Z.%Z..cZ..cZ..aO
   13745:	045a a17c 5ab4 0e63 5ab0 095a a15d 6145     .Z.|Z..cZ..Z.]aE
   13755:	035a a18a 612d 005a b122 6145 035a 4005     .Z..a-.Z."aE.Z@.
   13765:	5a43 0561 2d00 5aa0 815a b029 5aa1 5a61     ZC.a-.Z..Z.)Z.Za
   13775:	4503 5aa1 2b63 5ab1 0261 a50e 5aa4 6c5a     E.Z.+cZ..a..Z.lZ
   13785:	b431 6132 0b5a b009 5ab4 1161 df1f 5aa1     .1a2.Z..Z..a..Z.
   13795:	e65a b125 5aa4 225a b42e 635a a1c1 635a     .Z.%Z."Z..cZ..cZ
   137a5:	a19d 5ab4 0e61 4e04 5aa1 7c63 5aa1 5d63     ..Z..aN.Z.|cZ.]c
   137b5:	5aa1 8a5a b122 635a a15a 5aa4 985a b431     Z..Z."cZ.ZZ..Z.1
   137c5:	635a a12b 5ab4 1163 5ab1 0261 a50e 5aa4     cZ.+Z..cZ..a..Z.
   137d5:	225a b42e 635a b40e 5ab6 1161 4603 5ab7     "Z..cZ..Z..aF.Z.
   137e5:	1161 2c00 5ab8 0e61 0124 5aa1 e65a b125     .a,.Z..a.$Z..Z.%
   137f5:	5ab4 2e5a b50a 612c 005a a522 5ab5 2a5a     Z..Z..a,.Z."Z.*Z
   13805:	5311 5aa6 985a b631 5aa7 8a5a b72e 5a55     S.Z..Z.1Z..Z..ZU
   13815:	875a b82e 6146 035a a1c1 5aa5 235a a699     .Z..aF.Z..Z.#Z..
   13825:	635a a19d 5aa6 9a61 4e04 5aa1 7c5a b40e     cZ..Z..aN.Z.|Z..
   13835:	5aa6 9b63 5aa1 5d63 5aa1 8a5a b122 635a     Z..cZ.]cZ..Z."cZ
   13845:	a15a 635a a12b 635a a1fd 5ab1 2161 4f04     .ZcZ.+cZ..Z.!aO.
   13855:	5aa1 d463 635a b101 6157 2e5a a1e6 5ab1     Z..ccZ..aW.Z..Z.
   13865:	2561 2c00 5ab4 2e61 4603 5aa1 c163 5aa1     %a,.Z..aF.Z..cZ.
   13875:	9d5a b40e 614e 045a a17c 635a a15d 635a     .Z..aN.Z.|cZ.]cZ
   13885:	a18a 5ab1 2263 5aa1 5a63 5aa1 2b61 4f04     ..Z."cZ.ZcZ.+aO.
   13895:	5aa1 fd5a b121 635a a1d4 6363 5ab1 0161     Z..Z.!cZ..ccZ..a
   138a5:	832e 5aa1 e65a b125 5ab4 2e63 5aa1 c161     ..Z..Z.%Z..cZ..a
   138b5:	4e04 5aa1 9d5a b40e 635a a17c 635a a15d     N.Z..Z..cZ.|cZ.]
   138c5:	6146 035a a18a 612c 005a b122 6146 035a     aF.Z..a,.Z."aF.Z
   138d5:	a15a 635a a12b 614f 045a a1fd 5ab1 2163     .ZcZ.+aO.Z..Z.!c
   138e5:	5ab1 0161 de1f 5ab4 3261 c107 5ab4 1261     Z..a..Z.2a..Z..a
   138f5:	c80d 5aa1 e65a b125 5ab4 2e63 5aa1 c161     ..Z..Z.%Z..cZ..a
   13905:	4e04 5aa1 9d5a b40e 635a a17c 635a a15d     N.Z..Z..cZ.|cZ.]
   13915:	635a a18a 5ab1 2263 5aa1 5a63 5aa1 2b61     cZ..Z."cZ.ZcZ.+a
   13925:	4f04 5aa1 fd5a b121 635a a1d4 635a b101     O.Z..Z.!cZ..cZ..
   13935:	6363 5ab4 3263 5ab4 1261 7227 5aa1 e65a     ccZ.2cZ..ar'Z..Z
   13945:	b125 5ab4 2e63 5aa1 c161 4f04 5aa1 9d5a     .%Z..cZ..aO.Z..Z
   13955:	b40e 635a a17c 635a a15d 635a a18a 5ab1     ..cZ.|cZ.]cZ..Z.
   13965:	2263 5aa1 5a63 5aa1 2b61 4e04 5aa1 fd5a     "cZ.ZcZ.+aN.Z..Z
   13975:	b121 635a b101 61df 1f5a b42e 635a b40e     .!cZ..a..Z..cZ..
   13985:	61ea 115a a1e6 5ab1 2561 2c00 5ab4 2e61     a..Z..Z.%a,.Z..a
   13995:	4603 5aa1 c161 4f04 5aa1 9d5a b40e 635a     F.Z..aO.Z..Z..cZ
   139a5:	a17c 635a a15d 635a a18a 5ab1 2263 5aa1     .|cZ.]cZ..Z."cZ.
   139b5:	5a63 5aa1 2b61 4e04 5aa1 fd5a b121 635a     ZcZ.+aN.Z..Z.!cZ
   139c5:	a1d4 635a b101 6363 5aa4 6c5a b431 61c1     ..cZ..ccZ.lZ.1a.
   139d5:	075a b411 6150 235a a1e6 5ab1 255a a422     .Z..aP#Z..Z.%Z."
   139e5:	5ab4 2e63 5aa1 c161 4f04 5aa1 9d5a b40e     Z..cZ..aO.Z..Z..
   139f5:	635a a17c 635a a15d 635a a18a 5ab1 2261     cZ.|cZ.]cZ..Z."a
   13a05:	4603 5aa1 5a61 2c00 5aa4 985a b431 6146     F.Z.Za,.Z..Z.1aF
   13a15:	035a a12b 614e 045a b102 612c 005a b411     .Z.+aN.Z..a,.Z..
   13a25:	6125 235a a46c 5ab4 3161 4e04 5ab4 1161     a%#Z.lZ.1aN.Z..a
   13a35:	3a11 5aa1 e65a b125 5aa4 8a5a b42e 614f     :.Z..Z.%Z..Z..aO
   13a45:	045a a1c1 635a a19d 5ab4 0e63 5aa1 7c63     .Z..cZ..Z..cZ.|c
   13a55:	5aa1 5d63 5aa1 8a5a b122 635a a15a 614e     Z.]cZ..Z."cZ.ZaN
   13a65:	045a a12b 635a b102 61c8 0d5a a422 5ab4     .Z.+cZ..a..Z."Z.
   13a75:	3261 c107 5ab4 1261 b806 5ab7 0e63 5ab6     2a..Z..a..Z..cZ.
   13a85:	1161 2c00 5ab8 0e61 9407 5ab5 0a61 c80d     .a,.Z..a..Z..a..
   13a95:	5a53 0a5a a6cb 5ab6 315a a76c 5ab7 315a     ZS.Z..Z.1Z.lZ.1Z
   13aa5:	5585 612c 005a b82e 6146 035a a1e6 5ab1     U.a,.Z..aF.Z..Z.
   13ab5:	255a b42e 5aa5 225a b52a 612c 005a a6cc     %Z..Z."Z.*a,.Z..
   13ac5:	6123 045a a1c1 5aa5 235a a6cd 635a a19d     a#.Z..Z.#Z..cZ..
   13ad5:	5aa6 ce63 5aa1 7c5a a6cf 635a a15d 5ab4     Z..cZ.|Z..cZ.]Z.
   13ae5:	0e63 5aa1 8a5a b122 635a a15a 614e 045a     .cZ..Z."cZ.ZaN.Z
   13af5:	a12b 635a b102 61ad 385a a1e6 612c 005a     .+cZ..a.8Z..a,.Z
   13b05:	b125 5ab4 2e61 2304 5aa1 c163 5aa1 9d63     .%Z..a#.Z..cZ..c
   13b15:	5aa1 7c5a b40e 635a a15d 635a a18a 5ab1     Z.|Z..cZ.]cZ..Z.
   13b25:	2263 5aa1 5a61 4e04 5aa1 2b63 5aa1 fd5a     "cZ.ZaN.Z.+cZ..Z
   13b35:	b121 635a b101 6167 355a a1e6 5ab1 255a     .!cZ..ag5Z..Z.%Z
   13b45:	b42e 614f 045a a1c1 635a a19d 635a a17c     ..aO.Z..cZ..cZ.|
   13b55:	635a a15d 5ab4 0e63 5aa1 8a5a b122 6145     cZ.]Z..cZ..Z."aE
   13b65:	035a a15a 614f 045a a12b 635a b102 61c8     .Z.ZaO.Z.+cZ..a.
   13b75:	0d5a b432 614e 045a b412 61c3 265a a1e6     .Z.2aN.Z..a.&Z..
   13b85:	5ab1 255a b42e 614e 045a a1c1 635a a19d     Z.%Z..aN.Z..cZ..
   13b95:	635a a17c 5ab4 0e63 5aa1 5d63 5aa1 8a5a     cZ.|Z..cZ.]cZ..Z
   13ba5:	b122 635a a15a 614f 045a a12b 635a b102     ."cZ.ZaO.Z.+cZ..
   13bb5:	6189 395a a1e6 5ab1 255a b42e 635a a1c1     a.9Z..Z.%Z..cZ..
   13bc5:	635a a19d 635a a17c 5ab4 0e63 5aa1 5d63     cZ..cZ.|Z..cZ.]c
   13bd5:	5aa1 8a5a b122 614f 045a a15a 635a a12b     Z..Z."aO.Z.ZcZ.+
   13be5:	635a b102 6189 395a a1e6 612c 005a b125     cZ..a.9Z..a,.Z.%
   13bf5:	5ab4 2e61 4603 5aa1 c163 5aa1 9d63 5aa1     Z..aF.Z..cZ..cZ.
   13c05:	7c63 5aa1 5d5a b40e 635a a18a 5ab1 2261     |cZ.]Z..cZ..Z."a
   13c15:	4f04 5aa1 5a63 5aa1 2b63 5aa1 fd5a b121     O.Z.ZcZ.+cZ..Z.!
   13c25:	635a b101 61bb 205a b432 635a b412 6116     cZ..a. Z.2cZ..a.
   13c35:	125a a1e6 5ab1 255a b42e 635a a1c1 635a     .Z..Z.%Z..cZ..cZ
   13c45:	a19d 635a a17c 5ab4 0e63 5aa1 5d63 5aa1     ..cZ.|Z..cZ.]cZ.
   13c55:	8a5a b122 6123 045a a15a 635a a12b 635a     .Z."a#.Z.ZcZ.+cZ
   13c65:	b102 61a4 0e5a a46c 5ab4 3161 560a 5ab4     ..a..Z.lZ.1aV.Z.
   13c75:	1161 bb20 5aa1 e65a b125 5aa4 225a b42e     .a. Z..Z.%Z."Z..
   13c85:	635a a1c1 635a a19d 5ab4 0e63 5aa1 7c63     cZ..cZ..Z..cZ.|c
   13c95:	5aa1 5d63 5aa1 8a5a b122 614f 045a a15a     Z.]cZ..Z."aO.Z.Z
   13ca5:	5aa4 985a b431 635a a12b 5ab4 1163 5ab1     Z..Z.1cZ.+Z..cZ.
   13cb5:	0261 a40e 5a41 805a a166 5ab1 325a a422     .a..ZA.Z.fZ.2Z."
   13cc5:	5ab4 2e63 5aa1 375a b40e 5ab6 1161 4603     Z..cZ.7Z..Z..aF.
   13cd5:	5aa1 0a61 2c00 5ab7 115a b80e 6146 035a     Z..a,.Z..Z..aF.Z
   13ce5:	a1e0 612c 005a b131 6146 035a a1bc 635a     ..a,.Z.1aF.Z..cZ
   13cf5:	a198 614f 045a b111 612c 005a a166 5ab1     ..aO.Z..a,.Z.fZ.
   13d05:	3261 4603 5aa1 3763 5aa1 0a63 5aa1 e05a     2aF.Z.7cZ..cZ..Z
   13d15:	b131 635a a1bc 635a a198 614e 045a 4007     .1cZ..cZ..aN.Z@.
   13d25:	5a43 075a a022 5ab0 265a b111 5a41 a261     ZC.Z."Z.&Z..ZA.a
   13d35:	2c00 5aa1 e65a b125 5a45 075a b232 5ac4     ,.Z..Z.%ZE.Z.2Z.
   13d45:	085a e900 5a49 005a 69a5 5a89 225a 2910     .Z..ZI.Zi.Z."Z).
   13d55:	5aec 035a 6cf4 5a8c 875a 2c1a 5ab5 0a5a     Z..Zl.Z..Z,.Z..Z
   13d65:	c500 5a4a 0b5a 6a68 612c 005a 8a01 5a2a     ..ZJ.Zjha,.Z..Z*
   13d75:	115a 4d00 5a6d f45a 8df6 5a2d 305a 4a1a     .ZM.Zm.Z..Z-0ZJ.
   13d85:	5aa5 665a b52e 5ac6 045a f002 5a50 0e5a     Z.fZ..Z..Z..ZP.Z
   13d95:	7088 5a90 6f5a 30f2 5af3 025a 5300 5a73     p.Z.oZ0.Z..ZS.Zs
   13da5:	555a 9328 5a33 e15a a698 5ab6 3161 2c00     UZ.(Z3.Z..Z.1a,.
   13db5:	5ac7 0e5a f103 5a51 905a 71f3 5a91 f75a     Z..Z..ZQ.Zq.Z..Z
   13dc5:	3182 5a54 045a 74f2 5a94 f35a 3401 5aa7     1.ZT.Zt.Z..Z4.Z.
   13dd5:	815a b735 5ac8 0c5a f202 5a52 0f5a 72f2     .Z.5Z..Z..ZR.Zr.
   13de5:	5a92 035a 3264 5af5 035a 5500 612c 005a     Z..Z2dZ..ZU.a,.Z
   13df5:	75f1 5a95 665a 3529 5aa8 b15a b831 61c2     u.Z.fZ5)Z..Z.1a.
   13e05:	025a a1c1 5ab2 125a a699 5aa7 8e61 2c00     .Z..Z..Z..Z..a,.
   13e15:	5aa8 ab61 4603 5aa1 9d5a a69a 5aa7 9b5a     Z..aF.Z..Z..Z..Z
   13e25:	a8a5 635a a17c 5aa8 9f63 5aa1 5d5a a898     ..cZ.|Z..cZ.]Z..
   13e35:	635a a18a 5ab1 2261 4f04 5aa1 5a5a b50e     cZ..Z."aO.Z.ZZ..
   13e45:	5a4a 275a a58a 5ab5 2e63 5aa1 2b63 5aa1     ZJ'Z..Z..cZ.+cZ.
   13e55:	fd5a b121 635a a1d4 635a b006 61c0 075a     .Z.!cZ..cZ..a..Z
   13e65:	b101 5a4b 055a b329 5a4c 045a a498 5ab4     ..ZK.Z.)ZL.Z..Z.
   13e75:	2d5a b50e 5a4a 1a5a a598 5ab5 3561 3a11     -Z..ZJ.Z..Z.5a:.
   13e85:	5ab4 0d61 4f04 5ab0 265a 4180 5aa1 665a     Z..aO.Z.&ZA.Z.fZ
   13e95:	b132 5ab3 095a 4c07 5aa4 815a b429 5ab5     .2Z..ZL.Z..Z.)Z.
   13ea5:	155a 4a23 5aa5 815a b535 635a a137 635a     .ZJ#Z..Z.5cZ.7cZ
   13eb5:	a10a 635a a1e0 5ab1 3163 5aa1 bc61 4503     ..cZ..Z.1cZ..aE.
   13ec5:	5aa1 9861 4f04 5ab1 1161 2c00 5a41 a25a     Z..aO.Z..a,.ZA.Z
   13ed5:	a1e6 5ab1 255a 450d 5aa2 8a5a b232 5ab4     ..Z.%ZE.Z..Z.2Z.
   13ee5:	095a b515 5a4a 255a a58a 5ab5 3261 4603     .Z..ZJ%Z..Z.2aF.
   13ef5:	5aa1 c163 5ab0 065a a19d 635a a17c 635a     Z..cZ..Z..cZ.|cZ
   13f05:	a15d 635a a18a 5ab1 2261 4e04 5aa1 5a5a     .]cZ..Z."aN.Z.ZZ
   13f15:	b329 612d 005a b512 5a4a 275a a522 5ab5     .)a-.Z..ZJ'Z."Z.
   13f25:	3261 4503 5aa1 2b63 5aa1 fd5a b121 635a     2aE.Z.+cZ..Z.!cZ
   13f35:	a1d4 6133 0b5a 4005 5a43 055a a098 5ab0     ..a3.Z@.ZC.Z..Z.
   13f45:	295a b101 5a41 805a a166 5ab1 3261 2c00     )Z..ZA.Z.fZ.2a,.
   13f55:	5ab3 095a 4c03 5aa4 985a b42d 5ab5 125a     Z..ZL.Z..Z.-Z..Z
   13f65:	4a20 5aa5 985a b531 6146 035a a137 635a     J Z..Z.1aF.Z.7cZ
   13f75:	a10a 635a a1e0 5ab1 3163 5aa1 bc61 4e04     ..cZ..Z.1cZ..aN.
   13f85:	5aa1 9863 5ab1 115a b511 5a4a 2a5a a58a     Z..cZ..Z..ZJ*Z..
   13f95:	5ab5 3261 8915 5a41 a25a a1e6 5ab1 255a     Z.2a..ZA.Z..Z.%Z
   13fa5:	b212 5a45 075a a243 5ab2 325a b329 5ab4     ..ZE.Z.CZ.2Z.)Z.
   13fb5:	0d5a b512 5a4a 235a a581 5ab5 3163 5aa1     .Z..ZJ#Z..Z.1cZ.
   13fc5:	c15a b212 635a a19d 635a a17c 635a a15d     .Z..cZ..cZ.|cZ.]
   13fd5:	614e 045a a18a 5ab1 2263 5aa1 5a5a b309     aN.Z..Z."cZ.ZZ..
   13fe5:	5ab5 115a 4a2c 5aa5 cb5a b531 6146 035a     Z..ZJ,Z..Z.1aF.Z
   13ff5:	a12b 635a a1fd 5ab1 2163 5ab0 0961 2c00     .+cZ..Z.!cZ..a,.
   14005:	5aa1 d461 070b 5a40 075a 4307 5aa0 815a     Z..a..Z@.ZC.Z..Z
   14015:	b029 612c 005a b101 5a41 805a a166 5ab1     .)a,.Z..ZA.Z.fZ.
   14025:	325a b42d 5ab5 115a 4a23 5aa5 225a b532     2Z.-Z..ZJ#Z."Z.2
   14035:	6146 035a a137 635a a10a 635a a1e0 5ab1     aF.Z.7cZ..cZ..Z.
   14045:	3163 5aa1 bc5a b40d 614e 045a a198 635a     1cZ..Z..aN.Z..cZ
   14055:	b111 5ab3 295a 4c05 5aa4 815a b429 612c     ..Z.)ZL.Z..Z.)a,
   14065:	005a b512 5a4a 1a5a a566 5ab5 3261 9c0d     .Z..ZJ.Z.fZ.2a..
   14075:	5ab0 095a b611 5ab7 155a b811 61c1 075a     Z..Z..Z..Z..a..Z
   14085:	4009 5a43 095a a066 5ab0 265a 41a2 5aa1     @.ZC.Z.fZ.&ZA.Z.
   14095:	e65a b125 5a45 045a a28a 5ab2 325a b309     .Z.%ZE.Z..Z.2Z..
   140a5:	612c 005a b329 5ab5 125a 4a2a 5aa5 cb5a     a,.Z.)Z..ZJ*Z..Z
   140b5:	b531 5aa6 6c5a b631 5a51 945a a757 5ab7     .1Z.lZ.1ZQ.Z.WZ.
   140c5:	355a 5211 5a55 025a a881 5ab8 3161 4603     5ZR.ZU.Z..Z.1aF.
   140d5:	5aa1 c15a a66d 5aa7 635a a87c 635a a19d     Z..Z.mZ.cZ.|cZ..
   140e5:	5ab4 095a a76f 5aa8 7763 5aa1 7c5a a872     Z..Z.oZ.wcZ.|Z.r
   140f5:	635a b006 5aa1 5d5a a86c 614e 045a a18a     cZ..Z.]Z.laN.Z..
   14105:	5ab1 2263 5a40 075a 4307 5aa0 8a5a b026     Z."cZ@.ZC.Z..Z.&
   14115:	5aa1 5a5a b309 5a4c 035a b429 5ab5 115a     Z.ZZ..ZL.Z.)Z..Z
   14125:	4a27 5aa5 8a5a b52e 635a a12b 635a a1fd     J'Z..Z..cZ.+cZ..
   14135:	5ab1 2163 5aa1 d461 330b 5ab1 015a b329     Z.!cZ..a3.Z..Z.)
   14145:	5ab4 095a 4c02 5aa4 985a b42d 5ab5 0e5a     Z..ZL.Z..Z.-Z..Z
   14155:	4a1d 5aa5 225a b532 6156 0a5a b006 6132     J.Z."Z.2aV.Z..a2
   14165:	0b5a b026 5ab3 095a b512 5a4a 235a a598     .Z.&Z..Z..ZJ#Z..
   14175:	5ab5 3161 2a0a 5ab6 115a b715 612c 005a     Z.1a*.Z..Z..a,.Z
   14185:	b811 6146 035a b006 5ab4 0d61 c107 5a40     ..aF.Z..Z..a..Z@
   14195:	095a 4309 5aa0 225a b026 5aa1 e65a b125     .ZC.Z."Z.&Z..Z.%
   141a5:	612c 005a b212 5a45 075a a243 5ab2 325a     a,.Z..ZE.Z.CZ.2Z
   141b5:	b511 5a4a 1a5a a566 5ab5 2e5a a698 5ab6     ..ZJ.Z.fZ..Z..Z.
   141c5:	315a 5192 5aa7 815a b735 5a52 105a 5501     1ZQ.Z..Z.5ZR.ZU.
   141d5:	5aa8 b15a b831 6146 035a a1c1 5ab2 125a     Z..Z.1aF.Z..Z..Z
   141e5:	a699 5aa7 8e61 2c00 5aa8 ab61 4603 5aa1     ..Z..a,.Z..aF.Z.
   141f5:	9d5a a69a 5aa7 9b5a a8a5 635a a17c 5aa8     .Z..Z..Z..cZ.|Z.
   14205:	9f63 5aa1 5d5a a898 614e 045a a18a 5ab1     .cZ.]Z..aN.Z..Z.
   14215:	2263 5aa1 5a5a b50e 5a4a 275a a58a 5ab5     "cZ.ZZ..ZJ'Z..Z.
   14225:	2e63 5aa1 2b63 5aa1 fd5a b121 635a a1d4     .cZ.+cZ..Z.!cZ..
   14235:	6133 0b5a b006 5ab1 015a b329 5a4c 035a     a3.Z..Z..Z.)ZL.Z
   14245:	b42d 5ab5 0e5a 4a1a 5aa5 985a b535 6116     .-Z..ZJ.Z..Z.5a.
   14255:	125a b40d 635a 4008 5a43 085a b026 5a41     .Z..cZ@.ZC.Z.&ZA
   14265:	805a a166 5ab1 325a b309 5a4c 065a a481     .Z.fZ.2Z..ZL.Z..
   14275:	5ab4 295a b515 5a4a 235a a581 5ab5 3563     Z.)Z..ZJ#Z..Z.5c
   14285:	5aa1 3763 5aa1 0a63 5aa1 e05a b131 635a     Z.7cZ..cZ..Z.1cZ
   14295:	a1bc 6123 045a a198 635a b111 612c 005a     ..a#.Z..cZ..a,.Z
   142a5:	41a2 5aa1 e65a b125 5a45 065a a28a 5ab2     A.Z..Z.%ZE.Z..Z.
   142b5:	325a b409 5ab5 155a 4a25 5aa5 8a5a b532     2Z..Z..ZJ%Z..Z.2
   142c5:	6146 035a a1c1 635a a19d 635a a17c 635a     aF.Z..cZ..cZ.|cZ
   142d5:	b006 5aa1 5d61 4e04 5aa1 8a5a b122 635a     ..Z.]aN.Z..Z."cZ
   142e5:	a15a 5ab3 2961 2c00 5ab5 125a 4a27 5aa5     .ZZ.)a,.Z..ZJ'Z.
   142f5:	225a b532 6146 035a a12b 635a a1fd 5ab1     "Z.2aF.Z.+cZ..Z.
   14305:	2163 5aa1 d461 330b 5a40 065a 4306 5aa0     !cZ..a3.Z@.ZC.Z.
   14315:	985a b029 5ab1 015a 4180 5aa1 665a b132     .Z.)Z..ZA.Z.fZ.2
   14325:	612c 005a b309 5a4c 025a a498 5ab4 2d5a     a,.Z..ZL.Z..Z.-Z
   14335:	b512 5a4a 205a a598 5ab5 3161 4603 5aa1     ..ZJ Z..Z.1aF.Z.
   14345:	3763 5aa1 0a63 5aa1 e05a b131 635a a1bc     7cZ..cZ..Z.1cZ..
   14355:	614e 045a a198 635a b111 5ab5 115a 4a2a     aN.Z..cZ..Z..ZJ*
   14365:	5aa5 8a5a b532 6156 0a5a b40d 6133 0b5a     Z..Z.2aV.Z..a3.Z
   14375:	41a2 5aa1 e65a b125 5ab2 125a a243 5ab2     A.Z..Z.%Z..Z.CZ.
   14385:	325a b329 5ab5 125a 4a23 5aa5 815a b531     2Z.)Z..ZJ#Z..Z.1
   14395:	635a a1c1 5ab2 1263 5aa1 9d63 5aa1 7c63     cZ..Z..cZ..cZ.|c
   143a5:	5aa1 5d61 4e04 5aa1 8a5a b122 635a a15a     Z.]aN.Z..Z."cZ.Z
   143b5:	5ab3 095a b511 5a4a 2c5a a5cb 5ab5 3161     Z..Z..ZJ,Z..Z.1a
   143c5:	4603 5aa1 2b63 5aa1 fd5a b121 635a a1d4     F.Z.+cZ..Z.!cZ..
   143d5:	635a b009 61c1 075a a081 5ab0 2961 2c00     cZ..a..Z..Z.)a,.
   143e5:	5ab1 015a 4180 5aa1 665a b132 5a4c 035a     Z..ZA.Z.fZ.2ZL.Z
   143f5:	b42d 5ab5 115a 4a23 5aa5 225a b532 6146     .-Z..ZJ#Z."Z.2aF
   14405:	035a a137 635a a10a 635a a1e0 5ab1 3161     .Z.7cZ..cZ..Z.1a
   14415:	4e04 5aa1 bc63 5aa1 985a b40d 635a b111     N.Z..cZ..Z..cZ..
   14425:	5ab3 295a 4c06 5aa4 815a b429 612c 005a     Z.)ZL.Z..Z.)a,.Z
   14435:	b512 5a4a 1a5a a566 5ab5 3261 eb11 5ab6     ..ZJ.Z.fZ.2a..Z.
   14445:	115a b715 5ab8 1163 5ab0 095a 4008 5a43     .Z..Z..cZ..Z@.ZC
   14455:	085a a066 5ab0 265a 41a2 5aa1 e65a b125     .Z.fZ.&ZA.Z..Z.%
   14465:	5a45 045a a28a 5ab2 3261 2c00 5ab3 095a     ZE.Z..Z.2a,.Z..Z
   14475:	b329 5ab4 095a b512 5a4a 2a5a a5cb 5ab5     .)Z..Z..ZJ*Z..Z.
   14485:	315a a6e6 5ab6 315a a7cb 5ab7 355a a803     1Z..Z.1Z..Z.5Z..
   14495:	5ab8 3261 4603 5aa1 c15a a6e7 5aa7 db5a     Z.2aF.Z..Z..Z..Z
   144a5:	a8fc 5ab8 3163 5aa1 9d5a a6e8 5aa7 ea5a     ..Z.1cZ..Z..Z..Z
   144b5:	a8f5 635a a17c 5aa8 ee61 4e04 5aa1 5d5a     ..cZ.|Z..aN.Z.]Z
   144c5:	a8e6 635a b006 5aa1 8a5a b122 635a 4006     ..cZ..Z..Z."cZ@.
   144d5:	5a43 065a a08a 5ab0 265a a15a 5ab3 095a     ZC.Z..Z.&Z.ZZ..Z
   144e5:	4c03 5ab4 295a b511 5a4a 275a a58a 5ab5     L.Z.)Z..ZJ'Z..Z.
   144f5:	2e63 5aa1 2b63 5aa1 fd5a b121 635a a1d4     .cZ.+cZ..Z.!cZ..
   14505:	6133 0b5a b101 5ab3 295a b409 5a4c 025a     a3.Z..Z.)Z..ZL.Z
   14515:	a498 5ab4 2d5a b50e 5a4a 1d5a a522 5ab5     ..Z.-Z..ZJ.Z."Z.
   14525:	3261 560a 5ab0 0661 320b 5ab0 265a b309     2aV.Z..a2.Z.&Z..
   14535:	5ab5 125a 4a23 5aa5 985a b531 6146 035a     Z..ZJ#Z..Z.1aF.Z
   14545:	b40d 6132 0b5a b006 5ab6 115a b715 612d     ..a2.Z..Z..Z..a-
   14555:	005a b811 61b7 065a 4007 5a43 075a a022     .Z..a..Z@.ZC.Z."
   14565:	5ab0 265a a1e6 5ab1 2561 2d00 5ab2 125a     Z.&Z..Z.%a-.Z..Z
   14575:	4506 5aa2 435a b232 5ab5 115a 4a1a 5aa5     E.Z.CZ.2Z..ZJ.Z.
   14585:	665a b52e 5aa6 985a b631 5a51 965a a781     fZ..Z..Z.1ZQ.Z..
   14595:	5ab7 355a 5212 5a55 035a a8b1 5ab8 3161     Z.5ZR.ZU.Z..Z.1a
   145a5:	4503 5aa1 c15a b212 5aa6 995a a78e 612d     E.Z..Z..Z..Z..a-
   145b5:	005a a8ab 6145 035a a19d 5aa6 9a5a a79b     .Z..aE.Z..Z..Z..
   145c5:	5aa8 a563 5aa1 7c5a a89f 614f 045a a15d     Z..cZ.|Z..aO.Z.]
   145d5:	5aa8 9863 5aa1 8a5a b122 635a a15a 5ab5     Z..cZ..Z."cZ.ZZ.
   145e5:	0e5a 4a27 5aa5 8a5a b52e 635a a12b 635a     .ZJ'Z..Z..cZ.+cZ
   145f5:	a1fd 5ab1 2163 5aa1 d461 4e04 5ab0 0663     ..Z.!cZ..aN.Z..c
   14605:	635a b101 5a4b 065a b329 5a4c 035a b42d     cZ..ZK.Z.)ZL.Z.-
   14615:	5ab5 0e5a 4a1a 5aa5 985a b535 61a5 0e5a     Z..ZJ.Z..Z.5a..Z
   14625:	b40d 6363 5a40 065a 4306 5ab0 265a 4180     ..ccZ@.ZC.Z.&ZA.
   14635:	5aa1 665a b132 5ab3 095a 4c06 5aa4 815a     Z.fZ.2Z..ZL.Z..Z
   14645:	b429 5ab5 155a 4a23 5aa5 815a b535 635a     .)Z..ZJ#Z..Z.5cZ
   14655:	a137 635a a10a 635a a1e0 5ab1 3161 4e04     .7cZ..cZ..Z.1aN.
   14665:	5aa1 bc61 4603 5aa1 9863 5ab1 1161 2c00     Z..aF.Z..cZ..a,.
   14675:	5a41 a25a a1e6 5ab1 255a a28a 5ab2 325a     ZA.Z..Z.%Z..Z.2Z
   14685:	b409 5ab5 155a 4a25 5aa5 8a5a b532 6146     ..Z..ZJ%Z..Z.2aF
   14695:	035a a1c1 635a a19d 635a b006 5aa1 7c61     .Z..cZ..cZ..Z.|a
   146a5:	4f04 5aa1 5d63 5aa1 8a5a b122 635a a15a     O.Z.]cZ..Z."cZ.Z
   146b5:	5ab3 2961 2c00 5ab5 125a 4a27 5aa5 225a     Z.)a,.Z..ZJ'Z."Z
   146c5:	b532 6146 035a a12b 635a a1fd 5ab1 2163     .2aF.Z.+cZ..Z.!c
   146d5:	5aa1 d461 320b 5a40 045a 4304 5aa0 985a     Z..a2.Z@.ZC.Z..Z
   146e5:	b029 5ab1 015a 4180 5aa1 665a b132 612c     .)Z..ZA.Z.fZ.2a,
   146f5:	005a b309 5a4c 015a a498 5ab4 2d5a b512     .Z..ZL.Z..Z.-Z..
   14705:	5a4a 205a a598 5ab5 3161 4603 5aa1 3763     ZJ Z..Z.1aF.Z.7c
   14715:	5aa1 0a63 5aa1 e05a b131 614f 045a a1bc     Z..cZ..Z.1aO.Z..
   14725:	635a a198 635a b111 5ab5 115a 4a2a 5aa5     cZ..cZ..Z..ZJ*Z.
   14735:	8a5a b532 6363 5ab4 0d61 a40e 5a41 a25a     .Z.2ccZ..a..ZA.Z
   14745:	a1e6 5ab1 255a b212 5a45 075a a243 5ab2     ..Z.%Z..ZE.Z.CZ.
   14755:	325a b329 5ab5 125a 4a23 5aa5 815a b531     2Z.)Z..ZJ#Z..Z.1
   14765:	635a a1c1 5ab2 1263 5aa1 9d63 5aa1 7c61     cZ..Z..cZ..cZ.|a
   14775:	4f04 5aa1 5d63 5aa1 8a5a b122 635a a15a     O.Z.]cZ..Z."cZ.Z
   14785:	5ab3 095a b511 5a4a 2c5a a5cb 5ab5 3163     Z..Z..ZJ,Z..Z.1c
   14795:	5aa1 2b61 4603 5aa1 fd5a b121 635a a1d4     Z.+aF.Z..Z.!cZ..
   147a5:	614e 045a b009 6363 5a40 065a 4306 5aa0     aN.Z..ccZ@.ZC.Z.
   147b5:	815a b029 612c 005a b101 5a41 805a a166     .Z.)a,.Z..ZA.Z.f
   147c5:	5ab1 325a 4c03 5ab4 2d5a b511 5a4a 235a     Z.2ZL.Z.-Z..ZJ#Z
   147d5:	a522 5ab5 3261 4603 5aa1 3763 5aa1 0a63     ."Z.2aF.Z.7cZ..c
   147e5:	5aa1 e05a b131 614f 045a a1bc 635a a198     Z..Z.1aO.Z..cZ..
   147f5:	5ab4 0d63 5ab1 115a b329 5a4c 055a a481     Z..cZ..Z.)ZL.Z..
   14805:	5ab4 2961 2c00 5ab5 125a 4a1a 5aa5 665a     Z.)a,.Z..ZJ.Z.fZ
   14815:	b532 61ea 115a b009 635a 4007 5a43 075a     .2a..Z..cZ@.ZC.Z
   14825:	a066 5ab0 265a 41a2 5aa1 e65a b125 5a45     .fZ.&ZA.Z..Z.%ZE
   14835:	065a a28a 5ab2 325a b309 612c 005a b329     .Z..Z.2Z..a,.Z.)
   14845:	5ab4 095a b512 5a4a 2a5a a5cb 5ab5 315a     Z..Z..ZJ*Z..Z.1Z
   14855:	a600 5ab6 005a a622 5ab6 325a a700 5ab7     ..Z..Z."Z.2Z..Z.
   14865:	005a a703 5ab7 3661 2c00 5aa8 005a b800     .Z..Z.6a,.Z..Z..
   14875:	5aa8 435a b832 611a 035a a1c1 635a a19d     Z.CZ.2a..Z..cZ..
   14885:	5aa6 245a a715 5aa8 3b63 5aa1 7c5a a625     Z.$Z..Z.;cZ.|Z.%
   14895:	5aa7 275a a833 614f 045a b006 5aa1 5d5a     Z.'Z.3aO.Z..Z.]Z
   148a5:	a82b 635a a18a 5ab1 225a a822 635a 4006     .+cZ..Z."Z."cZ@.
   148b5:	5a43 065a a08a 5ab0 265a a15a 5ab3 095a     ZC.Z..Z.&Z.ZZ..Z
   148c5:	4c03 5ab4 295a b511 5a4a 275a a58a 5ab5     L.Z.)Z..ZJ'Z..Z.
   148d5:	2e63 5aa1 2b63 5aa1 fd5a b121 635a a1d4     .cZ.+cZ..Z.!cZ..
   148e5:	6132 0b5a b101 5ab3 295a b409 5a4c 015a     a2.Z..Z.)Z..ZL.Z
   148f5:	a498 5ab4 2d5a b50e 5a4a 1d5a a522 5ab5     ..Z.-Z..ZJ.Z."Z.
   14905:	3261 560a 5ab0 0661 330b 5ab0 265a b309     2aV.Z..a3.Z.&Z..
   14915:	5ab5 125a 4a23 5aa5 985a b531 612a 0a5a     Z..ZJ#Z..Z.1a*.Z
   14925:	b40d 6132 0b5a b006 5aa0 225a b026 612c     ..a2.Z..Z."Z.&a,
   14935:	005a a1e6 5ab1 255a b212 5a45 045a a243     .Z..Z.%Z..ZE.Z.C
   14945:	5ab2 325a b511 5a4a 1a5a a566 5ab5 2e5a     Z.2Z..ZJ.Z.fZ..Z
   14955:	b612 5aa6 665a b632 5ab7 165a a743 612c     ..Z.fZ.2Z..Z.Ca,
   14965:	005a b736 5ab8 125a a88a 5ab8 3261 1a03     .Z.6Z..Z..Z.2a..
   14975:	5aa1 c15a b212 5aa6 685a a757 612c 005a     Z..Z..Z.hZ.Wa,.Z
   14985:	a881 6146 035a a19d 5aa6 695a a76b 5aa8     ..aF.Z..Z.iZ.kZ.
   14995:	7861 4f04 5aa1 7c5a a86f 635a a15d 5aa8     xaO.Z.|Z.ocZ.]Z.
   149a5:	6663 5aa1 8a5a b122 635a a15a 5ab5 0e5a     fcZ..Z."cZ.ZZ..Z
   149b5:	4a27 5aa5 8a5a b52e 635a a12b 635a a1fd     J'Z..Z..cZ.+cZ..
   149c5:	5ab1 2161 4e04 5aa1 d463 635a b006 635a     Z.!aN.Z..ccZ..cZ
   149d5:	b101 5ab3 295a 4c03 5ab4 2d5a b50e 5a4a     ..Z.)ZL.Z.-Z..ZJ
   149e5:	1a5a a598 5ab5 3561 1712 5ab4 0d63 5a40     .Z..Z.5a..Z..cZ@
   149f5:	085a 4308 5ab0 265a 4180 5aa1 665a b132     .ZC.Z.&ZA.Z.fZ.2
   14a05:	5ab3 095a 4c05 5aa4 815a b429 5ab5 155a     Z..ZL.Z..Z.)Z..Z
   14a15:	4a23 5aa5 815a b535 635a a137 635a a10a     J#Z..Z.5cZ.7cZ..
   14a25:	614e 045a a1e0 5ab1 3163 5aa1 bc63 5aa1     aN.Z..Z.1cZ..cZ.
   14a35:	9863 5ab1 115a 41a2 5aa1 e65a b125 5a45     .cZ..ZA.Z..Z.%ZE
   14a45:	075a a28a 5ab2 325a b409 5ab5 155a 4a25     .Z..Z.2Z..Z..ZJ%
   14a55:	5aa5 8a5a b532 6146 035a a1c1 635a a19d     Z..Z.2aF.Z..cZ..
   14a65:	614f 045a b006 5aa1 7c63 5aa1 5d63 5aa1     aO.Z..Z.|cZ.]cZ.
   14a75:	8a5a b122 635a a15a 5ab3 2961 2c00 5ab5     .Z."cZ.ZZ.)a,.Z.
   14a85:	125a 4a27 5aa5 225a b532 6146 035a a12b     .ZJ'Z."Z.2aF.Z.+
   14a95:	635a a1fd 5ab1 2161 4e04 5aa1 d461 560a     cZ..Z.!aN.Z..aV.
   14aa5:	5a40 035a 4303 5aa0 985a b029 5ab1 015a     Z@.ZC.Z..Z.)Z..Z
   14ab5:	4180 5aa1 665a b132 612c 005a b309 5a4c     A.Z.fZ.2a,.Z..ZL
   14ac5:	025a a498 5ab4 2d5a b512 5a4a 205a a598     .Z..Z.-Z..ZJ Z..
   14ad5:	5ab5 315a b612 5aa6 225a b632 5ab7 165a     Z.1Z..Z."Z.2Z..Z
   14ae5:	a703 5ab7 365a b812 612c 005a a843 5ab8     ..Z.6Z..a,.Z.CZ.
   14af5:	3261 1a03 5aa1 375a a624 5aa7 155a a83b     2a..Z.7Z.$Z..Z.;
   14b05:	635a a10a 5aa6 255a a727 5aa8 3361 4f04     cZ..Z.%Z.'Z.3aO.
   14b15:	5aa1 e05a b131 5aa8 2b63 5aa1 bc5a a822     Z..Z.1Z.+cZ..Z."
   14b25:	635a a198 635a b111 5ab5 115a 4a2a 5aa5     cZ..cZ..Z..ZJ*Z.
   14b35:	8a5a b532 61a4 0e5a b40d 6363 5a41 a25a     .Z.2a..Z..ccZA.Z
   14b45:	a1e6 5ab1 255a b212 5a45 065a a243 5ab2     ..Z.%Z..ZE.Z.CZ.
   14b55:	325a b329 5ab5 125a 4a23 5aa5 815a b531     2Z.)Z..ZJ#Z..Z.1
   14b65:	635a a1c1 5ab2 1263 5aa1 9d61 4f04 5aa1     cZ..Z..cZ..aO.Z.
   14b75:	7c63 5ab0 095a a15d 635a a18a 5ab1 2263     |cZ..Z.]cZ..Z."c
   14b85:	5a40 055a 4305 5aa0 815a b029 5aa1 5a5a     Z@.ZC.Z..Z.)Z.ZZ
   14b95:	b309 5a4c 015a b42d 5ab5 115a 4a2c 5aa5     ..ZL.Z.-Z..ZJ,Z.
   14ba5:	cb5a b531 635a a12b 6145 035a a1fd 612d     .Z.1cZ.+aE.Z..a-
   14bb5:	005a b121 6122 045a a1d4 6363 5ab4 0d63     .Z.!a".Z..ccZ..c
   14bc5:	5ab1 015a 4180 5aa1 6661 2c00 5ab1 325a     Z..ZA.Z.fa,.Z.2Z
   14bd5:	b511 5a4a 235a a522 5ab5 3261 4603 5aa1     ..ZJ#Z."Z.2aF.Z.
   14be5:	3763 5aa1 0a61 4e04 5ab0 095a a1e0 5ab1     7cZ..aN.Z..Z..Z.
   14bf5:	3163 5aa1 bc63 5aa1 9863 5ab1 115a a166     1cZ..cZ..cZ..Z.f
   14c05:	5ab1 325a b329 612d 005a 4c03 5ab4 2d5a     Z.2Z.)a-.ZL.Z.-Z
   14c15:	b512 5a4a 1a5a a566 5ab5 3261 4503 5aa1     ..ZJ.Z.fZ.2aE.Z.
   14c25:	3763 5aa1 0a61 4f04 5aa1 e05a b131 635a     7cZ..aO.Z..Z.1cZ
   14c35:	a1bc 635a a198 5ab4 0d63 5ab1 115a 41a2     ..cZ..Z..cZ..ZA.
   14c45:	5aa1 e65a b125 5aa2 8a5a b232 5ab3 0961     Z..Z.%Z..Z.2Z..a
   14c55:	2c00 5ab3 295a a481 5ab4 295a b512 5a4a     ,.Z.)Z..Z.)Z..ZJ
   14c65:	2a5a a5cb 5ab5 3161 4603 5aa1 c163 5aa1     *Z..Z.1aF.Z..cZ.
   14c75:	9d61 4e04 5aa1 7c63 5aa1 5d63 5aa1 8a5a     .aN.Z.|cZ.]cZ..Z
   14c85:	b122 635a a15a 5ab3 095a b409 5ab5 115a     ."cZ.ZZ..Z..Z..Z
   14c95:	4a27 5aa5 8a5a b52e 635a a12b 635a a1fd     J'Z..Z..cZ.+cZ..
   14ca5:	5ab1 2161 4f04 5aa1 d461 560a 5ab1 015a     Z.!aO.Z..aV.Z..Z
   14cb5:	4c02 5aa4 985a b42d 5ab5 0e5a 4a1d 5aa5     L.Z..Z.-Z..ZJ.Z.
   14cc5:	225a b532 615c 155a b329 612c 005a b512     "Z.2a\.Z.)a,.Z..
   14cd5:	5a4a 235a a598 5ab5 3161 790e 5ab4 0d5a     ZJ#Z..Z.1ay.Z..Z
   14ce5:	b612 612c 005a b716 5ab8 1261 b806 5a40     ..a,.Z..Z..a..Z@
   14cf5:	075a 4307 5aa0 225a b026 5aa1 e661 2c00     .ZC.Z."Z.&Z..a,.
   14d05:	5ab1 255a b212 5a45 025a a243 5ab2 325a     Z.%Z..ZE.Z.CZ.2Z
   14d15:	b309 5ab5 115a 4a1a 5aa5 665a b52e 5aa6     ..Z..ZJ.Z.fZ..Z.
   14d25:	985a b631 5aa7 815a b735 5aa8 b15a b831     .Z.1Z..Z.5Z..Z.1
   14d35:	6146 035a a1c1 5ab2 125a a699 5aa7 8e61     aF.Z..Z..Z..Z..a
   14d45:	2c00 5aa8 ab61 4603 5aa1 9d5a a69a 5aa7     ,.Z..aF.Z..Z..Z.
   14d55:	9b5a a8a5 614e 045a a17c 5aa8 9f63 5aa1     .Z..aN.Z.|Z..cZ.
   14d65:	5d5a a898 635a a18a 5ab1 2263 5aa1 5a5a     ]Z..cZ..Z."cZ.ZZ
   14d75:	b50e 5a4a 275a a58a 5ab5 2e63 5aa1 2b63     ..ZJ'Z..Z..cZ.+c
   14d85:	5aa1 fd5a b121 614f 045a a1d4 635a b006     Z..Z.!aO.Z..cZ..
   14d95:	6363 5ab1 015a 4b05 5ab3 295a b42d 5ab5     ccZ..ZK.Z.)Z.-Z.
   14da5:	0e5a 4a1a 5aa5 985a b535 6116 125a b40d     .ZJ.Z..Z.5a..Z..
   14db5:	635a b026 5a41 805a a166 5ab1 325a b309     cZ.&ZA.Z.fZ.2Z..
   14dc5:	5a4c 075a a481 5ab4 295a b515 5a4a 235a     ZL.Z..Z.)Z..ZJ#Z
   14dd5:	a581 5ab5 3563 5aa1 3763 5aa1 0a61 4f04     ..Z.5cZ.7cZ..aO.
   14de5:	5aa1 e05a b131 635a a1bc 635a a198 635a     Z..Z.1cZ..cZ..cZ
   14df5:	b111 5a41 a25a a1e6 5ab1 255a 4506 5aa2     ..ZA.Z..Z.%ZE.Z.
   14e05:	8a5a b232 5ab5 155a 4a25 5aa5 8a5a b532     .Z.2Z..ZJ%Z..Z.2
   14e15:	6146 035a a1c1 612c 005a b409 6146 035a     aF.Z..a,.Z..aF.Z
   14e25:	b006 612c 005a a19d 6122 045a a17c 635a     ..a,.Z..a".Z.|cZ
   14e35:	a15d 635a a18a 5ab1 2263 5aa1 5a5a b329     .]cZ..Z."cZ.ZZ.)
   14e45:	612c 005a b512 5a4a 275a a522 5ab5 3261     a,.Z..ZJ'Z."Z.2a
   14e55:	4603 5aa1 2b61 4f04 5aa1 fd5a b121 635a     F.Z.+aO.Z..Z.!cZ
   14e65:	a1d4 6156 0a5a 4005 5a43 055a a098 5ab0     ..aV.Z@.ZC.Z..Z.
   14e75:	295a b101 5a41 805a a166 5ab1 3261 2c00     )Z..ZA.Z.fZ.2a,.
   14e85:	5ab3 095a 4c02 5aa4 985a b42d 5ab5 125a     Z..ZL.Z..Z.-Z..Z
   14e95:	4a20 5aa5 985a b531 6146 035a a137 614e     J Z..Z.1aF.Z.7aN
   14ea5:	045a a10a 635a a1e0 5ab1 3163 5aa1 bc63     .Z..cZ..Z.1cZ..c
   14eb5:	5aa1 9863 5ab1 115a b511 5a4a 2a5a a58a     Z..cZ..Z..ZJ*Z..
   14ec5:	5ab5 3261 330b 5ab4 0d61 560a 5a41 a25a     Z.2a3.Z..aV.ZA.Z
   14ed5:	a1e6 5ab1 255a b212 5aa2 435a b232 5ab3     ..Z.%Z..Z.CZ.2Z.
   14ee5:	295a b512 5a4a 235a a581 5ab5 3163 5aa1     )Z..ZJ#Z..Z.1cZ.
   14ef5:	c15a b212 614e 045a a19d 635a a17c 635a     .Z..aN.Z..cZ.|cZ
   14f05:	a15d 635a a18a 5ab1 2263 5aa1 5a5a b309     .]cZ..Z."cZ.ZZ..
   14f15:	5ab5 115a 4a2c 5aa5 cb5a b531 635a a12b     Z..ZJ,Z..Z.1cZ.+
   14f25:	6123 045a a1fd 612c 005a b121 6146 035a     a#.Z..a,.Z.!aF.Z
   14f35:	b009 612c 005a a1d4 612a 0a5a 4007 5a43     ..a,.Z..a*.Z@.ZC
   14f45:	075a a081 5ab0 2961 2c00 5ab1 015a 4180     .Z..Z.)a,.Z..ZA.
   14f55:	5aa1 665a b132 5ab4 2d5a b511 5a4a 235a     Z.fZ.2Z.-Z..ZJ#Z
   14f65:	a522 5ab5 3261 4603 5aa1 3761 4e04 5aa1     ."Z.2aF.Z.7aN.Z.
   14f75:	0a63 5aa1 e05a b131 635a a1bc 635a a198     .cZ..Z.1cZ..cZ..
   14f85:	5ab4 0d63 5ab1 115a b329 5a4c 075a a481     Z..cZ..Z.)ZL.Z..
   14f95:	5ab4 2961 2c00 5ab5 125a 4a1a 5aa5 665a     Z.)a,.Z..ZJ.Z.fZ
   14fa5:	b532 6179 0e5a b009 6363 5a40 095a 4309     .2ay.Z..ccZ@.ZC.
   14fb5:	5aa0 665a b026 5a41 a25a a1e6 5ab1 255a     Z.fZ.&ZA.Z..Z.%Z
   14fc5:	a28a 5ab2 325a b309 612c 005a b329 5ab5     ..Z.2Z..a,.Z.)Z.
   14fd5:	125a 4a2a 5aa5 cb5a b531 5aa6 005a b600     .ZJ*Z..Z.1Z..Z..
   14fe5:	5aa6 6c5a b631 5a51 925a a700 5ab7 005a     Z.lZ.1ZQ.Z..Z..Z
   14ff5:	a757 5ab7 355a 5210 5a55 015a a800 5ab8     .WZ.5ZR.ZU.Z..Z.
   15005:	0061 2c00 5aa8 815a b831 611a 035a a1c1     .a,.Z..Z.1a..Z..
   15015:	5ab4 0961 4e04 5aa1 9d5a a66d 5aa7 635a     Z..aN.Z..Z.mZ.cZ
   15025:	a87c 635a a17c 5aa7 6f5a a877 635a b006     .|cZ.|Z.oZ.wcZ..
   15035:	5aa1 5d5a a872 635a a18a 5ab1 225a a86c     Z.]Z.rcZ..Z."Z.l
   15045:	635a 4007 5a43 075a a08a 5ab0 265a a15a     cZ@.ZC.Z..Z.&Z.Z
   15055:	5ab3 095a 4c03 5ab4 295a b511 5a4a 275a     Z..ZL.Z.)Z..ZJ'Z
   15065:	a58a 5ab5 2e63 5aa1 2b61 4f04 5aa1 fd5a     ..Z..cZ.+aO.Z..Z
   15075:	b121 635a a1d4 6156 0a5a b101 5ab3 295a     .!cZ..aV.Z..Z.)Z
   15085:	b409 5a4c 025a a498 5ab4 2d5a b50e 5a4a     ..ZL.Z..Z.-Z..ZJ
   15095:	1d5a a522 5ab5 3261 320b 5ab0 0661 560a     .Z."Z.2a2.Z..aV.
   150a5:	5ab0 265a b309 5ab5 125a 4a23 5aa5 985a     Z.&Z..Z..ZJ#Z..Z
   150b5:	b531 6195 075a b40d 6363 5ab0 0663 635a     .1a..Z..ccZ..ccZ
   150c5:	4009 5a43 095a a022 5ab0 265a a1e6 612c     @.ZC.Z."Z.&Z..a,
   150d5:	005a b125 5ab2 125a a243 5ab2 325a b511     .Z.%Z..Z.CZ.2Z..
   150e5:	5a4a 1a5a a566 5ab5 2e5a b611 5aa6 985a     ZJ.Z.fZ..Z..Z..Z
   150f5:	b631 5ab7 155a 5196 5aa7 815a b735 5ab8     .1Z..ZQ.Z..Z.5Z.
   15105:	1161 2c00 5a52 125a 5503 5aa8 b15a b831     .a,.ZR.ZU.Z..Z.1
   15115:	611a 035a a1c1 5ab2 125a a699 612c 005a     a..Z..Z..Z..a,.Z
   15125:	a78e 5aa8 ab61 2204 5aa1 9d5a a69a 5aa7     ..Z..a".Z..Z..Z.
   15135:	9b5a a8a5 635a a17c 5aa8 9f63 5aa1 5d5a     .Z..cZ.|Z..cZ.]Z
   15145:	a898 635a a18a 5ab1 2263 5aa1 5a5a b50e     ..cZ..Z."cZ.ZZ..
   15155:	5a4a 275a a58a 5ab5 2e63 5aa1 2b61 4f04     ZJ'Z..Z..cZ.+aO.
   15165:	5aa1 fd5a b121 635a a1d4 6156 0a5a b006     Z..Z.!cZ..aV.Z..
   15175:	5ab1 015a b329 5a4c 035a b42d 5ab5 0e5a     Z..Z.)ZL.Z.-Z..Z
   15185:	4a1a 5aa5 985a b535 6116 125a b40d 635a     J.Z..Z.5a..Z..cZ
   15195:	4008 5a43 085a b026 5a41 805a a166 5ab1     @.ZC.Z.&ZA.Z.fZ.
   151a5:	325a b309 5a4c 065a a481 5ab4 295a b515     2Z..ZL.Z..Z.)Z..
   151b5:	5a4a 235a a581 5ab5 3563 5aa1 3761 4f04     ZJ#Z..Z.5cZ.7aO.
   151c5:	5aa1 0a63 5aa1 e05a b131 635a a1bc 635a     Z..cZ..Z.1cZ..cZ
   151d5:	a198 635a b111 5a41 a25a a1e6 5ab1 255a     ..cZ..ZA.Z..Z.%Z
   151e5:	4507 5aa2 8a5a b232 5ab5 155a 4a25 5aa5     E.Z..Z.2Z..ZJ%Z.
   151f5:	8a5a b532 6145 035a a1c1 612d 005a b409     .Z.2aE.Z..a-.Z..
   15205:	6122 045a a19d 635a a17c 635a b006 5aa1     a".Z..cZ.|cZ..Z.
   15215:	5d63 5aa1 8a5a b122 635a a15a 5ab3 2961     ]cZ..Z."cZ.ZZ.)a
   15225:	2c00 5ab5 125a 4a27 5aa5 225a b532 6146     ,.Z..ZJ'Z."Z.2aF
   15235:	035a a12b 614e 045a a1fd 5ab1 2163 5aa1     .Z.+aN.Z..Z.!cZ.
   15245:	d461 560a 5a40 065a 4306 5aa0 985a b029     .aV.Z@.ZC.Z..Z.)
   15255:	5ab1 015a 4180 5aa1 665a b132 612d 005a     Z..ZA.Z.fZ.2a-.Z
   15265:	b309 5a4c 015a a498 5ab4 2d5a b512 5a4a     ..ZL.Z..Z.-Z..ZJ
   15275:	205a a598 5ab5 3161 4503 5aa1 3761 4f04      Z..Z.1aE.Z.7aO.
   15285:	5aa1 0a63 5aa1 e05a b131 635a a1bc 635a     Z..cZ..Z.1cZ..cZ
   15295:	a198 635a b111 5ab5 115a 4a2a 5aa5 8a5a     ..cZ..Z..ZJ*Z..Z
   152a5:	b532 61c0 075a b40d 61c8 0d5a 41a2 5aa1     .2a..Z..a..ZA.Z.
   152b5:	e65a b125 5ab2 125a 4504 5aa2 435a b232     .Z.%Z..ZE.Z.CZ.2
   152c5:	5ab3 295a b512 5a4a 235a a581 5ab5 3163     Z.)Z..ZJ#Z..Z.1c
   152d5:	5aa1 c15a b212 614f 045a a19d 635a a17c     Z..Z..aO.Z..cZ.|
   152e5:	635a a15d 635a a18a 5ab1 2263 5aa1 5a5a     cZ.]cZ..Z."cZ.ZZ
   152f5:	b309 5ab5 115a 4a2c 5aa5 cb5a b531 635a     ..Z..ZJ,Z..Z.1cZ
   15305:	a12b 614e 045a a1fd 5ab1 2161 4603 5aa1     .+aN.Z..Z.!aF.Z.
   15315:	d463 5ab0 0963 635a a081 612c 005a b029     .cZ..ccZ..a,.Z.)
   15325:	5ab1 015a 4180 5aa1 665a b132 5a4c 035a     Z..ZA.Z.fZ.2ZL.Z
   15335:	b42d 5ab5 115a 4a23 5aa5 225a b532 6146     .-Z..ZJ#Z."Z.2aF
   15345:	035a a137 614f 045a a10a 635a a1e0 5ab1     .Z.7aO.Z..cZ..Z.
   15355:	3163 5aa1 bc63 5aa1 985a b40d 635a b111     1cZ..cZ..Z..cZ..
   15365:	5ab3 295a 4c04 5aa4 8161 2c00 5ab4 295a     Z.)ZL.Z..a,.Z.)Z
   15375:	b512 5a4a 1a5a a566 5ab5 3261 5c15 5ab0     ..ZJ.Z.fZ.2a\.Z.
   15385:	095a 4008 5a43 085a a066 5ab0 265a 41a2     .Z@.ZC.Z.fZ.&ZA.
   15395:	5aa1 e65a b125 5a45 065a a28a 612c 005a     Z..Z.%ZE.Z..a,.Z
   153a5:	b232 5ab3 095a b329 5ab5 125a 4a2a 5aa5     .2Z..Z.)Z..ZJ*Z.
   153b5:	cb5a b531 5aa6 005a b600 5aa6 e65a b631     .Z.1Z..Z..Z..Z.1
   153c5:	5a51 945a a700 5ab7 005a a7cb 5ab7 355a     ZQ.Z..Z..Z..Z.5Z
   153d5:	5211 5a55 0261 2d00 5aa8 005a b800 5aa8     R.ZU.a-.Z..Z..Z.
   153e5:	035a b832 61f6 035a a1c1 5ab4 0963 5aa1     .Z.2a..Z..Z..cZ.
   153f5:	9d5a a6e7 5aa7 db5a a8fc 5ab8 3163 5aa1     .Z..Z..Z..Z.1cZ.
   15405:	7c5a a6e8 5aa7 ea5a a8f5 635a a15d 5aa8     |Z..Z..Z..cZ.]Z.
   15415:	ee63 5ab0 065a a18a 5ab1 225a a8e6 635a     .cZ..Z..Z."Z..cZ
   15425:	4006 5a43 065a a08a 5ab0 265a a15a 5ab3     @.ZC.Z..Z.&Z.ZZ.
   15435:	095a 4c03 5ab4 295a b511 5a4a 275a a58a     .ZL.Z.)Z..ZJ'Z..
   15445:	612c 005a b52e 6122 045a a12b 635a a1fd     a,.Z..a".Z.+cZ..
   15455:	5ab1 2163 5aa1 d461 560a 5ab1 015a b329     Z.!cZ..aV.Z..Z.)
   15465:	5ab4 095a 4c02 5aa4 985a b42d 5ab5 0e5a     Z..ZL.Z..Z.-Z..Z
   15475:	4a1d 5aa5 225a b532 6133 0b5a b006 6156     J.Z."Z.2a3.Z..aV
   15485:	0a5a b026 5ab3 095a b512 5a4a 235a a598     .Z.&Z..Z..ZJ#Z..
   15495:	5ab5 3161 9407 5ab4 0d63 635a b006 635a     Z.1a..Z..ccZ..cZ
   154a5:	b611 5ab7 1561 2c00 5ab8 1161 4603 5a40     ..Z..a,.Z..aF.Z@
   154b5:	075a 4307 5aa0 225a b026 5aa1 e661 2c00     .ZC.Z."Z.&Z..a,.
   154c5:	5ab1 255a b212 5aa2 435a b232 5ab5 115a     Z.%Z..Z.CZ.2Z..Z
   154d5:	4a1a 5aa5 665a b52e 5aa6 985a b631 5a51     J.Z.fZ..Z..Z.1ZQ
   154e5:	975a a781 5ab7 355a 5212 5a55 035a a8b1     .Z..Z.5ZR.ZU.Z..
   154f5:	5ab8 3161 2304 5aa1 c15a b212 5aa6 9961     Z.1a#.Z..Z..Z..a
   15505:	2c00 5aa7 8e5a a8ab 6146 035a a19d 5aa6     ,.Z..Z..aF.Z..Z.
   15515:	9a5a a79b 5aa8 a563 5aa1 7c5a a89f 635a     .Z..Z..cZ.|Z..cZ
   15525:	a15d 5aa8 9863 5aa1 8a5a b122 635a a15a     .]Z..cZ..Z."cZ.Z
   15535:	5ab5 0e5a 4a27 5aa5 8a5a b52e 614e 045a     Z..ZJ'Z..Z..aN.Z
   15545:	a12b 635a a1fd 5ab1 2163 5aa1 d463 5ab0     .+cZ..Z.!cZ..cZ.
   15555:	0663 635a b101 5a4b 065a b329 5a4c 035a     .ccZ..ZK.Z.)ZL.Z
   15565:	b42d 5ab5 0e5a 4a1a 5aa5 985a b535 6117     .-Z..ZJ.Z..Z.5a.
   15575:	125a b40d 635a 4006 5a43 065a b026 5a41     .Z..cZ@.ZC.Z.&ZA
   15585:	805a a166 5ab1 325a b309 5a4c 065a a481     .Z.fZ.2Z..ZL.Z..
   15595:	5ab4 295a b515 5a4a 235a a581 5ab5 3561     Z.)Z..ZJ#Z..Z.5a
   155a5:	4e04 5aa1 3763 5aa1 0a63 5aa1 e05a b131     N.Z.7cZ..cZ..Z.1
   155b5:	635a a1bc 635a a198 635a b111 5a41 a25a     cZ..cZ..cZ..ZA.Z
   155c5:	a1e6 5ab1 255a a28a 5ab2 325a b409 5ab5     ..Z.%Z..Z.2Z..Z.
   155d5:	155a 4a25 5aa5 8a5a b532 6123 045a a1c1     .ZJ%Z..Z.2a#.Z..
   155e5:	635a a19d 635a b006 612c 005a a17c 6146     cZ..cZ..a,.Z.|aF
   155f5:	035a a15d 635a a18a 5ab1 2263 5aa1 5a5a     .Z.]cZ..Z."cZ.ZZ
   15605:	b329 612c 005a b512 5a4a 275a a522 5ab5     .)a,.Z..ZJ'Z."Z.
   15615:	3261 2204 5aa1 2b63 5aa1 fd5a b121 635a     2a".Z.+cZ..Z.!cZ
   15625:	a1d4 6363 5ab6 115a b715 5ab8 1163 5a40     ..ccZ..Z..Z..cZ@
   15635:	045a 4304 5aa0 985a b029 5ab1 015a 4180     .ZC.Z..Z.)Z..ZA.
   15645:	5aa1 665a b132 612c 005a b309 5a4c 015a     Z.fZ.2a,.Z..ZL.Z
   15655:	a498 5ab4 2d5a b512 5a4a 205a a598 5ab5     ..Z.-Z..ZJ Z..Z.
   15665:	315a a681 5ab6 315a 5196 5aa7 6c5a b735     1Z..Z.1ZQ.Z.lZ.5
   15675:	5ab8 3161 2304 5aa1 375a a682 5aa7 785a     Z.1a#.Z.7Z..Z.xZ
   15685:	a893 635a a10a 5aa6 835a a784 5aa8 8d63     ..cZ..Z..Z..Z..c
   15695:	5aa1 e05a b131 5aa8 8763 5aa1 bc5a a881     Z..Z.1Z..cZ..Z..
   156a5:	635a a198 635a b111 5ab5 115a 4a2a 5aa5     cZ..cZ..Z..ZJ*Z.
   156b5:	8a5a b532 61c0 075a b40d 61c8 0d5a 41a2     .Z.2a..Z..a..ZA.
   156c5:	5aa1 e65a b125 5ab2 125a a243 5ab2 325a     Z..Z.%Z..Z.CZ.2Z
   156d5:	b329 5ab5 125a 4a23 5aa5 815a b531 614f     .)Z..ZJ#Z..Z.1aO
   156e5:	045a a1c1 5ab2 1263 5aa1 9d63 5aa1 7c63     .Z..Z..cZ..cZ.|c
   156f5:	5aa1 5d63 5aa1 8a5a b122 635a a15a 5ab3     Z.]cZ..Z."cZ.ZZ.
   15705:	095a b511 5a4a 2c5a a5cb 5ab5 3161 4e04     .Z..ZJ,Z..Z.1aN.
   15715:	5aa1 2b63 5aa1 fd5a b121 6146 035a a1d4     Z.+cZ..Z.!aF.Z..
   15725:	635a b009 6363 5a40 065a 4306 5aa0 8161     cZ..ccZ@.ZC.Z..a
   15735:	2c00 5ab0 295a b101 5a41 805a a166 5ab1     ,.Z.)Z..ZA.Z.fZ.
   15745:	325a 4c03 5ab4 2d5a b511 5a4a 235a a522     2ZL.Z.-Z..ZJ#Z."
   15755:	5ab5 3261 2304 5aa1 3763 5aa1 0a63 5aa1     Z.2a#.Z.7cZ..cZ.
   15765:	e05a b131 635a a1bc 635a a198 5ab4 0d63     .Z.1cZ..cZ..Z..c
   15775:	5ab1 115a b329 5a4c 075a a481 612c 005a     Z..Z.)ZL.Z..a,.Z
   15785:	b429 5ab5 125a 4a1a 5aa5 665a b532 6106     .)Z..ZJ.Z.fZ.2a.
   15795:	0b5a b611 5ab7 155a b811 6363 5ab0 0963     .Z..Z..Z..ccZ..c
   157a5:	5a40 075a 4307 5aa0 665a b026 5a41 a25a     Z@.ZC.Z.fZ.&ZA.Z
   157b5:	a1e6 5ab1 255a 4509 5aa2 8a5a b232 612c     ..Z.%ZE.Z..Z.2a,
   157c5:	005a b309 5ab3 295a b409 5ab5 125a 4a2a     .Z..Z.)Z..Z..ZJ*
   157d5:	5aa5 cb5a b531 5aa6 8a5a b62e 5a51 925a     Z..Z.1Z..Z..ZQ.Z
   157e5:	a766 5ab7 325a 5210 5a55 015a a857 5ab8     .fZ.2ZR.ZU.Z.WZ.
   157f5:	3161 2304 5aa1 c15a a68c 5aa7 7b5a a853     1a#.Z..Z..Z.{Z.S
   15805:	635a a19d 5aa6 8d5a a78f 5aa8 4e63 5aa1     cZ..Z..Z..Z.NcZ.
   15815:	7c5a a849 635a b006 5aa1 5d5a a88a 5ab8     |Z.IcZ..Z.]Z..Z.
   15825:	2e63 5aa1 8a5a b122 635a 4006 5a43 065a     .cZ..Z."cZ@.ZC.Z
   15835:	a08a 5ab0 265a a15a 5ab3 095a 4c03 5aa4     ..Z.&Z.ZZ..ZL.Z.
   15845:	985a b42d 5ab5 115a 4a27 5aa5 8a61 2c00     .Z.-Z..ZJ'Z..a,.
   15855:	5ab5 2e61 2204 5aa1 2b63 5aa1 fd5a b121     Z..a".Z.+cZ..Z.!
   15865:	635a a1d4 5ab4 0d61 560a 5ab1 015a b329     cZ..Z..aV.Z..Z.)
   15875:	5a4c 065a a481 5ab4 295a b50e 5a4a 1d5a     ZL.Z..Z.)Z..ZJ.Z
   15885:	a522 5ab5 3261 330b 5ab0 0663 5ab4 0963     ."Z.2a3.Z..cZ..c
   15895:	635a b026 5ab3 095a 4c03 5aa4 985a b42d     cZ.&Z..ZL.Z..Z.-
   158a5:	5ab5 125a 4a23 5aa5 985a b531 6106 0b5a     Z..ZJ#Z..Z.1a..Z
   158b5:	b40d 6363 5ab6 0e5a b712 5ab8 0e61 4e04     ..ccZ..Z..Z..aN.
   158c5:	5ab0 065a a022 5ab0 2661 2d00 5aa1 e65a     Z..Z."Z.&a-.Z..Z
   158d5:	b125 5ab2 125a 4506 5aa2 435a b232 5ab5     .%Z..ZE.Z.CZ.2Z.
   158e5:	115a 4a1a 5aa5 665a b52e 5aa6 225a b62e     .ZJ.Z.fZ..Z."Z..
   158f5:	5aa7 035a b732 5aa8 4361 2c00 5ab8 2e61     Z..Z.2Z.Ca,.Z..a
   15905:	1903 5aa1 c15a b212 5aa6 2461 2d00 5aa7     ..Z..Z..Z.$a-.Z.
   15915:	155a a83b 6145 035a a19d 5aa6 255a a727     .Z.;aE.Z..Z.%Z.'
   15925:	5aa8 3363 5aa1 7c5a a82b 635a a15d 5aa8     Z.3cZ.|Z.+cZ.]Z.
   15935:	2263 5aa1 8a5a b122 614f 045a a15a 5ab5     "cZ..Z."aO.Z.ZZ.
   15945:	0e5a 4a27 5aa5 8a5a b52e 635a a12b 635a     .ZJ'Z..Z..cZ.+cZ
   15955:	a1fd 5ab1 2163 5aa1 d463 635a b006 614e     ..Z.!cZ..ccZ..aN
   15965:	045a b101 5ab3 295a b42d 5ab5 0e5a 4a1a     .Z..Z.)Z.-Z..ZJ.
   15975:	5aa5 985a b535 61c8 0d5a b40d 61c1 075a     Z..Z.5a..Z..a..Z
   15985:	4008 5a43 085a b026 5a41 805a a166 5ab1     @.ZC.Z.&ZA.Z.fZ.
   15995:	325a b309 5a4c 065a a481 5ab4 295a b515     2Z..ZL.Z..Z.)Z..
   159a5:	5a4a 235a a581 5ab5 3563 5aa1 3763 5aa1     ZJ#Z..Z.5cZ.7cZ.
   159b5:	0a63 5aa1 e05a b131 635a a1bc 635a a198     .cZ..Z.1cZ..cZ..
   159c5:	614e 045a b111 5a41 a25a a1e6 5ab1 255a     aN.Z..ZA.Z..Z.%Z
   159d5:	a28a 5ab2 325a b515 5a4a 255a a58a 5ab5     ..Z.2Z..ZJ%Z..Z.
   159e5:	3261 4603 5aa1 c161 2c00 5ab4 0961 4603     2aF.Z..a,.Z..aF.
   159f5:	5aa1 9d63 5ab0 0661 2c00 5aa1 7c61 4603     Z..cZ..a,.Z.|aF.
   15a05:	5aa1 5d63 5aa1 8a5a b122 614f 045a a15a     Z.]cZ..Z."aO.Z.Z
   15a15:	612c 005a b329 5ab5 125a 4a27 5aa5 225a     a,.Z.)Z..ZJ'Z."Z
   15a25:	b532 6146 035a a12b 635a a1fd 5ab1 2163     .2aF.Z.+cZ..Z.!c
   15a35:	5aa1 d461 320b 5a40 035a 4303 5aa0 985a     Z..a2.Z@.ZC.Z..Z
   15a45:	b029 5ab1 015a 4180 5aa1 6661 2c00 5ab1     .)Z..ZA.Z.fa,.Z.
   15a55:	325a b309 5a4c 015a a498 5ab4 2d5a b512     2Z..ZL.Z..Z.-Z..
   15a65:	5a4a 205a a598 5ab5 3161 4603 5aa1 3763     ZJ Z..Z.1aF.Z.7c
   15a75:	5aa1 0a63 5aa1 e05a b131 635a a1bc 635a     Z..cZ..Z.1cZ..cZ
   15a85:	a198 614f 045a b111 5ab5 115a 4a2a 5aa5     ..aO.Z..Z..ZJ*Z.
   15a95:	8a5a b532 635a b40d 6116 125a 41a2 5aa1     .Z.2cZ..a..ZA.Z.
   15aa5:	e65a b125 5ab2 125a 450a 5aa2 435a b232     .Z.%Z..ZE.Z.CZ.2
   15ab5:	5ab3 295a b512 5a4a 235a a581 5ab5 3163     Z.)Z..ZJ#Z..Z.1c
   15ac5:	5aa1 c15a b212 635a a19d 635a a17c 635a     Z..Z..cZ..cZ.|cZ
   15ad5:	b009 5aa1 5d63 5aa1 8a5a b122 614f 045a     ..Z.]cZ..Z."aO.Z
   15ae5:	4005 5a43 055a a081 5ab0 295a a15a 5ab3     @.ZC.Z..Z.)Z.ZZ.
   15af5:	095a b42d 5ab5 115a 4a2c 5aa5 cb5a b531     .Z.-Z..ZJ,Z..Z.1
   15b05:	635a a12b 635a a1fd 5ab1 2163 5aa1 d45a     cZ.+cZ..Z.!cZ..Z
   15b15:	b40d 6106 0b5a b101 5a41 8061 2c00 5aa1     ..a..Z..ZA.a,.Z.
   15b25:	665a b132 5ab5 115a 4a23 5aa5 225a b532     fZ.2Z..ZJ#Z."Z.2
   15b35:	6146 035a a137 635a a10a 635a b009 5aa1     aF.Z.7cZ..cZ..Z.
   15b45:	e05a b131 635a a1bc 635a a198 614f 045a     .Z.1cZ..cZ..aO.Z
   15b55:	b111 5aa1 665a b132 612c 005a b329 5a4c     ..Z.fZ.2a,.Z.)ZL
   15b65:	035a b42d 5ab5 125a 4a1a 5aa5 665a b532     .Z.-Z..ZJ.Z.fZ.2
   15b75:	6146 035a a137 635a a10a 5ab4 0d63 5aa1     aF.Z.7cZ..Z..cZ.
   15b85:	e05a b131 635a a1bc 635a a198 614e 045a     .Z.1cZ..cZ..aN.Z
   15b95:	b111 5a41 a25a a1e6 5ab1 255a 4509 5ab2     ..ZA.Z..Z.%ZE.Z.
   15ba5:	325a b309 612c 005a b329 5aa4 815a b429     2Z..a,.Z.)Z..Z.)
   15bb5:	5ab5 125a 4a2a 5aa5 cb5a b531 6146 035a     Z..ZJ*Z..Z.1aF.Z
   15bc5:	a1c1 5ab2 1263 5aa1 9d63 5aa1 7c63 5aa1     ..Z..cZ..cZ.|cZ.
   15bd5:	5d63 5aa1 8a5a b122 614f 045a a15a 5ab3     ]cZ..Z."aO.Z.ZZ.
   15be5:	095a b409 5ab5 115a 4a27 5aa5 8a5a b52e     .Z..Z..ZJ'Z..Z..
   15bf5:	635a a12b 635a a1fd 5ab1 2163 5aa1 d461     cZ.+cZ..Z.!cZ..a
   15c05:	320b 5ab1 015a 4c01 5aa4 985a b42d 5ab5     2.Z..ZL.Z..Z.-Z.
   15c15:	0e5a 4a1d 5aa5 225a b532 6363 5ab4 0d61     .ZJ.Z."Z.2ccZ..a
   15c25:	a50e 5ab3 295a b512 5a4a 235a a598 5ab5     ..Z.)Z..ZJ#Z..Z.
   15c35:	3161 b806 5ab6 0e61 2c00 5ab7 125a b80e     1a..Z..a,.Z..Z..
   15c45:	6178 0e5a a1e6 5ab1 255a 4507 5ab2 3261     ax.Z..Z.%ZE.Z.2a
   15c55:	2c00 5ab3 095a c40e 5ae9 025a 490b 5a69     ,.Z..Z..Z..ZI.Zi
   15c65:	c55a 8916 5a29 d05a ec00 5a4c 005a 6cf7     .Z..Z).Z..ZL.Zl.
   15c75:	5a8c 175a 2c1e 5ab5 115a c50e 5aea 015a     Z..Z,.Z..Z..Z..Z
   15c85:	4a1b 5a6a f35a 8a00 5a2a 1a61 2c00 5a8d     J.Zj.Z..Z*.a,.Z.
   15c95:	3b5a 2d32 5a4a 225a a522 5ab5 225a c600     ;Z-2ZJ"Z."Z."Z..
   15ca5:	5af0 005a 5017 5a70 d85a 902f 5a30 e05a     Z..ZP.Zp.Z./Z0.Z
   15cb5:	f300 5a73 f35a 931f 5a33 e05a 5310 5aa6     ..Zs.Z..Z3.ZS.Z.
   15cc5:	985a b635 612c 005a c701 5af1 005a 510f     .Z.5a,.Z..Z..ZQ.
   15cd5:	5a71 f15a 912f 5a31 635a 5400 5a74 fa5a     Zq.Z./Z1cZT.Zt.Z
   15ce5:	942f 5a34 a05a 5115 5a54 0c5a a78a 5ab7     ./Z4.ZQ.ZT.Z..Z.
   15cf5:	325a c801 5af2 005a 520f 5a72 f15a 922f     2Z..Z..ZR.Zr.Z./
   15d05:	5a32 a35a f500 612d 005a 5500 5a75 6a5a     Z2.Z..a-.ZU.ZujZ
   15d15:	952f 5a35 a05a 5215 5a55 0c5a b832 61c1     ./Z5.ZR.ZU.Z.2a.
   15d25:	025a a1c1 5ab2 125a a78c 635a a19d 635a     .Z..Z..Z..cZ..cZ
   15d35:	a17c 635a a15d 635a a18a 5ab1 2261 4f04     .|cZ.]cZ..Z."aO.
   15d45:	5aa1 5a63 5aa1 2b63 5aa1 fd5a b121 635a     Z.ZcZ.+cZ..Z.!cZ
   15d55:	a1d4 6363 5ab5 0261 4e04 5ab1 015a 4b05     ..ccZ..aN.Z..ZK.
   15d65:	5ab3 295a 4c09 5aa4 665a b426 5ab5 2661     Z.)ZL.Z.fZ.&Z.&a
   15d75:	560a 5ab5 0663 635a b406 614f 045a 4180     V.Z..ccZ..aO.ZA.
   15d85:	5aa1 665a b132 5ab3 095a 4c0e 5aa4 435a     Z.fZ.2Z..ZL.Z.CZ
   15d95:	b422 5ab5 2a63 5aa1 3763 5aa1 0a5a b50a     ."Z.*cZ.7cZ..Z..
   15da5:	635a a1e0 5ab1 3163 5aa1 bc63 5aa1 9861     cZ..Z.1cZ..cZ..a
   15db5:	4e04 5ab1 115a 41a2 5aa1 e65a b125 5a45     N.Z..ZA.Z..Z.%ZE
   15dc5:	0d5a a28a 5ab2 325a b402 635a a1c1 6146     .Z..Z.2Z..cZ..aF
   15dd5:	035a a19d 635a a17c 635a a15d 635a a18a     .Z..cZ.|cZ.]cZ..
   15de5:	5ab1 2261 4f04 5aa1 5a61 2c00 5ab3 295a     Z."aO.Z.Za,.Z.)Z
   15df5:	4a2a 5ab5 2a61 4603 5aa1 2b63 5aa1 fd5a     J*Z.*aF.Z.+cZ..Z
   15e05:	b121 635a a1d4 5ab5 0a61 320b 5ab1 015a     .!cZ..Z..a2.Z..Z
   15e15:	4180 5aa1 665a b132 5ab3 095a 4c07 612c     A.Z.fZ.2Z..ZL.a,
   15e25:	005a a466 5ab4 265a 4a29 5ab5 2661 4603     .Z.fZ.&ZJ)Z.&aF.
   15e35:	5aa1 3763 5aa1 0a5a b506 635a a1e0 5ab1     Z.7cZ..Z..cZ..Z.
   15e45:	3163 5aa1 bc61 4f04 5aa1 9863 5ab1 115a     1cZ..aO.Z..cZ..Z
   15e55:	4a22 5ab5 2a61 8815 5a41 a25a a1e6 5ab1     J"Z.*a..ZA.Z..Z.
   15e65:	255a b212 5a45 075a a243 5ab2 325a b329     %Z..ZE.Z.CZ.2Z.)
   15e75:	5ab4 065a b50a 5a4a 2961 2c00 5aa5 985a     Z..Z..ZJ)a,.Z..Z
   15e85:	b529 6146 035a a1c1 5ab2 1263 5aa1 9d63     .)aF.Z..Z..cZ..c
   15e95:	5aa1 7c63 5aa1 5d61 4f04 5aa1 8a5a b122     Z.|cZ.]aO.Z..Z."
   15ea5:	635a a15a 5ab3 0963 5aa1 2b63 5aa1 fd5a     cZ.ZZ..cZ.+cZ..Z
   15eb5:	b121 635a a1d4 6106 0b5a b101 612c 005a     .!cZ..a..Z..a,.Z
   15ec5:	4180 5aa1 665a b132 5a4c 065a b426 5ab5     A.Z.fZ.2ZL.Z.&Z.
   15ed5:	095a 4a25 5aa5 6c5a b529 6146 035a a137     .ZJ%Z.lZ.)aF.Z.7
   15ee5:	635a a10a 635a a1e0 5ab1 3163 5aa1 bc5a     cZ..cZ..Z.1cZ..Z
   15ef5:	b406 612c 005a b509 6122 045a a198 635a     ..a,.Z..a".Z..cZ
   15f05:	b111 5ab3 295a 4c0a 612d 005a a443 5ab4     ..Z.)ZL.a-.Z.CZ.
   15f15:	225a a566 5ab5 2661 9b0d 5ab5 0661 c107     "Z.fZ.&a..Z..a..
   15f25:	5a41 a25a a1e6 5ab1 255a 4504 5aa2 8a5a     ZA.Z..Z.%ZE.Z..Z
   15f35:	b232 5ab3 095a b329 612c 005a 4a27 5aa5     .2Z..Z.)a,.ZJ'Z.
   15f45:	8a5a b526 6146 035a a1c1 635a a19d 5ab4     .Z.&aF.Z..cZ..Z.
   15f55:	0263 5aa1 7c5a b506 635a a15d 614e 045a     .cZ.|Z..cZ.]aN.Z
   15f65:	a18a 5ab1 2263 5aa1 5a5a b309 5a4c 065a     ..Z."cZ.ZZ..ZL.Z
   15f75:	b422 5a4a 295a a56c 5ab5 2963 5aa1 2b63     ."ZJ)Z.lZ.)cZ.+c
   15f85:	5aa1 fd5a b121 635a a1d4 635a b509 61c1     Z..Z.!cZ..cZ..a.
   15f95:	075a b101 5ab3 295a b402 5a4c 045a a466     .Z..Z.)Z..ZL.Z.f
   15fa5:	5ab4 265a 4a2a 5aa5 985a b529 61c8 0d5a     Z.&ZJ*Z..Z.)a..Z
   15fb5:	b509 614e 045a b615 5ab7 125a b812 635a     ..aN.Z..Z..Z..cZ
   15fc5:	b309 5a4a 245a a5e6 5ab5 2961 2a0a 5ab5     ..ZJ$Z..Z.)a*.Z.
   15fd5:	0963 5ab4 0661 c107 5aa1 e65a b125 5ab2     .cZ..a..Z..Z.%Z.
   15fe5:	1261 2c00 5a45 075a a243 5ab2 325a a522     .a,.ZE.Z.CZ.2Z."
   15ff5:	5ab5 225a 530c 5ab6 355a 540d 5aa7 665a     Z."ZS.Z.5ZT.Z.fZ
   16005:	b732 5aa8 e65a b831 6146 035a a1c1 5ab2     .2Z..Z.1aF.Z..Z.
   16015:	125a a768 635a a19d 635a a17c 635a a15d     .Z.hcZ..cZ.|cZ.]
   16025:	614e 045a a18a 5ab1 2263 5aa1 5a63 5aa1     aN.Z..Z."cZ.ZcZ.
   16035:	2b63 5aa1 fd5a b121 635a a1d4 635a b502     +cZ..Z.!cZ..cZ..
   16045:	61c1 075a b101 5ab3 295a 4c07 5ab4 265a     a..Z..Z.)ZL.Z.&Z
   16055:	b526 6363 5ab5 0661 320b 5ab4 0663 5a41     .&ccZ..a2.Z..cZA
   16065:	805a a166 5ab1 325a b309 5a4c 0d5a a443     .Z.fZ.2Z..ZL.Z.C
   16075:	5ab4 225a 4a21 5ab5 2a63 5aa1 3763 5aa1     Z."ZJ!Z.*cZ.7cZ.
   16085:	0a5a b50a 635a a1e0 5ab1 3163 5aa1 bc61     .Z..cZ..Z.1cZ..a
   16095:	4f04 5aa1 9863 5ab1 115a 41a2 5aa1 e65a     O.Z..cZ..ZA.Z..Z
   160a5:	b125 5a45 065a a28a 5ab2 325a b402 635a     .%ZE.Z..Z.2Z..cZ
   160b5:	a1c1 6146 035a a19d 635a a17c 635a a15d     ..aF.Z..cZ.|cZ.]
   160c5:	614e 045a a18a 5ab1 2263 5aa1 5a61 2c00     aN.Z..Z."cZ.Za,.
   160d5:	5ab3 295a 4a27 5ab5 2a61 4603 5aa1 2b63     Z.)ZJ'Z.*aF.Z.+c
   160e5:	5aa1 fd5a b121 5ab5 0a63 5aa1 d461 330b     Z..Z.!Z..cZ..a3.
   160f5:	5ab1 015a 4180 5aa1 665a b132 5ab3 095a     Z..ZA.Z.fZ.2Z..Z
   16105:	4c04 612c 005a a466 5ab4 265a 4a2a 5ab5     L.a,.Z.fZ.&ZJ*Z.
   16115:	2661 4603 5aa1 3763 5aa1 0a5a b506 635a     &aF.Z.7cZ..Z..cZ
   16125:	a1e0 5ab1 3163 5aa1 bc61 4e04 5aa1 9863     ..Z.1cZ..aN.Z..c
   16135:	5ab1 115a 4a24 5ab5 2a61 560a 5ab4 065a     Z..ZJ$Z.*aV.Z..Z
   16145:	b50a 6133 0b5a 41a2 5aa1 e65a b125 5ab2     ..a3.ZA.Z..Z.%Z.
   16155:	125a a243 5ab2 325a b329 5a4a 295a b526     .Z.CZ.2Z.)ZJ)Z.&
   16165:	635a a1c1 5ab2 1263 5aa1 9d63 5aa1 7c5a     cZ..Z..cZ..cZ.|Z
   16175:	b506 635a a15d 614e 045a a18a 5ab1 2263     ..cZ.]aN.Z..Z."c
   16185:	5aa1 5a5a b309 5a4a 225a b52a 635a a12b     Z.ZZ..ZJ"Z.*cZ.+
   16195:	635a a1fd 5ab1 2163 5aa1 d461 9507 5ab5     cZ..Z.!cZ..a..Z.
   161a5:	0a63 5ab1 0161 2c00 5a41 805a a166 5ab1     .cZ..a,.ZA.Z.fZ.
   161b5:	325a 4c06 5ab4 265a 4a2b 5aa5 985a b529     2ZL.Z.&ZJ+Z..Z.)
   161c5:	6146 035a a137 635a a10a 635a a1e0 5ab1     aF.Z.7cZ..cZ..Z.
   161d5:	3161 4e04 5aa1 bc63 5aa1 985a b406 5ab5     1aN.Z..cZ..Z..Z.
   161e5:	0963 5ab1 115a b329 5a4c 0c61 2c00 5aa4     .cZ..Z.)ZL.a,.Z.
   161f5:	435a b422 5a4a 245a a56c 5ab5 2961 2a0a     CZ."ZJ$Z.lZ.)a*.
   16205:	5ab5 0961 330b 5a41 a25a a1e6 5ab1 255a     Z..a3.ZA.Z..Z.%Z
   16215:	4504 5aa2 8a5a b232 5ab3 0961 2c00 5ab3     E.Z..Z.2Z..a,.Z.
   16225:	295a b402 5a4a 2a5a a566 5ab5 2661 4603     )Z..ZJ*Z.fZ.&aF.
   16235:	5aa1 c163 5aa1 9d63 5aa1 7c61 4e04 5aa1     Z..cZ..cZ.|aN.Z.
   16245:	5d5a b506 635a a18a 5ab1 2263 5aa1 5a5a     ]Z..cZ..Z."cZ.ZZ
   16255:	b309 5a4c 065a b422 5a4a 295a a58a 5ab5     ..ZL.Z."ZJ)Z..Z.
   16265:	2663 5aa1 2b63 5aa1 fd5a b121 635a a1d4     &cZ.+cZ..Z.!cZ..
   16275:	5ab5 0661 330b 5ab1 015a b329 5ab4 025a     Z..a3.Z..Z.)Z..Z
   16285:	4c04 5aa4 665a b426 5a4a 275a a56c 5ab5     L.Z.fZ.&ZJ'Z.lZ.
   16295:	2961 a40e 5ab5 0963 5ab6 155a b811 635a     )a..Z..cZ..Z..cZ
   162a5:	b309 5a4a 245a a5e6 5ab5 295a b712 6146     ..ZJ$Z..Z.)Z..aF
   162b5:	035a b406 6133 0b5a b509 6363 5aa1 e65a     .Z..a3.Z..ccZ..Z
   162c5:	b125 5ab2 1261 2c00 5a45 065a a243 5ab2     .%Z..a,.ZE.Z.CZ.
   162d5:	325a 4a29 5aa5 225a b522 5a53 095a a66c     2ZJ)Z."Z."ZS.Z.l
   162e5:	5ab6 355a a722 5ab7 325a 5216 5a55 0e5a     Z.5Z."Z.2ZR.ZU.Z
   162f5:	a8cb 5ab8 3161 4603 5aa1 c15a b212 5aa7     ..Z.1aF.Z..Z..Z.
   16305:	2463 5aa1 9d63 5aa1 7c61 4e04 5aa1 5d63     $cZ..cZ.|aN.Z.]c
   16315:	5aa1 8a5a b122 635a a15a 635a a12b 635a     Z..Z."cZ.ZcZ.+cZ
   16325:	a1fd 5ab1 2163 5aa1 d461 330b 5ab1 015a     ..Z.!cZ..a3.Z..Z
   16335:	4b06 5ab3 295a 4c06 5ab4 265a b502 5a4a     K.Z.)ZL.Z.&Z..ZJ
   16345:	2261 2c00 5ab5 2661 b806 5ab5 0661 c007     "a,.Z.&a..Z..a..
   16355:	5ab4 0663 635a 4180 5aa1 665a b132 5ab3     Z..ccZA.Z.fZ.2Z.
   16365:	095a 4c0c 5aa4 435a b422 5a4a 245a b52a     .ZL.Z.CZ."ZJ$Z.*
   16375:	635a a137 5ab5 0a63 5aa1 0a63 5aa1 e05a     cZ.7Z..cZ..cZ..Z
   16385:	b131 614f 045a a1bc 635a a198 635a b111     .1aO.Z..cZ..cZ..
   16395:	5a41 a25a a1e6 5ab1 255a a28a 5ab2 325a     ZA.Z..Z.%Z..Z.2Z
   163a5:	b402 635a a1c1 635a a19d 6145 035a a17c     ..cZ..cZ..aE.Z.|
   163b5:	614f 045a a15d 635a a18a 5ab1 2263 5aa1     aO.Z.]cZ..Z."cZ.
   163c5:	5a61 2c00 5ab3 295a 4a22 5ab5 2a61 4603     Za,.Z.)ZJ"Z.*aF.
   163d5:	5aa1 2b63 5aa1 fd5a b121 635a a1d4 5ab5     Z.+cZ..Z.!cZ..Z.
   163e5:	0a61 320b 5ab1 015a 4180 5aa1 665a b132     .a2.Z..ZA.Z.fZ.2
   163f5:	5ab3 0961 2d00 5a4c 025a a466 5ab4 265a     Z..a-.ZL.Z.fZ.&Z
   16405:	4a35 5ab5 2661 4503 5aa1 3763 5aa1 0a63     J5Z.&aE.Z.7cZ..c
   16415:	5aa1 e05a b131 5ab5 0661 4f04 5aa1 bc63     Z..Z.1Z..aO.Z..c
   16425:	5aa1 9863 5ab1 115a 4a22 5ab5 2a63 635a     Z..cZ..ZJ"Z.*ccZ
   16435:	b406 61a4 0e5a 41a2 5aa1 e65a b125 5ab2     ..a..ZA.Z..Z.%Z.
   16445:	125a 4507 5aa2 435a b232 5ab3 295a b50a     .ZE.Z.CZ.2Z.)Z..
   16455:	5a4a 2861 2d00 5aa5 985a b529 6145 035a     ZJ(a-.Z..Z.)aE.Z
   16465:	a1c1 5ab2 1263 5aa1 9d63 5aa1 7c61 4f04     ..Z..cZ..cZ.|aO.
   16475:	5aa1 5d63 5aa1 8a5a b122 635a a15a 5ab3     Z.]cZ..Z."cZ.ZZ.
   16485:	0963 5aa1 2b63 5aa1 fd5a b121 635a a1d4     .cZ.+cZ..Z.!cZ..
   16495:	61c0 075a b509 6146 035a b101 612c 005a     a..Z..aF.Z..a,.Z
   164a5:	4180 5aa1 665a b132 5a4c 065a b426 5a4a     A.Z.fZ.2ZL.Z.&ZJ
   164b5:	225a a56c 5ab5 2961 4603 5aa1 3763 5aa1     "Z.lZ.)aF.Z.7cZ.
   164c5:	0a63 5aa1 e05a b131 614f 045a a1bc 635a     .cZ..Z.1aO.Z..cZ
   164d5:	a198 5ab4 0663 5ab1 115a b329 5a4c 0a61     ..Z..cZ..Z.)ZL.a
   164e5:	2c00 5aa4 435a b422 5a4a 275a a500 5ab5     ,.Z.CZ."ZJ'Z..Z.
   164f5:	005a a566 5ab5 2661 5c15 5a41 a25a a1e6     .Z.fZ.&a\.ZA.Z..
   16505:	5ab1 255a 4506 5aa2 8a5a b232 5ab3 0961     Z.%ZE.Z..Z.2Z..a
   16515:	2c00 5ab3 295a b402 5ab5 065a 4a24 5aa5     ,.Z.)Z..Z..ZJ$Z.
   16525:	8a5a b526 6146 035a a1c1 635a a19d 635a     .Z.&aF.Z..cZ..cZ
   16535:	a17c 614f 045a a15d 5ab5 0663 5aa1 8a5a     .|aO.Z.]Z..cZ..Z
   16545:	b122 635a a15a 5ab3 095a 4c06 5ab4 225a     ."cZ.ZZ..ZL.Z."Z
   16555:	4a25 5aa5 6c5a b529 635a a12b 635a a1fd     J%Z.lZ.)cZ.+cZ..
   16565:	5ab1 215a b712 5ab8 1163 5aa1 d461 4e04     Z.!Z..Z..cZ..aN.
   16575:	5ab6 1563 635a b101 5ab3 295a b402 5a4c     Z..ccZ..Z.)Z..ZL
   16585:	025a a466 5ab4 265a b509 5a4a 295a a598     .Z.fZ.&Z..ZJ)Z..
   16595:	5ab5 2961 a50e 5ab5 0963 635a b309 5a4a     Z.)a..Z..ccZ..ZJ
   165a5:	225a a5e6 5ab5 2961 2a0a 5ab4 0661 c007     "Z..Z.)a*.Z..a..
   165b5:	5ab5 0963 5aa1 e65a b125 5ab2 1261 2c00     Z..cZ..Z.%Z..a,.
   165c5:	5a45 045a a243 5ab2 325a a56c 5ab5 255a     ZE.Z.CZ.2Z.lZ.%Z
   165d5:	530a 5aa6 e65a b635 5aa7 6c5a b735 5aa8     S.Z..Z.5Z.lZ.5Z.
   165e5:	225a b832 6146 035a a1c1 5ab2 125a a76d     "Z.2aF.Z..Z..Z.m
   165f5:	635a a19d 614f 045a a17c 635a a15d 635a     cZ..aO.Z.|cZ.]cZ
   16605:	a18a 5ab1 2263 5aa1 5a63 5aa1 2b63 5aa1     ..Z."cZ.ZcZ.+cZ.
   16615:	fd5a b121 614e 045a a1d4 6156 0a5a b101     .Z.!aN.Z..aV.Z..
   16625:	5ab3 295a 4c07 5ab4 265a b505 5a4a 2461     Z.)ZL.Z.&Z..ZJ$a
   16635:	2c00 5aa5 985a b525 61eb 115a b406 635a     ,.Z..Z.%a..Z..cZ
   16645:	4180 5aa1 665a b132 5ab3 095a 4c0a 5aa4     A.Z.fZ.2Z..ZL.Z.
   16655:	435a b422 635a a137 635a a10a 614e 045a     CZ."cZ.7cZ..aN.Z
   16665:	a1e0 5ab1 315a b505 635a a1bc 635a a198     ..Z.1Z..cZ..cZ..
   16675:	635a b111 5a41 a25a a1e6 5ab1 255a 4507     cZ..ZA.Z..Z.%ZE.
   16685:	5aa2 8a5a b232 5ab4 025a 4a25 5aa5 e65a     Z..Z.2Z..ZJ%Z..Z
   16695:	b525 635a a1c1 635a a19d 6123 045a a17c     .%cZ..cZ..a#.Z.|
   166a5:	635a a15d 635a a18a 5ab1 2261 2c00 5ab5     cZ.]cZ..Z."a,.Z.
   166b5:	0561 4603 5aa1 5a61 2c00 5ab3 295a 4a22     .aF.Z.Za,.Z.)ZJ"
   166c5:	5aa5 225a b526 6146 035a a12b 635a a1fd     Z."Z.&aF.Z.+cZ..
   166d5:	5ab1 2161 4e04 5aa1 d463 5ab5 0663 635a     Z.!aN.Z..cZ..ccZ
   166e5:	b101 5a41 805a a166 5ab1 325a b309 612c     ..ZA.Z.fZ.2Z..a,
   166f5:	005a 4c04 5aa4 665a b426 5a4a 295a a598     .ZL.Z.fZ.&ZJ)Z..
   16705:	5ab5 2561 4603 5aa1 375a b505 635a a10a     Z.%aF.Z.7Z..cZ..
   16715:	614f 045a a1e0 5ab1 3163 5aa1 bc63 5aa1     aO.Z..Z.1cZ..cZ.
   16725:	9863 5ab1 115a 4a27 5aa5 e65a b525 61a4     .cZ..ZJ'Z..Z.%a.
   16735:	0e5a b406 5ab5 0563 635a 41a2 5aa1 e65a     .Z..Z..ccZA.Z..Z
   16745:	b125 5ab2 125a 4506 5aa2 435a b232 5ab3     .%Z..ZE.Z.CZ.2Z.
   16755:	295a 4a28 5aa5 985a b525 635a a1c1 5ab2     )ZJ(Z..Z.%cZ..Z.
   16765:	125a b505 635a a19d 614f 045a a17c 635a     .Z..cZ..aO.Z.|cZ
   16775:	a15d 635a a18a 5ab1 2263 5aa1 5a5a b309     .]cZ..Z."cZ.ZZ..
   16785:	5a4c 025a b426 5a4a 225a a522 5ab5 2663     ZL.Z.&ZJ"Z."Z.&c
   16795:	5aa1 2b63 5aa1 fd5a b121 614e 045a a1d4     Z.+cZ..Z.!aN.Z..
   167a5:	635a b506 635a b406 6146 035a b101 612c     cZ..cZ..aF.Z..a,
   167b5:	005a 4180 5aa1 665a b132 5a4a 295a a5e6     .ZA.Z.fZ.2ZJ)Z..
   167c5:	5ab5 2561 4603 5aa1 3763 5aa1 0a61 2c00     Z.%aF.Z.7cZ..a,.
   167d5:	5ab5 0561 2304 5aa1 e05a b131 635a a1bc     Z..a#.Z..Z.1cZ..
   167e5:	635a a198 635a b111 5aa1 665a b132 612c     cZ..cZ..Z.fZ.2a,
   167f5:	005a b329 5a4c 075a b426 5a4a 215a a566     .Z.)ZL.Z.&ZJ!Z.f
   16805:	5ab5 265a b615 5ab7 155a b812 6146 035a     Z.&Z..Z..Z..aF.Z
   16815:	a137 635a a10a 614e 045a a1e0 5ab1 3163     .7cZ..aN.Z..Z.1c
   16825:	5aa1 bc63 5aa1 985a b406 5ab5 0663 5ab1     Z..cZ..Z..Z..cZ.
   16835:	115a 41a2 5aa1 e65a b125 5aa2 8a5a b232     .ZA.Z..Z.%Z..Z.2
   16845:	5ab3 0961 2c00 5ab3 295a 4c06 5aa4 435a     Z..a,.Z.)ZL.Z.CZ
   16855:	b422 5a4a 255a a522 5ab5 265a 5310 5aa6     ."ZJ%Z."Z.&ZS.Z.
   16865:	cb5a b635 5a51 185a 5412 5aa7 6c5a b735     .Z.5ZQ.ZT.Z.lZ.5
   16875:	5a52 185a 5512 5ab8 3261 4603 5aa1 c15a     ZR.ZU.Z.2aF.Z..Z
   16885:	a76d 635a a19d 614f 045a a17c 635a a15d     .mcZ..aO.Z.|cZ.]
   16895:	5ab5 0663 5aa1 8a5a b122 635a a15a 5ab3     Z..cZ..Z."cZ.ZZ.
   168a5:	095a b402 5a4a 215a a56c 5ab5 2963 5aa1     .Z..ZJ!Z.lZ.)cZ.
   168b5:	2b63 5aa1 fd5a b121 614e 045a a1d4 635a     +cZ..Z.!aN.Z..cZ
   168c5:	b509 6363 5ab1 015a 4c04 5aa4 665a b426     ..ccZ..ZL.Z.fZ.&
   168d5:	5a4a 285a a598 5ab5 2961 8915 5ab3 2961     ZJ(Z..Z.)a..Z.)a
   168e5:	780e 5ab4 0663 5ab5 0963 5a40 075a 4307     x.Z..cZ..cZ@.ZC.
   168f5:	5aa0 225a b026 612c 005a a1e6 5ab1 255a     Z."Z.&a,.Z..Z.%Z
   16905:	b212 5a45 025a a243 5ab2 325a b309 5a4a     ..ZE.Z.CZ.2Z..ZJ
   16915:	245a a522 5ab5 225a 530c 5aa6 005a b600     $Z."Z."ZS.Z..Z..
   16925:	5aa6 985a b635 5a51 165a 540f 5aa7 005a     Z..Z.5ZQ.ZT.Z..Z
   16935:	b700 612c 005a a78a 5ab7 325a b812 5a52     ..a,.Z..Z.2Z..ZR
   16945:	165a 550e 5ab8 3261 1a03 5aa1 c15a b212     .ZU.Z.2a..Z..Z..
   16955:	635a a19d 5aa7 8c61 4e04 5aa1 7c63 5aa1     cZ..Z..aN.Z.|cZ.
   16965:	5d63 5aa1 8a5a b122 635a a15a 635a a12b     ]cZ..Z."cZ.ZcZ.+
   16975:	635a a1fd 5ab1 2161 4f04 5aa1 d463 5ab0     cZ..Z.!aO.Z..cZ.
   16985:	065a b502 6363 5ab1 015a 4b05 5ab3 295a     .Z..ccZ..ZK.Z.)Z
   16995:	b426 5a4a 255a b526 6132 0b5a b506 6363     .&ZJ%Z.&a2.Z..cc
   169a5:	5ab4 0663 5ab0 265a 4180 5aa1 665a b132     Z..cZ.&ZA.Z.fZ.2
   169b5:	5ab3 095a 4c0e 5aa4 435a b422 635a a137     Z..ZL.Z.CZ."cZ.7
   169c5:	635a a10a 614f 045a a1e0 5ab1 3163 5aa1     cZ..aO.Z..Z.1cZ.
   169d5:	bc63 5aa1 9863 5ab1 115a 41a2 5aa1 e65a     .cZ..cZ..ZA.Z..Z
   169e5:	b125 5a45 065a a28a 5ab2 325a 4a22 5ab5     .%ZE.Z..Z.2ZJ"Z.
   169f5:	2a5a b812 635a a1c1 5ab4 0263 5ab0 065a     *Z..cZ..Z..cZ..Z
   16a05:	a19d 6122 045a a17c 612c 005a b50a 6146     ..a".Z.|a,.Z..aF
   16a15:	035a a15d 635a a18a 5ab1 2263 5aa1 5a61     .Z.]cZ..Z."cZ.Za
   16a25:	2c00 5ab3 295a 4a2d 5ab5 2661 4603 5aa1     ,.Z.)ZJ-Z.&aF.Z.
   16a35:	2b61 4f04 5aa1 fd5a b121 5ab5 0663 5aa1     +aO.Z..Z.!Z..cZ.
   16a45:	d461 560a 5a40 055a 4305 5aa0 985a b029     .aV.Z@.ZC.Z..Z.)
   16a55:	5ab1 015a 4180 612c 005a a166 5ab1 325a     Z..ZA.a,.Z.fZ.2Z
   16a65:	b309 5a4c 045a a466 5ab4 265a 4a25 5ab5     ..ZL.Z.fZ.&ZJ%Z.
   16a75:	2a61 4603 5aa1 3761 4e04 5aa1 0a63 5aa1     *aF.Z.7aN.Z..cZ.
   16a85:	e05a b131 635a a1bc 635a a198 635a b111     .Z.1cZ..cZ..cZ..
   16a95:	5ab5 0a5a 4a29 5aa5 e65a b529 6133 0b5a     Z..ZJ)Z..Z.)a3.Z
   16aa5:	b406 635a b509 6363 5a41 a25a a1e6 5ab1     ..cZ..ccZA.Z..Z.
   16ab5:	255a b212 5aa2 435a b232 5ab3 295a a598     %Z..Z.CZ.2Z.)Z..
   16ac5:	5ab5 2963 5aa1 c15a b212 614e 045a a19d     Z.)cZ..Z..aN.Z..
   16ad5:	5ab5 0963 5aa1 7c63 5aa1 5d63 5aa1 8a5a     Z..cZ.|cZ.]cZ..Z
   16ae5:	b122 635a a15a 5ab3 095a 4a2a 5aa5 6c5a     ."cZ.ZZ..ZJ*Z.lZ
   16af5:	b529 635a a12b 614f 045a a1fd 5ab1 215a     .)cZ.+aO.Z..Z.!Z
   16b05:	b509 635a b009 5aa1 d461 2a0a 5a40 0761     ..cZ..Z..a*.Z@.a
   16b15:	2c00 5a43 075a a081 5ab0 295a b101 5a41     ,.ZC.Z..Z.)Z..ZA
   16b25:	805a a166 5ab1 325a b426 5a4a 275a b529     .Z.fZ.2Z.&ZJ'Z.)
   16b35:	6146 035a a137 614e 045a a10a 635a a1e0     aF.Z.7aN.Z..cZ..
   16b45:	5ab1 3163 5aa1 bc63 5aa1 985a b406 612c     Z.1cZ..cZ..Z..a,
   16b55:	005a b509 6146 035a b111 5ab3 2961 2c00     .Z..aF.Z..Z.)a,.
   16b65:	5a4c 0e5a a443 5ab4 225a 4a22 5aa5 985a     ZL.Z.CZ."ZJ"Z..Z
   16b75:	b529 6179 0e5a b009 5ab5 0963 635a 4009     .)ay.Z..Z..ccZ@.
   16b85:	5a43 095a a066 5ab0 265a 41a2 5aa1 e65a     ZC.Z.fZ.&ZA.Z..Z
   16b95:	b125 5aa2 8a5a b232 612c 005a b309 5ab3     .%Z..Z.2a,.Z..Z.
   16ba5:	295a 4a24 5aa5 6c5a b529 6146 035a a1c1     )ZJ$Z.lZ.)aF.Z..
   16bb5:	5ab4 0261 4e04 5aa1 9d63 5aa1 7c63 5ab0     Z..aN.Z..cZ.|cZ.
   16bc5:	065a a15d 5ab5 0963 5aa1 8a5a b122 635a     .Z.]Z..cZ..Z."cZ
   16bd5:	4007 5a43 075a a08a 5ab0 265a a15a 5ab3     @.ZC.Z..Z.&Z.ZZ.
   16be5:	095a 4c06 5ab4 225a 4a22 5aa5 8a61 2c00     .ZL.Z."ZJ"Z..a,.
   16bf5:	5ab5 2661 4603 5aa1 2b61 4f04 5aa1 fd5a     Z.&aF.Z.+aO.Z..Z
   16c05:	b121 635a a1d4 5ab5 0661 560a 5ab1 015a     .!cZ..Z..aV.Z..Z
   16c15:	b329 5ab4 025a 4c04 5aa4 665a b426 5a4a     .)Z..ZL.Z.fZ.&ZJ
   16c25:	295a a566 5ab5 2661 320b 5ab0 0661 560a     )Z.fZ.&a2.Z..aV.
   16c35:	5ab0 265a b309 5ab5 065a a58a 5ab5 265a     Z.&Z..Z..Z..Z.&Z
   16c45:	b615 5ab7 1261 9507 5ab4 0663 5ab5 0663     ..Z..a..Z..cZ..c
   16c55:	5ab0 0663 635a 4009 5a43 095a a022 5ab0     Z..ccZ@.ZC.Z."Z.
   16c65:	2661 2c00 5aa1 e65a b125 5ab2 125a a243     &a,.Z..Z.%Z..Z.C
   16c75:	5ab2 325a 4a22 5aa5 225a b522 5a53 0a5a     Z.2ZJ"Z."Z."ZS.Z
   16c85:	b635 5a54 0e5a a766 5ab7 325a 5215 5a55     .5ZT.Z.fZ.2ZR.ZU
   16c95:	0d5a a8e6 612c 005a b831 611a 035a a1c1     .Z..a,.Z.1a..Z..
   16ca5:	5ab2 1261 2c00 5aa7 6861 2204 5aa1 9d63     Z..a,.Z.ha".Z..c
   16cb5:	5aa1 7c63 5aa1 5d63 5aa1 8a5a b122 635a     Z.|cZ.]cZ..Z."cZ
   16cc5:	a15a 635a a12b 614f 045a a1fd 5ab1 2163     .ZcZ.+aO.Z..Z.!c
   16cd5:	5aa1 d463 635a b502 635a b006 5ab1 015a     Z..ccZ..cZ..Z..Z
   16ce5:	b329 5a4c 065a b426 612c 005a b526 6194     .)ZL.Z.&a,.Z.&a.
   16cf5:	075a b506 6156 0a5a b406 635a 4008 5a43     .Z..aV.Z..cZ@.ZC
   16d05:	085a b026 5a41 805a a166 5ab1 325a b309     .Z.&ZA.Z.fZ.2Z..
   16d15:	5a4c 0c5a a443 5ab4 2263 5aa1 3761 4f04     ZL.Z.CZ."cZ.7aO.
   16d25:	5aa1 0a63 5aa1 e05a b131 635a a1bc 635a     Z..cZ..Z.1cZ..cZ
   16d35:	a198 635a b111 5a41 a25a a1e6 5ab1 255a     ..cZ..ZA.Z..Z.%Z
   16d45:	4507 5aa2 8a5a b232 5ab5 2a63 5aa1 c15a     E.Z..Z.2Z.*cZ..Z
   16d55:	b402 5ab5 0a61 4e04 5aa1 9d63 5aa1 7c61     ..Z..aN.Z..cZ.|a
   16d65:	4603 5ab0 0661 2c00 5aa1 5d61 4603 5aa1     F.Z..a,.Z.]aF.Z.
   16d75:	8a5a b122 635a a15a 612c 005a b329 5a4a     .Z."cZ.Za,.Z.)ZJ
   16d85:	295a b52a 6146 035a a12b 614f 045a a1fd     )Z.*aF.Z.+aO.Z..
   16d95:	5ab1 215a b50a 635a a1d4 6156 0a5a 4006     Z.!Z..cZ..aV.Z@.
   16da5:	5a43 065a a098 5ab0 295a b101 612c 005a     ZC.Z..Z.)Z..a,.Z
   16db5:	4180 5aa1 665a b132 5ab3 095a 4c02 5aa4     A.Z.fZ.2Z..ZL.Z.
   16dc5:	665a b426 5a4a 2e5a b526 6146 035a a137     fZ.&ZJ.Z.&aF.Z.7
   16dd5:	614e 045a a10a 5ab5 0663 5aa1 e05a b131     aN.Z..Z..cZ..Z.1
   16de5:	635a a1bc 635a a198 635a b111 5a4a 225a     cZ..cZ..cZ..ZJ"Z
   16df5:	b52a 61c1 075a b406 6156 0a5a b50a 635a     .*a..Z..aV.Z..cZ
   16e05:	41a2 5aa1 e65a b125 5ab2 125a 4504 5aa2     A.Z..Z.%Z..ZE.Z.
   16e15:	435a b232 5ab3 295a 4a25 5aa5 665a b526     CZ.2Z.)ZJ%Z.fZ.&
   16e25:	635a a1c1 5ab2 1261 4e04 5aa1 9d5a b506     cZ..Z..aN.Z..Z..
   16e35:	635a a17c 635a a15d 635a a18a 5ab1 2263     cZ.|cZ.]cZ..Z."c
   16e45:	5aa1 5a5a b309 5a4a 2a5a a598 5ab5 2963     Z.ZZ..ZJ*Z..Z.)c
   16e55:	5aa1 2b61 4f04 5aa1 fd5a b121 635a a1d4     Z.+aO.Z..Z.!cZ..
   16e65:	635a b009 5ab5 0963 635a a081 5ab0 295a     cZ..Z..ccZ..Z.)Z
   16e75:	b101 5a41 805a a166 5ab1 325a 4c06 5ab4     ..ZA.Z.fZ.2ZL.Z.
   16e85:	265a 4a25 5aa5 6c5a b529 6145 035a a137     &ZJ%Z.lZ.)aE.Z.7
   16e95:	614f 045a a10a 635a a1e0 5ab1 3161 2c00     aO.Z..cZ..Z.1a,.
   16ea5:	5ab5 0961 4603 5aa1 bc63 5aa1 985a b406     Z..aF.Z..cZ..Z..
   16eb5:	635a b111 5ab3 2961 2c00 5a4c 095a a443     cZ..Z.)a,.ZL.Z.C
   16ec5:	5ab4 225a 4a24 5ab5 2961 9407 5ab5 0961     Z."ZJ$Z.)a..Z..a
   16ed5:	c80d 5ab0 095a 4008 5a43 085a a066 5ab0     ..Z..Z@.ZC.Z.fZ.
   16ee5:	265a 41a2 5aa1 e65a b125 612d 005a 4506     &ZA.Z..Z.%a-.ZE.
   16ef5:	5aa2 8a5a b232 5ab3 095a b329 5a4a 225a     Z..Z.2Z..Z.)ZJ"Z
   16f05:	a598 5ab5 2961 2204 5aa1 c15a b402 635a     ..Z.)a".Z..Z..cZ
   16f15:	a19d 635a a17c 635a a15d 635a b006 5aa1     ..cZ.|cZ.]cZ..Z.
   16f25:	8a5a b122 5ab5 0963 5a40 065a 4306 5aa0     .Z."Z..cZ@.ZC.Z.
   16f35:	8a5a b026 5aa1 5a5a b309 5a4c 065a b422     .Z.&Z.ZZ..ZL.Z."
   16f45:	5a4a 2761 2c00 5aa5 6c5a b529 6122 045a     ZJ'a,.Z.lZ.)a".Z
   16f55:	a12b 635a a1fd 5ab1 215a b509 635a a1d4     .+cZ..Z.!Z..cZ..
   16f65:	6156 0a5a b101 5ab3 295a b402 5a4c 045a     aV.Z..Z.)Z..ZL.Z
   16f75:	a466 5ab4 265a 4a24 5aa5 985a b529 6133     .fZ.&ZJ$Z..Z.)a3
   16f85:	0b5a b006 6363 5ab8 1163 5ab0 265a b309     .Z..ccZ..cZ.&Z..
   16f95:	5ab6 1561 4e04 5ab7 1263 5ab4 0661 b806     Z..aN.Z..cZ..a..
   16fa5:	5ab0 0663 635a 4007 5a43 075a a022 5ab0     Z..ccZ@.ZC.Z."Z.
   16fb5:	2661 2c00 5aa1 e65a b125 5ab2 125a a243     &a,.Z..Z.%Z..Z.C
   16fc5:	5ab2 325a 4a2b 5aa5 005a b500 5aa5 225a     Z.2ZJ+Z..Z..Z."Z
   16fd5:	b522 5a53 0d5a a66c 5ab6 355a 5115 5a54     ."ZS.Z.lZ.5ZQ.ZT
   16fe5:	0d5a a722 5ab7 325a 5217 612d 005a 5510     .Z."Z.2ZR.a-.ZU.
   16ff5:	5aa8 cb5a b831 61f6 035a a1c1 5ab2 1261     Z..Z.1a..Z..Z..a
   17005:	2c00 5aa7 2461 4603 5aa1 9d63 5aa1 7c63     ,.Z.$aF.Z..cZ.|c
   17015:	5aa1 5d63 5aa1 8a5a b122 635a a15a 614e     Z.]cZ..Z."cZ.ZaN
   17025:	045a a12b 635a a1fd 5ab1 2163 5aa1 d463     .Z.+cZ..Z.!cZ..c
   17035:	5ab0 0663 5ab5 0263 5ab1 015a 4b06 5ab3     Z..cZ..cZ..ZK.Z.
   17045:	295a 4c06 5ab4 265a 4a28 5ab5 2661 c107     )ZL.Z.&ZJ(Z.&a..
   17055:	5ab5 0661 560a 5ab4 0663 5a40 065a 4306     Z..aV.Z..cZ@.ZC.
   17065:	5ab0 265a 4180 5aa1 665a b132 5ab3 095a     Z.&ZA.Z.fZ.2Z..Z
   17075:	4c0c 5aa4 435a b422 5a4a 245a b52a 614e     L.Z.CZ."ZJ$Z.*aN
   17085:	045a a137 5ab5 0a63 5aa1 0a63 5aa1 e05a     .Z.7Z..cZ..cZ..Z
   17095:	b131 635a a1bc 635a a198 635a b111 5a41     .1cZ..cZ..cZ..ZA
   170a5:	a25a a1e6 5ab1 255a a28a 5ab2 325a b402     .Z..Z.%Z..Z.2Z..
   170b5:	5ab5 2a61 4f04 5aa1 c163 5aa1 9d63 5ab0     Z.*aO.Z..cZ..cZ.
   170c5:	065a a17c 6146 035a a15d 635a a18a 5ab1     .Z.|aF.Z.]cZ..Z.
   170d5:	2261 2c00 5ab5 0a61 4603 5aa1 5a61 2c00     "a,.Z..aF.Z.Za,.
   170e5:	5ab3 295a 4a2e 5aa5 985a b529 6122 045a     Z.)ZJ.Z..Z.)a".Z
   170f5:	a12b 635a a1fd 5ab1 2163 5aa1 d463 5ab5     .+cZ..Z.!cZ..cZ.
   17105:	0963 635a 4004 5a43 045a a098 5ab0 295a     .ccZ@.ZC.Z..Z.)Z
   17115:	b101 5a41 8061 2c00 5aa1 665a b132 5ab3     ..ZA.a,.Z.fZ.2Z.
   17125:	095a 4c02 5aa4 665a b426 5a4a 285a a56c     .ZL.Z.fZ.&ZJ(Z.l
   17135:	5ab5 2961 2304 5aa1 3763 5aa1 0a63 5aa1     Z.)a#.Z.7cZ..cZ.
   17145:	e05a b131 5ab5 0963 5aa1 bc63 5aa1 9863     .Z.1Z..cZ..cZ..c
   17155:	5ab1 115a 4a27 5aa5 665a b526 61c0 075a     Z..ZJ'Z.fZ.&a..Z
   17165:	b406 635a b506 6156 0a5a 41a2 5aa1 e65a     ..cZ..aV.ZA.Z..Z
   17175:	b125 5ab2 125a a243 5ab2 325a b329 5aa5     .%Z..Z.CZ.2Z.)Z.
   17185:	8a5a b526 614f 045a a1c1 5ab2 1263 5aa1     .Z.&aO.Z..Z..cZ.
   17195:	9d63 5aa1 7c5a b506 635a a15d 635a a18a     .cZ.|Z..cZ.]cZ..
   171a5:	5ab1 2263 5aa1 5a5a b309 5a4a 2f5a a566     Z."cZ.ZZ..ZJ/Z.f
   171b5:	5ab5 2661 4e04 5aa1 2b63 5aa1 fd5a b121     Z.&aN.Z.+cZ..Z.!
   171c5:	635a a1d4 635a b009 61b8 065a 4006 612c     cZ..cZ..a..Z@.a,
   171d5:	005a 4306 5aa0 815a b029 5ab1 015a 4180     .ZC.Z..Z.)Z..ZA.
   171e5:	5aa1 665a b132 5a4c 075a b426 5ab5 065a     Z.fZ.2ZL.Z.&Z..Z
   171f5:	4a28 5aa5 6c5a b529 6123 045a a137 635a     J(Z.lZ.)a#.Z.7cZ
   17205:	a10a 635a a1e0 5ab1 3163 5aa1 bc63 5aa1     ..cZ..Z.1cZ..cZ.
   17215:	985a b406 612c 005a b509 6146 035a b111     .Z..a,.Z..aF.Z..
   17225:	5ab3 2961 2c00 5a4c 0e5a a443 5ab4 225a     Z.)a,.ZL.Z.CZ."Z
   17235:	4a29 5aa5 665a b526 61ea 115a b009 5ab5     J)Z.fZ.&a..Z..Z.
   17245:	0663 5a40 075a 4307 5aa0 665a b026 5a41     .cZ@.ZC.Z.fZ.&ZA
   17255:	a25a a1e6 5ab1 255a 4509 5aa2 8a61 2c00     .Z..Z.%ZE.Z..a,.
   17265:	5ab2 325a b309 5ab3 295a b402 5a4a 215a     Z.2Z..Z.)Z..ZJ!Z
   17275:	a522 5ab5 2661 2304 5aa1 c163 5aa1 9d63     ."Z.&a#.Z..cZ..c
   17285:	5aa1 7c63 5ab0 065a a15d 635a a18a 5ab1     Z.|cZ..Z.]cZ..Z.
   17295:	2263 5a40 065a 4306 5aa0 8a5a b026 5aa1     "cZ@.ZC.Z..Z.&Z.
   172a5:	5a5a b309 5a4c 065a a466 5ab4 2661 4e04     ZZ..ZL.Z.fZ.&aN.
   172b5:	5aa1 2b63 5aa1 fd5a b121 635a a1d4 5ab4     Z.+cZ..Z.!cZ..Z.
   172c5:	0661 560a 5ab1 015a b329 5a4c 0d5a a443     .aV.Z..Z.)ZL.Z.C
   172d5:	5ab4 2261 c107 5ab7 125a b811 635a b006     Z."a..Z..Z..cZ..
   172e5:	635a b402 5ab6 1563 635a b026 5ab3 095a     cZ..Z..ccZ.&Z..Z
   172f5:	4c07 5aa4 665a b426 6106 0b5a b406 612c     L.Z.fZ.&a..Z..a,
   17305:	005a b506 6107 0b5a b006 612c 005a a022     .Z..a..Z..a,.Z."
   17315:	5ab0 265a a1e6 5ab1 255a b212 5a45 065a     Z.&Z..Z.%Z..ZE.Z
   17325:	a243 5ab2 325a 4a22 5aa5 6c5a b525 5a53     .CZ.2ZJ"Z.lZ.%ZS
   17335:	115a a698 5ab6 355a a78a 5ab7 3261 2c00     .Z..Z.5Z..Z.2a,.
   17345:	5a52 155a 550d 5aa8 225a b832 611a 035a     ZR.ZU.Z."Z.2a..Z
   17355:	a1c1 5ab2 1261 2c00 5aa7 8c61 4603 5aa1     ..Z..a,.Z..aF.Z.
   17365:	9d63 5aa1 7c63 5aa1 5d63 5aa1 8a5a b122     .cZ.|cZ.]cZ..Z."
   17375:	614e 045a a15a 635a a12b 635a a1fd 5ab1     aN.Z.ZcZ.+cZ..Z.
   17385:	2163 5aa1 d463 5ab5 0563 5ab0 0661 4f04     !cZ..cZ..cZ..aO.
   17395:	5ab1 015a b329 5a4c 065a b426 5a4a 255a     Z..Z.)ZL.Z.&ZJ%Z
   173a5:	a598 5ab5 2563 635a b505 6363 5ab4 0661     ..Z.%ccZ..ccZ..a
   173b5:	c007 5a40 085a 4308 5ab0 265a 4180 5aa1     ..Z@.ZC.Z.&ZA.Z.
   173c5:	665a b132 5ab3 095a 4c0d 5aa4 435a b422     fZ.2Z..ZL.Z.CZ."
   173d5:	5a4a 275a a5e6 5ab5 2563 5aa1 3763 5aa1     ZJ'Z..Z.%cZ.7cZ.
   173e5:	0a63 5aa1 e05a b131 5ab5 0563 5aa1 bc63     .cZ..Z.1Z..cZ..c
   173f5:	5aa1 9861 4f04 5ab1 115a 41a2 5aa1 e65a     Z..aO.Z..ZA.Z..Z
   17405:	b125 5aa2 8a5a b232 635a a1c1 5ab4 0263     .%Z..Z.2cZ..Z..c
   17415:	5aa1 9d63 5ab0 065a a17c 635a a15d 6145     Z..cZ..Z.|cZ.]aE
   17425:	035a a18a 612d 005a b122 6122 045a a15a     .Z..a-.Z."a".Z.Z
   17435:	612c 005a b329 5a4a 225a a522 5ab5 2661     a,.Z.)ZJ"Z."Z.&a
   17445:	4603 5aa1 2b63 5aa1 fd5a b121 635a a1d4     F.Z.+cZ..Z.!cZ..
   17455:	635a b506 61c0 075a 4003 5a43 035a a098     cZ..a..Z@.ZC.Z..
   17465:	5ab0 295a b101 5a41 8061 2d00 5aa1 665a     Z.)Z..ZA.a-.Z.fZ
   17475:	b132 5ab3 095a 4c02 5aa4 665a b426 5a4a     .2Z..ZL.Z.fZ.&ZJ
   17485:	2c5a a5e6 5ab5 2561 4503 5aa1 3763 5aa1     ,Z..Z.%aE.Z.7cZ.
   17495:	0a5a b505 635a a1e0 5ab1 3163 5aa1 bc63     .Z..cZ..Z.1cZ..c
   174a5:	5aa1 9861 4f04 5ab1 115a 4a1b 5aa5 225a     Z..aO.Z..ZJ.Z."Z
   174b5:	b526 635a b406 6116 125a 41a2 5aa1 e65a     .&cZ..a..ZA.Z..Z
   174c5:	b125 5ab2 125a 450a 5aa2 435a b232 5ab3     .%Z..ZE.Z.CZ.2Z.
   174d5:	295a b506 5a4a 2061 2d00 5ab5 2661 4503     )Z..ZJ a-.Z.&aE.
   174e5:	5aa1 c15a b212 635a a19d 635a a17c 635a     Z..Z..cZ..cZ.|cZ
   174f5:	b009 5aa1 5d63 5aa1 8a5a b122 614f 045a     ..Z.]cZ..Z."aO.Z
   17505:	4005 5a43 055a a081 5ab0 295a a15a 5ab3     @.ZC.Z..Z.)Z.ZZ.
   17515:	095a b426 5ab5 065a 4a25 5ab5 2663 5aa1     .Z.&Z..ZJ%Z.&cZ.
   17525:	2b63 5aa1 fd5a b121 635a a1d4 5ab4 0661     +cZ..Z.!cZ..Z..a
   17535:	320b 5ab1 015a 4180 5aa1 665a b132 5ab5     2.Z..ZA.Z.fZ.2Z.
   17545:	065a 4a29 5ab5 265a a500 5ab5 005a a522     .ZJ)Z.&Z..Z..Z."
   17555:	5ab5 2661 4603 5aa1 3763 5aa1 0a63 5ab0     Z.&aF.Z.7cZ..cZ.
   17565:	0961 2c00 5aa1 e05a b131 6146 035a a1bc     .a,.Z..Z.1aF.Z..
   17575:	635a a198 614f 045a b111 5aa1 665a b132     cZ..aO.Z..Z.fZ.2
   17585:	612c 005a b329 5a4c 075a b426 5ab5 065a     a,.Z.)ZL.Z.&Z..Z
   17595:	4a26 5ab5 2661 4603 5aa1 3763 5aa1 0a5a     J&Z.&aF.Z.7cZ..Z
   175a5:	b406 635a a1e0 5ab1 3163 5aa1 bc63 5aa1     ..cZ..Z.1cZ..cZ.
   175b5:	9861 4e04 5ab1 115a 41a2 5aa1 e65a b125     .aN.Z..ZA.Z..Z.%
   175c5:	5a45 095a b232 612c 005a b309 5ab3 295a     ZE.Z.2a,.Z..Z.)Z
   175d5:	4c06 5aa4 435a b422 5ab5 065a 4a24 5ab5     L.Z.CZ."Z..ZJ$Z.
   175e5:	2661 4603 5aa1 c15a b212 635a a19d 635a     &aF.Z..Z..cZ..cZ
   175f5:	a17c 635a a15d 635a a18a 5ab1 2261 4f04     .|cZ.]cZ..Z."aO.
   17605:	5aa1 5a5a b309 5ab4 025a b506 5a4a 215a     Z.ZZ..Z..Z..ZJ!Z
   17615:	b526 635a a12b 635a a1fd 5ab1 2163 5aa1     .&cZ.+cZ..Z.!cZ.
   17625:	d461 320b 5ab1 015a 4c02 5aa4 665a b426     .a2.Z..ZL.Z.fZ.&
   17635:	5ab5 065a 4a1f 5ab5 265a b615 5ab7 125a     Z..ZJ.Z.&Z..Z..Z
   17645:	b812 6363 5ab4 0661 a50e 5ab3 295a b506     ..ccZ..a..Z.)Z..
   17655:	5a4a 1c5a b526 615c 155a 4007 5a43 075a     ZJ.Z.&a\.Z@.ZC.Z
   17665:	a022 5ab0 2661 2c00 5aa1 e65a b125 5a45     ."Z.&a,.Z..Z.%ZE
   17675:	075a b232 5ab3 095a c40a 5ae9 015a 490c     .Z.2Z..Z..Z..ZI.
   17685:	5a69 fa5a 2918 5a4c 005a 6cf9 5a8c 165a     Zi.Z).ZL.Zl.Z..Z
   17695:	2c12 5aa4 225a b432 612c 005a b506 5ac6     ,.Z."Z.2a,.Z..Z.
   176a5:	085a f001 5a50 405a 7011 5a90 f25a 3061     .Z..ZP@Zp.Z..Z0a
   176b5:	5a53 805a 7340 5a93 025a 3361 5a53 915a     ZS.Zs@Z..Z3aZS.Z
   176c5:	b635 5ac7 055a f103 5a51 545a 7142 5a91     .5Z..Z..ZQTZqBZ.
   176d5:	f45a 3160 612d 005a f402 5a54 005a 7421     .Z1`a-.Z..ZT.Zt!
   176e5:	5a94 455a 3461 5a54 0a5a a78a 5ab7 325a     Z.EZ4aZT.Z..Z.2Z
   176f5:	c808 5af2 035a 5240 5a72 125a 92f4 5a32     ..Z..ZR@Zr.Z..Z2
   17705:	605a 5580 5a75 705a 9503 5a35 215a 5587     `ZU.ZupZ..Z5!ZU.
   17715:	5ab8 3262 7d5a a1c1 5ab2 1263 5aa1 9d5a     Z.2b}Z..Z..cZ..Z
   17725:	b412 635a a17c 635a a15d 635a a18a 5ab1     ..cZ.|cZ.]cZ..Z.
   17735:	2261 4f04 5aa1 5a63 5aa1 2b63 5aa1 fd5a     "aO.Z.ZcZ.+cZ..Z
   17745:	b121 635a a1d4 635a b006 61c0 075a b101     .!cZ..cZ..a..Z..
   17755:	5a4b 055a b329 6189 155a b026 5a41 805a     ZK.Z.)a..Z.&ZA.Z
   17765:	a166 5ab1 325a b309 635a a137 635a a10a     .fZ.2Z..cZ.7cZ..
   17775:	635a a1e0 5ab1 3163 5aa1 bc63 5aa1 9861     cZ..Z.1cZ..cZ..a
   17785:	4e04 5ab1 115a 41a2 5aa1 e65a b125 5a45     N.Z..ZA.Z..Z.%ZE
   17795:	0d5a a28a 5ab2 325a b42e 635a a1c1 635a     .Z..Z.2Z..cZ..cZ
   177a5:	b006 5aa1 9d5a b40e 635a a17c 635a a15d     ..Z..Z..cZ.|cZ.]
   177b5:	6146 035a a18a 612c 005a b122 6123 045a     aF.Z..a,.Z."a#.Z
   177c5:	a15a 612c 005a b329 6146 035a a12b 635a     .Za,.Z.)aF.Z.+cZ
   177d5:	a1fd 5ab1 2163 5aa1 d461 320b 5a40 055a     ..Z.!cZ..a2.Z@.Z
   177e5:	4305 5aa0 985a b029 5ab1 0161 2c00 5a41     C.Z..Z.)Z..a,.ZA
   177f5:	805a a166 5ab1 325a b309 6146 035a a137     .Z.fZ.2Z..aF.Z.7
   17805:	635a a10a 635a a1e0 5ab1 3163 5aa1 bc61     cZ..cZ..Z.1cZ..a
   17815:	4f04 5aa1 9863 5ab1 1161 8815 5a41 a25a     O.Z..cZ..a..ZA.Z
   17825:	a1e6 5ab1 255a b212 5a45 075a a243 5ab2     ..Z.%Z..ZE.Z.CZ.
   17835:	325a b329 5ab4 2e63 5aa1 c15a b212 635a     2Z.)Z..cZ..Z..cZ
   17845:	a19d 5ab4 0e63 5aa1 7c63 5aa1 5d61 4f04     ..Z..cZ.|cZ.]aO.
   17855:	5aa1 8a5a b122 635a a15a 5ab3 0963 5aa1     Z..Z."cZ.ZZ..cZ.
   17865:	2b63 5aa1 fd5a b121 635a b009 5aa1 d461     +cZ..Z.!cZ..Z..a
   17875:	320b 5a40 075a 4307 5aa0 815a b029 5ab1     2.Z@.ZC.Z..Z.)Z.
   17885:	015a 4180 5aa1 665a b132 6146 035a a137     .ZA.Z.fZ.2aF.Z.7
   17895:	635a a10a 635a a1e0 5ab1 3163 5aa1 bc61     cZ..cZ..Z.1cZ..a
   178a5:	4f04 5aa1 9863 5ab1 115a b329 61c8 0d5a     O.Z..cZ..Z.)a..Z
   178b5:	b009 61c0 075a 4009 5a43 095a a066 5ab0     ..a..Z@.ZC.Z.fZ.
   178c5:	265a 41a2 5aa1 e65a b125 5a45 045a a28a     &ZA.Z..Z.%ZE.Z..
   178d5:	612c 005a b232 5ab3 095a b329 5ab4 2e61     a,.Z.2Z..Z.)Z..a
   178e5:	4603 5aa1 c163 5aa1 9d5a b40e 635a a17c     F.Z..cZ..Z..cZ.|
   178f5:	635a b006 5aa1 5d61 4f04 5aa1 8a5a b122     cZ..Z.]aO.Z..Z."
   17905:	635a 4007 5a43 075a a08a 5ab0 265a a15a     cZ@.ZC.Z..Z.&Z.Z
   17915:	5ab3 0963 5aa1 2b63 5aa1 fd5a b121 635a     Z..cZ.+cZ..Z.!cZ
   17925:	a1d4 6132 0b5a b101 5ab3 2961 560a 5ab0     ..a2.Z..Z.)aV.Z.
   17935:	0661 330b 5ab0 265a b309 619b 0d5a b006     .a3.Z.&Z..a..Z..
   17945:	61c1 075a 4009 5a43 095a a022 612c 005a     a..Z@.ZC.Z."a,.Z
   17955:	b026 5aa1 e65a b125 5ab2 125a 4507 5aa2     .&Z..Z.%Z..ZE.Z.
   17965:	435a b232 5ab4 3261 4603 5aa1 c15a b212     CZ.2Z.2aF.Z..Z..
   17975:	635a a19d 5ab4 1263 5aa1 7c63 5aa1 5d61     cZ..Z..cZ.|cZ.]a
   17985:	4e04 5aa1 8a5a b122 635a a15a 635a a12b     N.Z..Z."cZ.ZcZ.+
   17995:	635a a1fd 5ab1 2163 5aa1 d461 330b 5ab0     cZ..Z.!cZ..a3.Z.
   179a5:	065a b101 5ab3 2961 8815 5a40 085a 4308     .Z..Z.)a..Z@.ZC.
   179b5:	5ab0 265a 4180 5aa1 665a b132 5ab3 0963     Z.&ZA.Z.fZ.2Z..c
   179c5:	5aa1 3763 5aa1 0a63 5aa1 e05a b131 635a     Z.7cZ..cZ..Z.1cZ
   179d5:	a1bc 614f 045a a198 635a b111 5a41 a25a     ..aO.Z..cZ..ZA.Z
   179e5:	a1e6 5ab1 255a 4506 5aa2 8a5a b232 5ab4     ..Z.%ZE.Z..Z.2Z.
   179f5:	2e63 5aa1 c163 5aa1 9d5a b40e 635a a17c     .cZ..cZ..Z..cZ.|
   17a05:	635a b006 5aa1 5d61 2204 5aa1 8a61 2c00     cZ..Z.]a".Z..a,.
   17a15:	5ab1 2261 4603 5aa1 5a61 2c00 5ab3 2961     Z."aF.Z.Za,.Z.)a
   17a25:	4603 5aa1 2b63 5aa1 fd5a b121 635a a1d4     F.Z.+cZ..Z.!cZ..
   17a35:	6133 0b5a 4006 5a43 065a a098 5ab0 295a     a3.Z@.ZC.Z..Z.)Z
   17a45:	b101 612c 005a 4180 5aa1 665a b132 5ab3     ..a,.ZA.Z.fZ.2Z.
   17a55:	0961 4603 5aa1 3763 5aa1 0a63 5aa1 e05a     .aF.Z.7cZ..cZ..Z
   17a65:	b131 635a a1bc 614e 045a a198 635a b111     .1cZ..aN.Z..cZ..
   17a75:	6189 155a 41a2 5aa1 e65a b125 5ab2 125a     a..ZA.Z..Z.%Z..Z
   17a85:	a243 5ab2 325a b329 5ab4 2e63 5aa1 c15a     .CZ.2Z.)Z..cZ..Z
   17a95:	b212 5ab4 0e63 5aa1 9d63 5aa1 7c63 5aa1     ..Z..cZ..cZ.|cZ.
   17aa5:	5d61 4e04 5aa1 8a5a b122 635a a15a 5ab3     ]aN.Z..Z."cZ.ZZ.
   17ab5:	0963 5aa1 2b63 5aa1 fd5a b121 635a a1d4     .cZ.+cZ..Z.!cZ..
   17ac5:	635a b009 61c1 075a a081 5ab0 295a b101     cZ..a..Z..Z.)Z..
   17ad5:	5a41 805a a166 5ab1 3261 4603 5aa1 3763     ZA.Z.fZ.2aF.Z.7c
   17ae5:	5aa1 0a63 5aa1 e05a b131 614e 045a a1bc     Z..cZ..Z.1aN.Z..
   17af5:	635a a198 635a b111 5ab3 2961 8915 5ab0     cZ..cZ..Z.)a..Z.
   17b05:	095a 4008 5a43 085a a066 5ab0 265a 41a2     .Z@.ZC.Z.fZ.&ZA.
   17b15:	5aa1 e661 2c00 5ab1 255a 4504 5aa2 8a5a     Z..a,.Z.%ZE.Z..Z
   17b25:	b232 5ab3 095a b329 5ab4 2e61 4603 5aa1     .2Z..Z.)Z..aF.Z.
   17b35:	c15a b40e 635a a19d 635a a17c 614e 045a     .Z..cZ..cZ.|aN.Z
   17b45:	a15d 635a b006 5aa1 8a5a b122 635a 4006     .]cZ..Z..Z."cZ@.
   17b55:	5a43 065a a08a 5ab0 265a a15a 5ab3 0963     ZC.Z..Z.&Z.ZZ..c
   17b65:	5aa1 2b63 5aa1 fd5a b121 635a a1d4 6133     Z.+cZ..Z.!cZ..a3
   17b75:	0b5a b101 5ab3 2961 560a 5ab0 0661 4e04     .Z..Z.)aV.Z..aN.
   17b85:	5ab7 1263 5ab6 155a b812 635a b026 5ab3     Z..cZ..Z..cZ.&Z.
   17b95:	0961 790e 5ab0 0663 5a53 8a5a a6cb 612c     .ay.Z..cZS.Z..a,
   17ba5:	005a b635 5aa7 6c5a b735 5a55 855a b832     .Z.5Z.lZ.5ZU.Z.2
   17bb5:	6146 035a 4007 5a43 0761 2c00 5aa0 225a     aF.Z@.ZC.a,.Z."Z
   17bc5:	b026 5aa1 e65a b125 5ab2 125a 4506 5aa2     .&Z..Z.%Z..ZE.Z.
   17bd5:	435a b232 5ab4 3261 4603 5aa1 c15a b212     CZ.2Z.2aF.Z..Z..
   17be5:	635a a19d 5ab4 1263 5aa1 7c61 4e04 5aa1     cZ..Z..cZ.|aN.Z.
   17bf5:	5d63 5aa1 8a5a b122 635a a15a 635a a12b     ]cZ..Z."cZ.ZcZ.+
   17c05:	635a a1fd 5ab1 2163 5aa1 d461 4f04 5ab0     cZ..Z.!cZ..aO.Z.
   17c15:	0663 635a b101 5a4b 065a b329 6188 155a     .ccZ..ZK.Z.)a..Z
   17c25:	4006 5a43 065a b026 5a41 805a a166 5ab1     @.ZC.Z.&ZA.Z.fZ.
   17c35:	325a b309 635a a137 635a a10a 635a a1e0     2Z..cZ.7cZ..cZ..
   17c45:	5ab1 3161 4f04 5aa1 bc63 5aa1 9863 5ab1     Z.1aO.Z..cZ..cZ.
   17c55:	115a 41a2 5aa1 e65a b125 5aa2 8a5a b232     .ZA.Z..Z.%Z..Z.2
   17c65:	5ab4 2e63 5aa1 c163 5aa1 9d5a b40e 635a     Z..cZ..cZ..Z..cZ
   17c75:	b006 5aa1 7c61 4e04 5aa1 5d63 5aa1 8a5a     ..Z.|aN.Z.]cZ..Z
   17c85:	b122 6146 035a a15a 612c 005a b329 6146     ."aF.Z.Za,.Z.)aF
   17c95:	035a a12b 635a a1fd 5ab1 2163 5aa1 d461     .Z.+cZ..Z.!cZ..a
   17ca5:	330b 5a40 045a 4304 5aa0 985a b029 5ab1     3.Z@.ZC.Z..Z.)Z.
   17cb5:	0161 2c00 5a41 805a a166 5ab1 325a b309     .a,.ZA.Z.fZ.2Z..
   17cc5:	6146 035a a137 635a a10a 635a a1e0 5ab1     aF.Z.7cZ..cZ..Z.
   17cd5:	3161 4e04 5aa1 bc63 5aa1 9863 5ab1 1161     1aN.Z..cZ..cZ..a
   17ce5:	8915 5a41 a25a a1e6 5ab1 255a b212 5a45     ..ZA.Z..Z.%Z..ZE
   17cf5:	075a a243 5ab2 325a b329 5ab4 2e63 5aa1     .Z.CZ.2Z.)Z..cZ.
   17d05:	c15a b212 635a a19d 5ab4 0e63 5aa1 7c61     .Z..cZ..Z..cZ.|a
   17d15:	4e04 5aa1 5d63 5aa1 8a5a b122 635a a15a     N.Z.]cZ..Z."cZ.Z
   17d25:	5ab3 0963 5aa1 2b63 5aa1 fd5a b121 635a     Z..cZ.+cZ..Z.!cZ
   17d35:	a1d4 614f 045a b009 6363 5a40 065a 4306     ..aO.Z..ccZ@.ZC.
   17d45:	5aa0 815a b029 5ab1 015a 4180 5aa1 665a     Z..Z.)Z..ZA.Z.fZ
   17d55:	b132 635a a137 6145 035a a10a 635a a1e0     .2cZ.7aE.Z..cZ..
   17d65:	5ab1 3161 4f04 5aa1 bc63 5aa1 9863 5ab1     Z.1aO.Z..cZ..cZ.
   17d75:	1161 2c00 5ab3 2961 ea11 5ab0 0963 5a40     .a,.Z.)a..Z..cZ@
   17d85:	075a 4307 5aa0 665a b026 5a41 a25a a1e6     .ZC.Z.fZ.&ZA.Z..
   17d95:	5ab1 255a 4506 612d 005a a28a 5ab2 325a     Z.%ZE.a-.Z..Z.2Z
   17da5:	b309 5ab3 295a b42e 6145 035a a1c1 635a     ..Z.)Z..aE.Z..cZ
   17db5:	a19d 5ab4 0e63 5aa1 7c61 4f04 5ab0 065a     ..Z..cZ.|aO.Z..Z
   17dc5:	a15d 635a a18a 5ab1 2263 5a40 065a 4306     .]cZ..Z."cZ@.ZC.
   17dd5:	5aa0 8a5a b026 5aa1 5a5a b309 635a a12b     Z..Z.&Z.ZZ..cZ.+
   17de5:	635a a1fd 5ab1 2163 5aa1 d461 320b 5ab1     cZ..Z.!cZ..a2.Z.
   17df5:	015a b329 6156 0a5a b006 6133 0b5a b026     .Z.)aV.Z..a3.Z.&
   17e05:	5ab3 0961 5c15 5ab0 0661 2c00 5aa0 225a     Z..a\.Z..a,.Z."Z
   17e15:	b026 5aa1 e65a b125 5ab2 125a 4504 5aa2     .&Z..Z.%Z..ZE.Z.
   17e25:	435a b232 5ab4 3261 4603 5aa1 c161 2c00     CZ.2Z.2aF.Z..a,.
   17e35:	5ab2 1261 4603 5aa1 9d61 4f04 5aa1 7c5a     Z..aF.Z..aO.Z.|Z
   17e45:	b412 635a a15d 635a a18a 5ab1 2263 5aa1     ..cZ.]cZ..Z."cZ.
   17e55:	5a63 5aa1 2b63 5aa1 fd5a b121 614e 045a     ZcZ.+cZ..Z.!aN.Z
   17e65:	a1d4 6363 5ab0 0663 5ab1 015a b329 6189     ..ccZ..cZ..Z.)a.
   17e75:	155a 4008 5a43 085a b026 5a41 805a a166     .Z@.ZC.Z.&ZA.Z.f
   17e85:	5ab1 325a b309 5ab4 2e63 5aa1 375a b40e     Z.2Z..Z..cZ.7Z..
   17e95:	635a a10a 614e 045a a1e0 5ab1 3163 5aa1     cZ..aN.Z..Z.1cZ.
   17ea5:	bc63 5aa1 9863 5ab1 115a 41a2 5aa1 e65a     .cZ..cZ..ZA.Z..Z
   17eb5:	b125 5a45 075a a28a 5ab2 325a b42e 635a     .%ZE.Z..Z.2Z..cZ
   17ec5:	a1c1 5ab4 0e63 5aa1 9d61 4f04 5ab0 065a     ..Z..cZ..aO.Z..Z
   17ed5:	a17c 635a a15d 635a a18a 5ab1 2261 4603     .|cZ.]cZ..Z."aF.
   17ee5:	5aa1 5a61 2c00 5ab3 2961 4603 5aa1 2b63     Z.Za,.Z.)aF.Z.+c
   17ef5:	5aa1 fd5a b121 614e 045a a1d4 6156 0a5a     Z..Z.!aN.Z..aV.Z
   17f05:	4003 5a43 035a a098 5ab0 2961 2c00 5ab1     @.ZC.Z..Z.)a,.Z.
   17f15:	015a 4180 5aa1 665a b132 5ab3 095a b42e     .ZA.Z.fZ.2Z..Z..
   17f25:	6146 035a a137 5ab4 0e63 5aa1 0a61 4f04     aF.Z.7Z..cZ..aO.
   17f35:	5aa1 e05a b131 635a a1bc 635a a198 635a     Z..Z.1cZ..cZ..cZ
   17f45:	b111 6188 155a 41a2 5aa1 e65a b125 5ab2     ..a..ZA.Z..Z.%Z.
   17f55:	125a 4506 5aa2 435a b232 5ab3 295a b42e     .ZE.Z.CZ.2Z.)Z..
   17f65:	635a a1c1 5ab2 125a b40e 635a a19d 614f     cZ..Z..Z..cZ..aO
   17f75:	045a a17c 635a b009 5aa1 5d63 5aa1 8a5a     .Z.|cZ..Z.]cZ..Z
   17f85:	b122 635a 4005 5a43 055a a081 5ab0 295a     ."cZ@.ZC.Z..Z.)Z
   17f95:	a15a 5ab3 095a b42e 635a a12b 5ab4 0e63     .ZZ..Z..cZ.+Z..c
   17fa5:	5aa1 fd5a b121 614e 045a a1d4 6156 0a5a     Z..Z.!aN.Z..aV.Z
   17fb5:	b101 5a41 805a a166 5ab1 3263 5aa1 3761     ..ZA.Z.fZ.2cZ.7a
   17fc5:	4603 5aa1 0a61 4f04 5ab0 0961 2c00 5aa1     F.Z..aO.Z..a,.Z.
   17fd5:	e05a b131 6146 035a a1bc 635a a198 635a     .Z.1aF.Z..cZ..cZ
   17fe5:	b111 612c 005a a166 5ab1 325a b329 5ab4     ..a,.Z.fZ.2Z.)Z.
   17ff5:	2e61 4603 5aa1 375a b40e 635a a10a 614e     .aF.Z.7Z..cZ..aN
   18005:	045a a1e0 5ab1 3163 5aa1 bc63 5aa1 9863     .Z..Z.1cZ..cZ..c
   18015:	5ab1 115a 41a2 5aa1 e65a b125 5aa2 8a5a     Z..ZA.Z..Z.%Z..Z
   18025:	b232 612c 005a b309 5ab3 295a b42e 6146     .2a,.Z..Z.)Z..aF
   18035:	035a a1c1 635a a19d 5ab4 0e61 4f04 5aa1     .Z..cZ..Z..aO.Z.
   18045:	7c63 5aa1 5d63 5aa1 8a5a b122 635a a15a     |cZ.]cZ..Z."cZ.Z
   18055:	5ab3 0963 5aa1 2b63 5aa1 fd5a b121 614e     Z..cZ.+cZ..Z.!aN
   18065:	045a a1d4 6156 0a5a b101 5ab4 3263 5ab6     .Z..aV.Z..Z.2cZ.
   18075:	1563 5ab4 125a b715 5ab8 1261 a50e 5ab3     .cZ..Z..Z..a..Z.
   18085:	2961 5c15 5a40 075a 4307 612c 005a a022     )a\.Z@.ZC.a,.Z."
   18095:	5ab0 265a a1e6 5ab1 255a b212 5a45 025a     Z.&Z..Z.%Z..ZE.Z
   180a5:	a243 5ab2 325a b309 5ab4 2e5a 5391 5aa6     .CZ.2Z..Z..ZS.Z.
   180b5:	985a b635 5aa7 8a5a b732 5a55 8761 2c00     .Z.5Z..Z.2ZU.a,.
   180c5:	5ab8 3261 1a03 5aa1 c161 2c00 5ab2 1261     Z.2a..Z..a,.Z..a
   180d5:	4603 5aa1 9d61 4f04 5aa1 7c5a b40e 635a     F.Z..aO.Z.|Z..cZ
   180e5:	a15d 635a a18a 5ab1 2263 5aa1 5a63 5aa1     .]cZ..Z."cZ.ZcZ.
   180f5:	2b63 5aa1 fd5a b121 614e 045a a1d4 635a     +cZ..Z.!aN.Z..cZ
   18105:	b006 6363 5ab1 015a 4b05 5ab3 2961 8915     ..ccZ..ZK.Z.)a..
   18115:	5ab0 265a 4180 5aa1 665a b132 5ab3 0963     Z.&ZA.Z.fZ.2Z..c
   18125:	5aa1 3763 5aa1 0a61 4e04 5aa1 e05a b131     Z.7cZ..aN.Z..Z.1
   18135:	635a a1bc 635a a198 635a b111 5a41 a25a     cZ..cZ..cZ..ZA.Z
   18145:	a1e6 5ab1 255a 4506 5aa2 8a5a b232 5ab4     ..Z.%ZE.Z..Z.2Z.
   18155:	2e63 5aa1 c163 5ab0 065a a19d 5ab4 0e61     .cZ..cZ..Z..Z..a
   18165:	4f04 5aa1 7c63 5aa1 5d63 5aa1 8a5a b122     O.Z.|cZ.]cZ..Z."
   18175:	6145 035a a15a 612d 005a b329 6145 035a     aE.Z.Za-.Z.)aE.Z
   18185:	a12b 614f 045a a1fd 5ab1 2163 5aa1 d461     .+aO.Z..Z.!cZ..a
   18195:	560a 5a40 055a 4305 5aa0 985a b029 612c     V.Z@.ZC.Z..Z.)a,
   181a5:	005a b101 5a41 805a a166 5ab1 325a b309     .Z..ZA.Z.fZ.2Z..
   181b5:	6146 035a a137 614e 045a a10a 635a a1e0     aF.Z.7aN.Z..cZ..
   181c5:	5ab1 3163 5aa1 bc63 5aa1 9863 5ab1 1161     Z.1cZ..cZ..cZ..a
   181d5:	8915 5a41 a25a a1e6 5ab1 255a b212 5aa2     ..ZA.Z..Z.%Z..Z.
   181e5:	435a b232 5ab3 295a b42e 635a a1c1 5ab2     CZ.2Z.)Z..cZ..Z.
   181f5:	1261 4e04 5aa1 9d5a b40e 635a a17c 635a     .aN.Z..Z..cZ.|cZ
   18205:	a15d 635a a18a 5ab1 2263 5aa1 5a5a b309     .]cZ..Z."cZ.ZZ..
   18215:	635a a12b 614f 045a a1fd 5ab1 2163 5ab0     cZ.+aO.Z..Z.!cZ.
   18225:	095a a1d4 6156 0a5a 4007 5a43 075a a081     .Z..aV.Z@.ZC.Z..
   18235:	5ab0 295a b101 5a41 805a a166 5ab1 3263     Z.)Z..ZA.Z.fZ.2c
   18245:	5aa1 3761 2204 5aa1 0a63 5aa1 e05a b131     Z.7a".Z..cZ..Z.1
   18255:	635a a1bc 635a a198 635a b111 612c 005a     cZ..cZ..cZ..a,.Z
   18265:	b329 5ab4 3261 9507 5ab4 1263 635a b009     .)Z.2a..Z..ccZ..
   18275:	6363 5a40 095a 4309 5aa0 665a b026 5a41     ccZ@.ZC.Z.fZ.&ZA
   18285:	a25a a1e6 5ab1 2561 2c00 5aa2 8a5a b232     .Z..Z.%a,.Z..Z.2
   18295:	5ab3 095a b329 5ab4 2e61 4603 5aa1 c161     Z..Z.)Z..aF.Z..a
   182a5:	4e04 5aa1 9d5a b40e 635a a17c 635a b006     N.Z..Z..cZ.|cZ..
   182b5:	5aa1 5d63 5aa1 8a5a b122 635a 4007 5a43     Z.]cZ..Z."cZ@.ZC
   182c5:	075a a08a 5ab0 265a a15a 5ab3 0963 5aa1     .Z..Z.&Z.ZZ..cZ.
   182d5:	2b61 4f04 5aa1 fd5a b121 635a a1d4 6156     +aO.Z..Z.!cZ..aV
   182e5:	0a5a b101 5ab3 295a b432 635a b412 61c0     .Z..Z.)Z.2cZ..a.
   182f5:	075a b006 6156 0a5a b026 5ab3 0961 a50e     .Z..aV.Z.&Z..a..
   18305:	5ab0 0661 b806 5a40 095a 4309 612c 005a     Z..a..Z@.ZC.a,.Z
   18315:	a022 5ab0 265a a1e6 5ab1 255a b212 5aa2     ."Z.&Z..Z.%Z..Z.
   18325:	435a b232 5ab4 2e61 4603 5aa1 c161 2c00     CZ.2Z..aF.Z..a,.
   18335:	5ab2 1261 2204 5aa1 9d5a b40e 635a a17c     Z..a".Z..Z..cZ.|
   18345:	635a a15d 635a a18a 5ab1 2263 5aa1 5a63     cZ.]cZ..Z."cZ.Zc
   18355:	5aa1 2b61 4f04 5aa1 fd5a b121 635a a1d4     Z.+aO.Z..Z.!cZ..
   18365:	6156 0a5a b006 5ab1 015a b329 6188 155a     aV.Z..Z..Z.)a..Z
   18375:	4008 5a43 085a b026 5a41 805a a166 5ab1     @.ZC.Z.&ZA.Z.fZ.
   18385:	325a b309 5ab4 2e63 5aa1 375a b40e 614f     2Z..Z..cZ.7Z..aO
   18395:	045a a10a 635a a1e0 5ab1 3163 5aa1 bc63     .Z..cZ..Z.1cZ..c
   183a5:	5aa1 9863 5ab1 115a 41a2 5aa1 e65a b125     Z..cZ..ZA.Z..Z.%
   183b5:	5a45 075a a28a 5ab2 325a b42e 635a a1c1     ZE.Z..Z.2Z..cZ..
   183c5:	614e 045a a19d 5ab4 0e63 5aa1 7c63 5ab0     aN.Z..Z..cZ.|cZ.
   183d5:	065a a15d 635a a18a 5ab1 2263 5aa1 5a5a     .Z.]cZ..Z."cZ.ZZ
   183e5:	b329 6146 035a a12b 614f 045a a1fd 5ab1     .)aF.Z.+aO.Z..Z.
   183f5:	2163 5aa1 d461 560a 5a40 065a 4306 5aa0     !cZ..aV.Z@.ZC.Z.
   18405:	985a b029 612c 005a b101 5a41 805a a166     .Z.)a,.Z..ZA.Z.f
   18415:	5ab1 325a b309 5aa4 6c5a b431 6146 035a     Z.2Z..Z.lZ.1aF.Z
   18425:	a137 614e 045a a10a 5ab4 1163 5aa1 e05a     .7aN.Z..Z..cZ..Z
   18435:	b131 635a a1bc 635a a198 635a b111 6189     .1cZ..cZ..cZ..a.
   18445:	155a 41a2 5aa1 e65a b125 5ab2 125a 4504     .ZA.Z..Z.%Z..ZE.
   18455:	5aa2 435a b232 5ab3 295a a422 612c 005a     Z.CZ.2Z.)Z."a,.Z
   18465:	b42e 6146 035a a1c1 5ab2 1261 4e04 5aa1     ..aF.Z..Z..aN.Z.
   18475:	9d5a b40e 635a a17c 635a a15d 635a a18a     .Z..cZ.|cZ.]cZ..
   18485:	5ab1 2263 5aa1 5a5a b309 5aa4 985a b431     Z."cZ.ZZ..Z..Z.1
   18495:	635a a12b 614f 045a a1fd 5ab1 215a b411     cZ.+aO.Z..Z.!Z..
   184a5:	635a a1d4 635a b009 6363 5aa0 815a b029     cZ..cZ..ccZ..Z.)
   184b5:	5ab1 015a 4180 5aa1 665a b132 635a a137     Z..ZA.Z.fZ.2cZ.7
   184c5:	614e 045a a10a 6146 035a a1e0 612c 005a     aN.Z..aF.Z..a,.Z
   184d5:	b131 6146 035a a1bc 635a a198 635a b111     .1aF.Z..cZ..cZ..
   184e5:	612c 005a b329 5aa4 6c5a b431 6123 045a     a,.Z.)Z.lZ.1a#.Z
   184f5:	b411 613a 115a b009 5a40 085a 4308 5aa0     ..a:.Z..Z@.ZC.Z.
   18505:	665a b026 5a41 a261 2c00 5aa1 e65a b125     fZ.&ZA.a,.Z..Z.%
   18515:	5a45 065a a28a 5ab2 325a b309 5ab3 295a     ZE.Z..Z.2Z..Z.)Z
   18525:	a48a 5ab4 2e61 2204 5aa1 c163 5aa1 9d5a     ..Z..a".Z..cZ..Z
   18535:	b40e 635a a17c 635a a15d 635a b006 5aa1     ..cZ.|cZ.]cZ..Z.
   18545:	8a5a b122 635a 4006 5a43 065a a08a 5ab0     .Z."cZ@.ZC.Z..Z.
   18555:	265a a15a 5ab3 0961 4f04 5aa1 2b63 5aa1     &Z.ZZ..aO.Z.+cZ.
   18565:	fd5a b121 635a a1d4 6156 0a5a b101 5ab3     .Z.!cZ..aV.Z..Z.
   18575:	295a a422 5ab4 3261 c007 5ab4 1263 5ab0     )Z."Z.2a..Z..cZ.
   18585:	0663 5ab7 1263 5ab6 155a b812 635a b026     .cZ..cZ..Z..cZ.&
   18595:	5ab3 0961 a50e 5ab0 0661 4503 5a53 8a61     Z..a..Z..aE.ZS.a
   185a5:	2d00 5aa6 cb5a b635 5aa7 6c5a b735 5a55     -.Z..Z.5Z.lZ.5ZU
   185b5:	855a b832 6145 035a 4007 612d 005a 4307     .Z.2aE.Z@.a-.ZC.
   185c5:	5aa0 225a b026 5aa1 e65a b125 5ab2 125a     Z."Z.&Z..Z.%Z..Z
   185d5:	a243 5ab2 325a b42e 6122 045a a1c1 612c     .CZ.2Z..a".Z..a,
   185e5:	005a b212 6146 035a a19d 635a a17c 635a     .Z..aF.Z..cZ.|cZ
   185f5:	a15d 5ab4 0e63 5aa1 8a5a b122 635a a15a     .]Z..cZ..Z."cZ.Z
   18605:	614e 045a a12b 635a a1fd 5ab1 2163 5aa1     aN.Z.+cZ..Z.!cZ.
   18615:	d463 5ab0 0663 635a b101 5a4b 065a b329     .cZ..ccZ..ZK.Z.)
   18625:	6189 155a 4006 5a43 065a b026 5a41 805a     a..Z@.ZC.Z.&ZA.Z
   18635:	a166 5ab1 325a b309 614e 045a a137 635a     .fZ.2Z..aN.Z.7cZ
   18645:	a10a 635a a1e0 5ab1 3163 5aa1 bc63 5aa1     ..cZ..Z.1cZ..cZ.
   18655:	9863 5ab1 115a 41a2 5aa1 e65a b125 5aa2     .cZ..ZA.Z..Z.%Z.
   18665:	8a5a b232 5ab4 2e61 4f04 5aa1 c163 5aa1     .Z.2Z..aO.Z..cZ.
   18675:	9d63 5ab0 065a a17c 5ab4 0e63 5aa1 5d63     .cZ..Z.|Z..cZ.]c
   18685:	5aa1 8a5a b122 635a a15a 5ab3 2961 2204     Z..Z."cZ.ZZ.)a".
   18695:	5aa1 2b63 5aa1 fd5a b121 635a a1d4 6156     Z.+cZ..Z.!cZ..aV
   186a5:	0a5a 4004 5a43 045a a098 5ab0 2961 2c00     .Z@.ZC.Z..Z.)a,.
   186b5:	5ab1 015a 4180 5aa1 665a b132 5ab3 0961     Z..ZA.Z.fZ.2Z..a
   186c5:	2304 5aa1 3763 5aa1 0a63 5aa1 e05a b131     #.Z.7cZ..cZ..Z.1
   186d5:	635a a1bc 635a a198 635a b111 6188 155a     cZ..cZ..cZ..a..Z
   186e5:	41a2 5aa1 e65a b125 5ab2 125a a243 5ab2     A.Z..Z.%Z..Z.CZ.
   186f5:	325a b329 612c 005a b42e 6123 045a a1c1     2Z.)a,.Z..a#.Z..
   18705:	5ab2 1263 5aa1 9d63 5aa1 7c63 5aa1 5d5a     Z..cZ..cZ.|cZ.]Z
   18715:	b40e 635a a18a 5ab1 2263 5aa1 5a5a b309     ..cZ..Z."cZ.ZZ..
   18725:	614e 045a a12b 635a a1fd 5ab1 2163 5aa1     aN.Z.+cZ..Z.!cZ.
   18735:	d463 5ab0 0963 635a 4006 5a43 065a a081     .cZ..ccZ@.ZC.Z..
   18745:	5ab0 295a b101 5a41 805a a166 5ab1 325a     Z.)Z..ZA.Z.fZ.2Z
   18755:	b432 614f 045a a137 5ab4 1263 5aa1 0a61     .2aO.Z.7Z..cZ..a
   18765:	4603 5aa1 e061 2c00 5ab1 3161 4603 5aa1     F.Z..a,.Z.1aF.Z.
   18775:	bc63 5aa1 9863 5ab1 1161 2c00 5ab3 2961     .cZ..cZ..a,.Z.)a
   18785:	ea11 5ab0 0963 5a40 075a 4307 5aa0 665a     ..Z..cZ@.ZC.Z.fZ
   18795:	b026 5a41 a25a a1e6 5ab1 2561 2c00 5a45     .&ZA.Z..Z.%a,.ZE
   187a5:	095a a28a 5ab2 325a b309 5ab3 295a b42e     .Z..Z.2Z..Z.)Z..
   187b5:	6123 045a a1c1 635a a19d 635a a17c 5ab4     a#.Z..cZ..cZ.|Z.
   187c5:	0e63 5ab0 065a a15d 635a a18a 5ab1 2263     .cZ..Z.]cZ..Z."c
   187d5:	5a40 065a 4306 5aa0 8a5a b026 5aa1 5a5a     Z@.ZC.Z..Z.&Z.ZZ
   187e5:	b309 614e 045a a12b 635a a1fd 5ab1 2163     ..aN.Z.+cZ..Z.!c
   187f5:	5aa1 d461 560a 5ab1 015a b329 6133 0b5a     Z..aV.Z..Z.)a3.Z
   18805:	b006 6156 0a5a b026 5ab3 0961 3916 5ab0     ..aV.Z.&Z..a9.Z.
   18815:	0661 2c00 5aa0 225a b026 5aa1 e65a b125     .a,.Z."Z.&Z..Z.%
   18825:	5ab2 125a 4506 5aa2 435a b232 5ab4 2e61     Z..ZE.Z.CZ.2Z..a
   18835:	4603 5aa1 c161 2c00 5ab2 1261 4603 5aa1     F.Z..a,.Z..aF.Z.
   18845:	9d63 5aa1 7c61 2c00 5ab4 0e61 4603 5aa1     .cZ.|a,.Z..aF.Z.
   18855:	5d63 5aa1 8a5a b122 614e 045a a15a 635a     ]cZ..Z."aN.Z.ZcZ
   18865:	a12b 635a a1fd 5ab1 2163 5aa1 d463 635a     .+cZ..Z.!cZ..ccZ
   18875:	b006 614f 045a b101 5ab3 2961 8815 5a40     ..aO.Z..Z.)a..Z@
   18885:	085a 4308 5ab0 265a 4180 5aa1 665a b132     .ZC.Z.&ZA.Z.fZ.2
   18895:	5ab3 0963 5aa1 3763 5aa1 0a63 5aa1 e05a     Z..cZ.7cZ..cZ..Z
   188a5:	b131 635a a1bc 635a a198 614f 045a b111     .1cZ..cZ..aO.Z..
   188b5:	5a41 a25a a1e6 5ab1 255a a28a 5ab2 325a     ZA.Z..Z.%Z..Z.2Z
   188c5:	b42e 635a a1c1 635a a19d 635a b006 5aa1     ..cZ..cZ..cZ..Z.
   188d5:	7c63 5aa1 5d5a b40e 635a a18a 5ab1 2261     |cZ.]Z..cZ..Z."a
   188e5:	4e04 5aa1 5a5a b329 635a a12b 6146 035a     N.Z.ZZ.)cZ.+aF.Z
   188f5:	a1fd 5ab1 2163 5aa1 d461 330b 5a40 035a     ..Z.!cZ..a3.Z@.Z
   18905:	4303 5aa0 985a b029 612c 005a b101 5a41     C.Z..Z.)a,.Z..ZA
   18915:	805a a166 5ab1 325a b309 6146 035a a137     .Z.fZ.2Z..aF.Z.7
   18925:	635a a10a 635a a1e0 5ab1 3163 5aa1 bc63     cZ..cZ..Z.1cZ..c
   18935:	5aa1 9861 4e04 5ab1 115a b432 635a b412     Z..aN.Z..Z.2cZ..
   18945:	6117 125a 41a2 5aa1 e65a b125 5ab2 125a     a..ZA.Z..Z.%Z..Z
   18955:	450a 5aa2 435a b232 5ab3 2961 2c00 5ab4     E.Z.CZ.2Z.)a,.Z.
   18965:	2e61 4603 5aa1 c15a b212 635a a19d 635a     .aF.Z..Z..cZ..cZ
   18975:	a17c 5ab4 0e63 5ab0 095a a15d 635a a18a     .|Z..cZ..Z.]cZ..
   18985:	5ab1 2261 4e04 5a40 055a 4305 5aa0 815a     Z."aN.Z@.ZC.Z..Z
   18995:	b029 5aa1 5a5a b309 635a a12b 635a a1fd     .)Z.ZZ..cZ.+cZ..
   189a5:	5ab1 2163 5aa1 d461 330b 5ab1 015a 4180     Z.!cZ..a3.Z..ZA.
   189b5:	5aa1 665a b132 5aa4 6c5a b431 635a a137     Z.fZ.2Z.lZ.1cZ.7
   189c5:	635a a10a 635a b009 5aa1 e05a b131 5ab4     cZ..cZ..Z..Z.1Z.
   189d5:	1161 4503 5aa1 bc63 5aa1 9861 4f04 5ab1     .aE.Z..cZ..aO.Z.
   189e5:	1161 2c00 5aa1 665a b132 5ab3 2961 4603     .a,.Z.fZ.2Z.)aF.
   189f5:	5aa1 3763 5aa1 0a63 5aa1 e05a b131 635a     Z.7cZ..cZ..Z.1cZ
   18a05:	a1bc 635a a198 614e 045a b111 5a41 a25a     ..cZ..aN.Z..ZA.Z
   18a15:	a1e6 5ab1 255a 4509 612d 005a b232 5ab3     ..Z.%ZE.a-.Z.2Z.
   18a25:	095a b329 5aa4 225a b42e 6145 035a a1c1     .Z.)Z."Z..aE.Z..
   18a35:	5ab2 1263 5aa1 9d5a b40e 635a a17c 635a     Z..cZ..Z..cZ.|cZ
   18a45:	a15d 635a a18a 5ab1 2261 4f04 5aa1 5a5a     .]cZ..Z."aO.Z.ZZ
   18a55:	b309 5aa4 985a b431 635a a12b 5ab4 1163     ..Z..Z.1cZ.+Z..c
   18a65:	5aa1 fd5a b121 635a a1d4 6132 0b5a b101     Z..Z.!cZ..a2.Z..
   18a75:	5aa4 225a b42e 635a b40e 5ab6 1563 5ab7     Z."Z..cZ..Z..cZ.
   18a85:	155a b812 61a5 0e5a b329 615c 155a 4007     .Z..a..Z.)a\.Z@.
   18a95:	612c 005a 4307 5aa0 225a b026 5aa1 e65a     a,.ZC.Z."Z.&Z..Z
   18aa5:	b125 5a45 075a b232 5ab3 095a c30e 5ae8     .%ZE.Z.2Z..Z..Z.
   18ab5:	035a 4809 5a68 b75a 8865 5a28 e15a 4b00     .ZH.Zh.Z.eZ(.ZK.
   18ac5:	5a6b 665a 8b35 5a2b 2161 2d00 5aa3 985a     ZkfZ.5Z+!a-.Z..Z
   18ad5:	b335 5ab4 2e5a c50c 5aea 025a 4a0f 5a6a     .5Z..Z..Z..ZJ.Zj
   18ae5:	f25a 8a03 5a2a 645a 6df1 5a8d 665a 2d29     .Z..Z*dZm.Z.fZ-)
   18af5:	5aa5 b15a b531 5a53 915a a698 5ab6 3561     Z..Z.1ZS.Z..Z.5a
   18b05:	2c00 5aa7 8a5a b732 5a55 875a b832 627d     ,.Z..Z.2ZU.Z.2b}
   18b15:	5aa1 c161 2c00 5ab2 125a a5ab 6146 035a     Z..a,.Z..Z..aF.Z
   18b25:	a19d 612c 005a a397 5aa5 a561 4603 5aa1     ..a,.Z..Z..aF.Z.
   18b35:	7c5a a396 612c 005a b40e 5aa5 9f61 4603     |Z..a,.Z..Z..aF.
   18b45:	5aa1 5d5a a598 635a a18a 5ab1 2261 4f04     Z.]Z..cZ..Z."aO.
   18b55:	5aa1 5a63 5aa1 2b63 5aa1 fd5a b121 635a     Z.ZcZ.+cZ..Z.!cZ
   18b65:	a1d4 635a b006 61c0 075a b101 6189 155a     ..cZ..a..Z..a..Z
   18b75:	b026 5a41 805a a166 5ab1 3263 5aa1 3763     .&ZA.Z.fZ.2cZ.7c
   18b85:	5aa1 0a63 5aa1 e05a b131 635a a1bc 635a     Z..cZ..Z.1cZ..cZ
   18b95:	a198 614e 045a b111 5a41 a25a a1e6 5ab1     ..aN.Z..ZA.Z..Z.
   18ba5:	255a 450d 5aa2 8a5a b232 5ab4 2e63 5aa1     %ZE.Z..Z.2Z..cZ.
   18bb5:	c163 5ab0 065a a19d 5ab4 0e63 5aa1 7c63     .cZ..Z..Z..cZ.|c
   18bc5:	5aa1 5d63 5aa1 8a5a b122 614f 045a a15a     Z.]cZ..Z."aO.Z.Z
   18bd5:	635a a12b 6146 035a a1fd 612c 005a b121     cZ.+aF.Z..a,.Z.!
   18be5:	6146 035a a1d4 6132 0b5a 4005 5a43 055a     aF.Z..a2.Z@.ZC.Z
   18bf5:	a098 5ab0 2961 2c00 5ab1 015a 4180 5aa1     ..Z.)a,.Z..ZA.Z.
   18c05:	665a b132 6146 035a a137 635a a10a 635a     fZ.2aF.Z.7cZ..cZ
   18c15:	a1e0 5ab1 3163 5aa1 bc61 4f04 5aa1 9863     ..Z.1cZ..aO.Z..c
   18c25:	5ab1 1161 8815 5a41 a25a a1e6 5ab1 255a     Z..a..ZA.Z..Z.%Z
   18c35:	b212 5a45 075a a243 5ab2 325a b42e 635a     ..ZE.Z.CZ.2Z..cZ
   18c45:	a1c1 5ab2 1263 5aa1 9d5a b40e 635a a17c     ..Z..cZ..Z..cZ.|
   18c55:	635a a15d 614f 045a a18a 5ab1 2263 5aa1     cZ.]aO.Z..Z."cZ.
   18c65:	5a63 5aa1 2b63 5aa1 fd5a b121 635a b009     ZcZ.+cZ..Z.!cZ..
   18c75:	5aa1 d461 320b 5a40 075a 4307 5aa0 815a     Z..a2.Z@.ZC.Z..Z
   18c85:	b029 5ab1 015a 4180 5aa1 665a b132 635a     .)Z..ZA.Z.fZ.2cZ
   18c95:	a137 635a a10a 635a a1e0 5ab1 3161 4603     .7cZ..cZ..Z.1aF.
   18ca5:	5aa1 bc61 4f04 5aa1 9863 5ab1 1161 2c00     Z..aO.Z..cZ..a,.
   18cb5:	5ab4 3261 b806 5ab4 1263 635a b009 5ab3     Z.2a..Z..ccZ..Z.
   18cc5:	1561 2c00 5ab5 1161 9407 5a40 095a 4309     .a,.Z..a..Z@.ZC.
   18cd5:	5aa0 665a b026 5a41 a25a a1e6 612c 005a     Z.fZ.&ZA.Z..a,.Z
   18ce5:	b125 5a45 045a a28a 5ab2 325a 480b 5aa3     .%ZE.Z..Z.2ZH.Z.
   18cf5:	6c5a b335 5ab4 2e5a 4a11 5a4d 025a a581     lZ.5Z..ZJ.ZM.Z..
   18d05:	5ab5 3161 4603 5aa1 c15a a57c 635a a19d     Z.1aF.Z..Z.|cZ..
   18d15:	5aa3 6b5a b40e 5aa5 7763 5aa1 7c5a a572     Z.kZ..Z.wcZ.|Z.r
   18d25:	635a b006 5aa1 5d5a a56c 614f 045a a18a     cZ..Z.]Z.laO.Z..
   18d35:	5ab1 2263 5a40 075a 4307 5aa0 8a5a b026     Z."cZ@.ZC.Z..Z.&
   18d45:	5aa1 5a63 5aa1 2b63 5aa1 fd5a b121 635a     Z.ZcZ.+cZ..Z.!cZ
   18d55:	a1d4 6132 0b5a b101 5ab4 3263 5ab4 1263     ..a2.Z..Z.2cZ..c
   18d65:	635a b006 6133 0b5a b026 6156 0a5a b315     cZ..a3.Z.&aV.Z..
   18d75:	5ab5 1163 5ab0 0661 9407 5a40 0961 2c00     Z..cZ..a..Z@.a,.
   18d85:	5a43 095a a022 5ab0 265a a1e6 5ab1 255a     ZC.Z."Z.&Z..Z.%Z
   18d95:	b212 5a45 075a a243 5ab2 325a 480a 5aa3     ..ZE.Z.CZ.2ZH.Z.
   18da5:	985a b335 5ab4 2e5a 4a10 5a4d 015a a5b1     .Z.5Z..ZJ.ZM.Z..
   18db5:	5ab5 3161 4603 5aa1 c161 2c00 5ab2 125a     Z.1aF.Z..a,.Z..Z
   18dc5:	a5ab 6146 035a a19d 612c 005a a397 5ab4     ..aF.Z..a,.Z..Z.
   18dd5:	0e5a a5a5 6146 035a a17c 5aa3 9661 2c00     .Z..aF.Z.|Z..a,.
   18de5:	5aa5 9f61 4603 5aa1 5d5a a598 614f 045a     Z..aF.Z.]Z..aO.Z
   18df5:	a18a 5ab1 2263 5aa1 5a63 5aa1 2b63 5aa1     ..Z."cZ.ZcZ.+cZ.
   18e05:	fd5a b121 635a a1d4 6132 0b5a b006 5ab1     .Z.!cZ..a2.Z..Z.
   18e15:	0161 8915 5a40 085a 4308 5ab0 265a 4180     .a..Z@.ZC.Z.&ZA.
   18e25:	5aa1 665a b132 5ab4 2e63 5aa1 375a b40e     Z.fZ.2Z..cZ.7Z..
   18e35:	635a a10a 635a a1e0 5ab1 3163 5aa1 bc61     cZ..cZ..Z.1cZ..a
   18e45:	4e04 5aa1 9863 5ab1 115a 41a2 5aa1 e65a     N.Z..cZ..ZA.Z..Z
   18e55:	b125 5a45 065a a28a 5ab2 325a b42e 635a     .%ZE.Z..Z.2Z..cZ
   18e65:	a1c1 635a a19d 5ab4 0e63 5aa1 7c63 5ab0     ..cZ..Z..cZ.|cZ.
   18e75:	065a a15d 614f 045a a18a 5ab1 2263 5aa1     .Z.]aO.Z..Z."cZ.
   18e85:	5a63 5aa1 2b61 4503 5aa1 fd61 2d00 5ab1     ZcZ.+aE.Z..a-.Z.
   18e95:	2161 4503 5aa1 d461 330b 5a40 065a 4306     !aE.Z..a3.Z@.ZC.
   18ea5:	5aa0 985a b029 612c 005a b101 5a41 805a     Z..Z.)a,.Z..ZA.Z
   18eb5:	a166 5ab1 325a a46c 5ab4 3161 4603 5aa1     .fZ.2Z.lZ.1aF.Z.
   18ec5:	3763 5aa1 0a5a b411 635a a1e0 5ab1 3163     7cZ..Z..cZ..Z.1c
   18ed5:	5aa1 bc61 4e04 5aa1 9863 5ab1 1161 8915     Z..aN.Z..cZ..a..
   18ee5:	5a41 a25a a1e6 5ab1 255a b212 5aa2 435a     ZA.Z..Z.%Z..Z.CZ
   18ef5:	b232 5aa4 225a b42e 635a a1c1 5ab2 1263     .2Z."Z..cZ..Z..c
   18f05:	5aa1 9d5a b40e 635a a17c 635a a15d 614e     Z..Z..cZ.|cZ.]aN
   18f15:	045a a18a 5ab1 2263 5aa1 5a5a a498 5ab4     .Z..Z."cZ.ZZ..Z.
   18f25:	3163 5aa1 2b63 5aa1 fd5a b121 5ab4 1163     1cZ.+cZ..Z.!Z..c
   18f35:	5aa1 d463 5ab0 0961 c107 5aa0 815a b029     Z..cZ..a..Z..Z.)
   18f45:	5ab1 015a 4180 5aa1 665a b132 635a a137     Z..ZA.Z.fZ.2cZ.7
   18f55:	635a a10a 635a a1e0 5ab1 3161 2204 5aa1     cZ..cZ..Z.1a".Z.
   18f65:	bc63 5aa1 9863 5ab1 1161 2c00 5aa4 6c5a     .cZ..cZ..a,.Z.lZ
   18f75:	b431 6146 035a b411 61a5 0e5a b315 5ab5     .1aF.Z..a..Z..Z.
   18f85:	1163 5ab0 095a 4008 5a43 085a a066 5ab0     .cZ..Z@.ZC.Z.fZ.
   18f95:	2661 2c00 5a41 a25a a1e6 5ab1 255a 4504     &a,.ZA.Z..Z.%ZE.
   18fa5:	5aa2 8a5a b232 5aa3 e65a b335 5aa4 8a5a     Z..Z.2Z..Z.5Z..Z
   18fb5:	b42e 5aa5 035a b532 6146 035a a1c1 5aa5     ..Z..Z.2aF.Z..Z.
   18fc5:	fc5a b531 635a a19d 5aa3 e55a b40e 5aa5     .Z.1cZ..Z..Z..Z.
   18fd5:	f563 5aa1 7c5a a3e4 5aa5 ee61 4e04 5aa1     .cZ.|Z..Z..aN.Z.
   18fe5:	5d5a a5e6 635a b006 5aa1 8a5a b122 635a     ]Z..cZ..Z..Z."cZ
   18ff5:	4006 5a43 065a a08a 5ab0 265a a15a 635a     @.ZC.Z..Z.&Z.ZcZ
   19005:	a12b 635a a1fd 5ab1 2163 5aa1 d461 330b     .+cZ..Z.!cZ..a3.
   19015:	5ab1 015a a422 5ab4 3263 635a b412 635a     Z..Z."Z.2ccZ..cZ
   19025:	b006 614e 045a b712 635a b615 5ab8 1263     ..aN.Z..cZ..Z..c
   19035:	5ab0 2661 a50e 5ab0 065a b315 5ab5 1163     Z.&a..Z..Z..Z..c
   19045:	5a53 8a5a a6cb 5ab6 355a a76c 5ab7 355a     ZS.Z..Z.5Z.lZ.5Z
   19055:	5585 5ab8 3263 5a40 075a 4307 5aa0 225a     U.Z.2cZ@.ZC.Z."Z
   19065:	b026 5aa1 e65a b125 5ab2 125a 4506 5aa2     .&Z..Z.%Z..ZE.Z.
   19075:	435a b232 5a48 0c5a a398 5ab3 355a b42e     CZ.2ZH.Z..Z.5Z..
   19085:	5a4a 125a 4d03 5aa5 b15a b531 6146 035a     ZJ.ZM.Z..Z.1aF.Z
   19095:	a1c1 612c 005a b212 5aa5 ab61 4603 5aa1     ..a,.Z..Z..aF.Z.
   190a5:	9d61 2c00 5aa3 975a a5a5 6146 035a a17c     .a,.Z..Z..aF.Z.|
   190b5:	612c 005a a396 5aa5 9f61 2204 5aa1 5d61     a,.Z..Z..a".Z.]a
   190c5:	2c00 5ab4 0e5a a598 6146 035a a18a 5ab1     ,.Z..Z..aF.Z..Z.
   190d5:	2263 5aa1 5a63 5aa1 2b63 5aa1 fd5a b121     "cZ.ZcZ.+cZ..Z.!
   190e5:	635a a1d4 614f 045a b006 6363 5ab1 0161     cZ..aO.Z..ccZ..a
   190f5:	8815 5a40 065a 4306 5ab0 265a 4180 5aa1     ..Z@.ZC.Z.&ZA.Z.
   19105:	665a b132 635a a137 635a a10a 635a a1e0     fZ.2cZ.7cZ..cZ..
   19115:	5ab1 3161 4f04 5aa1 bc63 5aa1 9863 5ab1     Z.1aO.Z..cZ..cZ.
   19125:	115a 41a2 5aa1 e65a b125 5aa2 8a5a b232     .ZA.Z..Z.%Z..Z.2
   19135:	5ab4 2e63 5aa1 c163 5aa1 9d63 5ab0 065a     Z..cZ..cZ..cZ..Z
   19145:	a17c 5ab4 0e61 4e04 5aa1 5d63 5aa1 8a5a     .|Z..aN.Z.]cZ..Z
   19155:	b122 635a a15a 635a a12b 635a a1fd 5ab1     ."cZ.ZcZ.+cZ..Z.
   19165:	2161 4603 5aa1 d461 330b 5a40 045a 4304     !aF.Z..a3.Z@.ZC.
   19175:	5aa0 9861 2c00 5ab0 295a b101 5a41 805a     Z..a,.Z.)Z..ZA.Z
   19185:	a166 5ab1 3261 4603 5aa1 3763 5aa1 0a63     .fZ.2aF.Z.7cZ..c
   19195:	5aa1 e05a b131 614e 045a a1bc 635a a198     Z..Z.1aN.Z..cZ..
   191a5:	635a b111 6189 155a 41a2 5aa1 e65a b125     cZ..a..ZA.Z..Z.%
   191b5:	5ab2 125a 4507 5aa2 435a b232 5ab4 2e63     Z..ZE.Z.CZ.2Z..c
   191c5:	5aa1 c15a b212 635a a19d 635a a17c 614e     Z..Z..cZ..cZ.|aN
   191d5:	045a a15d 5ab4 0e63 5aa1 8a5a b122 635a     .Z.]Z..cZ..Z."cZ
   191e5:	a15a 635a a12b 635a a1fd 5ab1 2163 5aa1     .ZcZ.+cZ..Z.!cZ.
   191f5:	d461 4f04 5ab0 0963 635a 4006 5a43 065a     .aO.Z..ccZ@.ZC.Z
   19205:	a081 5ab0 295a b101 5a41 805a a166 5ab1     ..Z.)Z..ZA.Z.fZ.
   19215:	325a b432 635a a137 5ab4 1263 5aa1 0a63     2Z.2cZ.7Z..cZ..c
   19225:	5aa1 e05a b131 614e 045a a1bc 6146 035a     Z..Z.1aN.Z..aF.Z
   19235:	a198 635a b111 6117 125a b009 635a 4007     ..cZ..a..Z..cZ@.
   19245:	5a43 075a a066 5ab0 265a 41a2 5aa1 e661     ZC.Z.fZ.&ZA.Z..a
   19255:	2c00 5ab1 255a 4506 5aa2 8a5a b232 5aa3     ,.Z.%ZE.Z..Z.2Z.
   19265:	005a b300 5aa3 225a b336 5ab4 2e5a a500     .Z..Z."Z.6Z..Z..
   19275:	5ab5 005a a543 5ab5 3261 4603 5aa1 c163     Z..Z.CZ.2aF.Z..c
   19285:	5aa1 9d5a a53b 635a a17c 5aa3 215a b40e     Z..Z.;cZ.|Z.!Z..
   19295:	5aa5 3361 4e04 5ab0 065a a15d 5aa3 205a     Z.3aN.Z..Z.]Z. Z
   192a5:	a52b 635a a18a 5ab1 225a a522 635a 4006     .+cZ..Z."Z."cZ@.
   192b5:	5a43 065a a08a 5ab0 265a a15a 635a a12b     ZC.Z..Z.&Z.ZcZ.+
   192c5:	635a a1fd 5ab1 2163 5aa1 d461 330b 5ab1     cZ..Z.!cZ..a3.Z.
   192d5:	0161 560a 5ab0 0661 320b 5ab0 2661 8915     .aV.Z..a2.Z.&a..
   192e5:	5ab0 065a a022 5ab0 265a a1e6 5ab1 255a     Z..Z."Z.&Z..Z.%Z
   192f5:	b212 5a45 045a a243 5ab2 325a b316 5aa3     ..ZE.Z.CZ.2Z..Z.
   19305:	665a b336 5ab4 2e61 2c00 5ab5 125a a58a     fZ.6Z..a,.Z..Z..
   19315:	5ab5 3261 1903 5aa1 c161 2d00 5ab2 125a     Z.2a..Z..a-.Z..Z
   19325:	a365 5aa5 8161 4503 5aa1 9d61 2d00 5aa3     .eZ..aE.Z..a-.Z.
   19335:	645a a578 6122 045a a17c 612c 005a a363     dZ.xa".Z.|a,.Z.c
   19345:	5ab4 0e5a a56f 6146 035a a15d 5aa5 6663     Z..Z.oaF.Z.]Z.fc
   19355:	5aa1 8a5a b122 635a a15a 635a a12b 635a     Z..Z."cZ.ZcZ.+cZ
   19365:	a1fd 5ab1 2161 4e04 5aa1 d463 635a b006     ..Z.!aN.Z..ccZ..
   19375:	635a b101 6189 155a 4008 5a43 085a b026     cZ..a..Z@.ZC.Z.&
   19385:	5a41 805a a166 5ab1 3263 5aa1 3763 5aa1     ZA.Z.fZ.2cZ.7cZ.
   19395:	0a61 4e04 5aa1 e05a b131 635a a1bc 635a     .aN.Z..Z.1cZ..cZ
   193a5:	a198 635a b111 5a41 a25a a1e6 5ab1 255a     ..cZ..ZA.Z..Z.%Z
   193b5:	4507 5aa2 8a5a b232 5ab4 2e63 5aa1 c163     E.Z..Z.2Z..cZ..c
   193c5:	5aa1 9d61 4f04 5ab0 065a a17c 635a a15d     Z..aO.Z..Z.|cZ.]
   193d5:	5ab4 0e63 5aa1 8a5a b122 635a a15a 635a     Z..cZ..Z."cZ.ZcZ
   193e5:	a12b 635a a1fd 5ab1 2161 2204 5aa1 d461     .+cZ..Z.!a".Z..a
   193f5:	560a 5a40 035a 4303 5aa0 9861 2c00 5ab0     V.Z@.ZC.Z..a,.Z.
   19405:	295a b101 5a41 805a a166 5ab1 325a b316     )Z..ZA.Z.fZ.2Z..
   19415:	5aa3 225a b336 5ab5 125a a543 5ab5 3261     Z."Z.6Z..Z.CZ.2a
   19425:	4603 5aa1 3761 2c00 5aa5 3b61 4603 5aa1     F.Z.7a,.Z.;aF.Z.
   19435:	0a5a a321 612c 005a a533 6123 045a a1e0     .Z.!a,.Z.3a#.Z..
   19445:	5ab1 315a a320 5aa5 2b63 5aa1 bc5a a522     Z.1Z. Z.+cZ..Z."
   19455:	635a a198 635a b111 5ab4 3263 5ab4 1261     cZ..cZ..Z.2cZ..a
   19465:	1612 5a41 a25a a1e6 5ab1 255a b212 5a45     ..ZA.Z..Z.%Z..ZE
   19475:	065a a243 5ab2 325a b42e 635a a1c1 5ab2     .Z.CZ.2Z..cZ..Z.
   19485:	1263 5aa1 9d61 4f04 5aa1 7c5a b40e 635a     .cZ..aO.Z.|Z..cZ
   19495:	b009 5aa1 5d63 5aa1 8a5a b122 635a 4005     ..Z.]cZ..Z."cZ@.
   194a5:	5a43 055a a081 5ab0 295a a15a 635a a12b     ZC.Z..Z.)Z.ZcZ.+
   194b5:	635a a1fd 5ab1 2161 4e04 5aa1 d461 560a     cZ..Z.!aN.Z..aV.
   194c5:	5ab1 015a 4180 5aa1 665a b132 5aa4 6c5a     Z..ZA.Z.fZ.2Z.lZ
   194d5:	b431 635a a137 635a a10a 614f 045a b009     .1cZ.7cZ..aO.Z..
   194e5:	5aa1 e05a b131 5ab4 1163 5aa1 bc61 4603     Z..Z.1Z..cZ..aF.
   194f5:	5aa1 9863 5ab1 1161 2c00 5aa1 665a b132     Z..cZ..a,.Z.fZ.2
   19505:	6146 035a a137 635a a10a 614e 045a a1e0     aF.Z.7cZ..aN.Z..
   19515:	5ab1 3163 5aa1 bc63 5aa1 9863 5ab1 115a     Z.1cZ..cZ..cZ..Z
   19525:	41a2 5aa1 e65a b125 612c 005a a28a 5ab2     A.Z..Z.%a,.Z..Z.
   19535:	325a a422 5ab4 2e61 4603 5aa1 c163 5aa1     2Z."Z..aF.Z..cZ.
   19545:	9d5a b40e 614f 045a a17c 635a a15d 635a     .Z..aO.Z.|cZ.]cZ
   19555:	a18a 5ab1 2263 5aa1 5a5a a498 5ab4 3163     ..Z."cZ.ZZ..Z.1c
   19565:	5aa1 2b5a b411 635a a1fd 5ab1 2161 4e04     Z.+Z..cZ..Z.!aN.
   19575:	5aa1 d461 560a 5ab1 015a a422 5ab4 2e63     Z..aV.Z..Z."Z..c
   19585:	5ab4 0e5a b615 635a b715 5ab8 1261 491d     Z..Z..cZ..Z..aI.
   19595:	5ab3 165a b512 6363 5ac0 085a 400b 5a60     Z..Z..ccZ..Z@.Z`
   195a5:	b15a 80f6 5a20 a15a 4300 5a63 f15a 8387     .Z..Z .ZC.Zc.Z..
   195b5:	5a23 215a 4301 5aa0 225a b026 5aa1 e65a     Z#!ZC.Z."Z.&Z..Z
   195c5:	b125 5ab2 125a 4502 5aa2 435a b232 612c     .%Z..ZE.Z.CZ.2a,
   195d5:	005a 480b 5aa3 985a b335 5ab4 2e5a 4a11     .ZH.Z..Z.5Z..ZJ.
   195e5:	5a4d 025a a5b1 5ab5 315a 5391 5aa6 985a     ZM.Z..Z.1ZS.Z..Z
   195f5:	b635 5aa7 8a5a b732 5a55 875a b832 611a     .5Z..Z.2ZU.Z.2a.
   19605:	035a a1c1 612c 005a b212 5aa5 ab61 4603     .Z..a,.Z..Z..aF.
   19615:	5aa1 9d61 2c00 5aa3 975a a5a5 6123 045a     Z..a,.Z..Z..a#.Z
   19625:	a17c 612c 005a a396 5ab4 0e5a a59f 6146     .|a,.Z..Z..Z..aF
   19635:	035a a15d 5aa5 9863 5aa1 8a5a b122 635a     .Z.]Z..cZ..Z."cZ
   19645:	a15a 635a a12b 635a a1fd 5ab1 2161 4e04     .ZcZ.+cZ..Z.!aN.
   19655:	5aa1 d461 560a 5ab1 0161 8915 5a41 805a     Z..aV.Z..a..ZA.Z
   19665:	a166 5ab1 3263 5aa1 3763 5aa1 0a61 4e04     .fZ.2cZ.7cZ..aN.
   19675:	5aa1 e05a b131 635a a1bc 635a a198 635a     Z..Z.1cZ..cZ..cZ
   19685:	b111 5a41 a25a a1e6 5ab1 255a 4506 5aa2     ..ZA.Z..Z.%ZE.Z.
   19695:	8a5a b232 5ab4 2e63 5aa1 c163 5aa1 9d5a     .Z.2Z..cZ..cZ..Z
   196a5:	b40e 614f 045a a17c 635a a15d 635a a18a     ..aO.Z.|cZ.]cZ..
   196b5:	5ab1 2263 5aa1 5a63 5aa1 2b61 4e04 5aa1     Z."cZ.ZcZ.+aN.Z.
   196c5:	fd5a b121 6146 035a a1d4 6156 0a5a b101     .Z.!aF.Z..aV.Z..
   196d5:	612c 005a 4180 5aa1 665a b132 6146 035a     a,.ZA.Z.fZ.2aF.Z
   196e5:	a137 614f 045a a10a 635a a1e0 5ab1 3163     .7aO.Z..cZ..Z.1c
   196f5:	5aa1 bc63 5aa1 9863 5ab1 1161 8815 5a41     Z..cZ..cZ..a..ZA
   19705:	a25a a1e6 5ab1 255a b212 5aa2 435a b232     .Z..Z.%Z..Z.CZ.2
   19715:	5ab4 2e63 5aa1 c15a b212 614f 045a a19d     Z..cZ..Z..aO.Z..
   19725:	5ab4 0e63 5aa1 7c63 5aa1 5d63 5aa1 8a5a     Z..cZ.|cZ.]cZ..Z
   19735:	b122 635a a15a 635a a12b 614e 045a a1fd     ."cZ.ZcZ.+aN.Z..
   19745:	5ab1 2163 5aa1 d461 560a 5ab1 015a 4180     Z.!cZ..aV.Z..ZA.
   19755:	5aa1 665a b132 635a a137 614f 045a a10a     Z.fZ.2cZ.7aO.Z..
   19765:	635a a1e0 5ab1 3163 5aa1 bc63 5aa1 9863     cZ..Z.1cZ..cZ..c
   19775:	5ab1 115a b432 6194 075a b412 6363 5ab3     Z..Z.2a..Z..ccZ.
   19785:	155a b511 6363 5a41 a25a a1e6 5ab1 255a     .Z..ccZA.Z..Z.%Z
   19795:	a28a 612c 005a b232 5a48 0e5a a36c 5ab3     ..a,.Z.2ZH.Z.lZ.
   197a5:	355a b42e 5a4a 145a 4d05 5aa5 815a b531     5Z..ZJ.ZM.Z..Z.1
   197b5:	6146 035a a1c1 5aa5 7c61 4e04 5aa1 9d5a     aF.Z..Z.|aN.Z..Z
   197c5:	a36b 5ab4 0e61 2d00 5aa5 7761 4503 5aa1     .kZ..a-.Z.waE.Z.
   197d5:	7c5a a572 635a a15d 5aa5 6c63 5aa1 8a5a     |Z.rcZ.]Z.lcZ..Z
   197e5:	b122 635a a15a 635a a12b 614f 045a a1fd     ."cZ.ZcZ.+aO.Z..
   197f5:	5ab1 2163 5aa1 d461 560a 5ab1 015a b432     Z.!cZ..aV.Z..Z.2
   19805:	635a b412 6149 1d5a b315 5ab5 1161 560a     cZ..aI.Z..Z..aV.
   19815:	5aa1 e65a b125 5ab2 125a a243 5ab2 325a     Z..Z.%Z..Z.CZ.2Z
   19825:	480f 5aa3 985a b335 5ab4 2e5a 4a15 5a4d     H.Z..Z.5Z..ZJ.ZM
   19835:	065a a5b1 5ab5 3163 5aa1 c15a b212 5aa5     .Z..Z.1cZ..Z..Z.
   19845:	ab61 2204 5aa1 9d61 2c00 5aa3 975a b40e     .a".Z..a,.Z..Z..
   19855:	5aa5 a561 4603 5aa1 7c61 2c00 5aa3 965a     Z..aF.Z.|a,.Z..Z
   19865:	a59f 6146 035a a15d 612c 005a a598 6146     ..aF.Z.]a,.Z..aF
   19875:	035a a18a 5ab1 2263 5aa1 5a63 5aa1 2b61     .Z..Z."cZ.ZcZ.+a
   19885:	4f04 5aa1 fd5a b121 635a a1d4 6156 0a5a     O.Z..Z.!cZ..aV.Z
   19895:	b101 6188 155a 4180 5aa1 665a b132 5ab4     ..a..ZA.Z.fZ.2Z.
   198a5:	2e63 5aa1 375a b40e 614f 045a a10a 635a     .cZ.7Z..aO.Z..cZ
   198b5:	a1e0 5ab1 3163 5aa1 bc63 5aa1 9863 5ab1     ..Z.1cZ..cZ..cZ.
   198c5:	115a 41a2 5aa1 e65a b125 5a45 075a a28a     .ZA.Z..Z.%ZE.Z..
   198d5:	5ab2 325a b42e 635a a1c1 614e 045a a19d     Z.2Z..cZ..aN.Z..
   198e5:	5ab4 0e63 5aa1 7c63 5aa1 5d63 5aa1 8a5a     Z..cZ.|cZ.]cZ..Z
   198f5:	b122 635a a15a 635a a12b 614f 045a a1fd     ."cZ.ZcZ.+aO.Z..
   19905:	5ab1 2163 5aa1 d461 2a0a 5ab1 0161 2c00     Z.!cZ..a*.Z..a,.
   19915:	5a41 805a a166 5ab1 325a a46c 5ab4 3161     ZA.Z.fZ.2Z.lZ.1a
   19925:	4603 5aa1 3761 4e04 5aa1 0a5a b411 635a     F.Z.7aN.Z..Z..cZ
   19935:	a1e0 5ab1 3163 5aa1 bc63 5aa1 9863 5ab1     ..Z.1cZ..cZ..cZ.
   19945:	1161 8915 5a41 a25a a1e6 5ab1 255a b212     .a..ZA.Z..Z.%Z..
   19955:	5a45 045a a243 5ab2 325a a422 5ab4 2e63     ZE.Z.CZ.2Z."Z..c
   19965:	5aa1 c15a b212 614e 045a a19d 5ab4 0e63     Z..Z..aN.Z..Z..c
   19975:	5aa1 7c63 5aa1 5d63 5aa1 8a5a b122 635a     Z.|cZ.]cZ..Z."cZ
   19985:	a15a 5aa4 985a b431 635a a12b 614f 045a     .ZZ..Z.1cZ.+aO.Z
   19995:	a1fd 5ab1 215a b411 635a a1d4 6156 0a5a     ..Z.!Z..cZ..aV.Z
   199a5:	b101 5a41 805a a166 5ab1 3263 5aa1 3761     ..ZA.Z.fZ.2cZ.7a
   199b5:	4e04 5aa1 0a63 5aa1 e05a b131 635a a1bc     N.Z..cZ..Z.1cZ..
   199c5:	635a a198 635a b111 5aa4 6c5a b431 6123     cZ..cZ..Z.lZ.1a#
   199d5:	045a b411 61c8 0d5a b315 5ab5 1163 5a41     .Z..a..Z..Z..cZA
   199e5:	a25a a1e6 5ab1 255a 4506 5aa2 8a61 2c00     .Z..Z.%ZE.Z..a,.
   199f5:	5ab2 325a 4811 5aa3 e65a b335 5aa4 8a5a     Z.2ZH.Z..Z.5Z..Z
   19a05:	b42e 5a4a 175a 4d08 5aa5 035a b532 6122     ..ZJ.ZM.Z..Z.2a"
   19a15:	045a a1c1 5aa5 fc5a b531 635a a19d 5aa3     .Z..Z..Z.1cZ..Z.
   19a25:	e55a b40e 612c 005a a5f5 6146 035a a17c     .Z..a,.Z..aF.Z.|
   19a35:	5aa3 e45a a5ee 635a a15d 5aa5 e663 5aa1     Z..Z..cZ.]Z..cZ.
   19a45:	8a5a b122 635a a15a 614f 045a a12b 635a     .Z."cZ.ZaO.Z.+cZ
   19a55:	a1fd 5ab1 2163 5aa1 d461 560a 5ab1 015a     ..Z.!cZ..aV.Z..Z
   19a65:	a422 5ab4 3261 c007 5ab4 1263 635a b712     ."Z.2a..Z..ccZ..
   19a75:	635a b615 5ab8 1261 c107 5ab0 0661 560a     cZ..Z..a..Z..aV.
   19a85:	5ab3 155a b511 635a 538a 5aa6 cb5a b635     Z..Z..cZS.Z..Z.5
   19a95:	5aa7 6c5a b735 5a55 855a b832 635a 4300     Z.lZ.5ZU.Z.2cZC.
   19aa5:	5ab0 265a a1e6 5ab1 255a b212 5aa2 435a     Z.&Z..Z.%Z..Z.CZ
   19ab5:	b232 5a48 125a a398 5ab3 355a b42e 5a4a     .2ZH.Z..Z.5Z..ZJ
   19ac5:	185a 4d09 5aa5 b15a b531 614e 045a a1c1     .ZM.Z..Z.1aN.Z..
   19ad5:	5ab2 125a a5ab 6146 035a a19d 612c 005a     Z..Z..aF.Z..a,.Z
   19ae5:	a397 5aa5 a561 4603 5aa1 7c61 2c00 5aa3     ..Z..aF.Z.|a,.Z.
   19af5:	965a a59f 6146 035a a15d 612c 005a b40e     .Z..aF.Z.]a,.Z..
   19b05:	5aa5 9861 4603 5aa1 8a5a b122 635a a15a     Z..aF.Z..Z."cZ.Z
   19b15:	614e 045a a12b 635a a1fd 5ab1 2163 5aa1     aN.Z.+cZ..Z.!cZ.
   19b25:	d461 560a 5ab1 0161 8915 5a41 805a a166     .aV.Z..a..ZA.Z.f
   19b35:	5ab1 3261 4e04 5aa1 3763 5aa1 0a63 5aa1     Z.2aN.Z.7cZ..cZ.
   19b45:	e05a b131 635a a1bc 635a a198 635a b111     .Z.1cZ..cZ..cZ..
   19b55:	5a41 a25a a1e6 5ab1 255a a28a 5ab2 325a     ZA.Z..Z.%Z..Z.2Z
   19b65:	b42e 614f 045a a1c1 635a a19d 635a a17c     ..aO.Z..cZ..cZ.|
   19b75:	5ab4 0e63 5aa1 5d63 5aa1 8a5a b122 635a     Z..cZ.]cZ..Z."cZ
   19b85:	a15a 614e 045a a12b 635a a1fd 5ab1 2163     .ZaN.Z.+cZ..Z.!c
   19b95:	5aa1 d461 2a0a 5ab1 0161 2c00 5a41 805a     Z..a*.Z..a,.ZA.Z
   19ba5:	a166 5ab1 3261 2304 5aa1 3763 5aa1 0a63     .fZ.2a#.Z.7cZ..c
   19bb5:	5aa1 e05a b131 635a a1bc 635a a198 635a     Z..Z.1cZ..cZ..cZ
   19bc5:	b111 6188 155a 41a2 5aa1 e65a b125 5ab2     ..a..ZA.Z..Z.%Z.
   19bd5:	125a a243 5ab2 325a b42e 614f 045a a1c1     .Z.CZ.2Z..aO.Z..
   19be5:	5ab2 1263 5aa1 9d63 5aa1 7c63 5aa1 5d5a     Z..cZ..cZ.|cZ.]Z
   19bf5:	b40e 635a a18a 5ab1 2263 5aa1 5a61 4e04     ..cZ..Z."cZ.ZaN.
   19c05:	5aa1 2b63 5aa1 fd5a b121 635a a1d4 6156     Z.+cZ..Z.!cZ..aV
   19c15:	0a5a b101 5a41 805a a166 5ab1 325a b432     .Z..ZA.Z.fZ.2Z.2
   19c25:	614f 045a a137 5ab4 1263 5aa1 0a63 5aa1     aO.Z.7Z..cZ..cZ.
   19c35:	e05a b131 635a a1bc 635a a198 635a b111     .Z.1cZ..cZ..cZ..
   19c45:	615c 155a 41a2 5aa1 e65a b125 5a45 0961     a\.ZA.Z..Z.%ZE.a
   19c55:	2c00 5aa2 8a5a b232 5a48 155a a300 5ab3     ,.Z..Z.2ZH.Z..Z.
   19c65:	005a a322 5ab3 365a b42e 5a4a 1b5a 4d0c     .Z."Z.6Z..ZJ.ZM.
   19c75:	5aa5 005a b500 5aa5 435a b532 6123 045a     Z..Z..Z.CZ.2a#.Z
   19c85:	a1c1 635a a19d 5aa5 3b63 5aa1 7c5a a321     ..cZ..Z.;cZ.|Z.!
   19c95:	5ab4 0e5a a533 635a a15d 5aa3 205a a52b     Z..Z.3cZ.]Z. Z.+
   19ca5:	635a a18a 5ab1 225a a522 635a a15a 614e     cZ..Z."Z."cZ.ZaN
   19cb5:	045a a12b 635a a1fd 5ab1 2163 5aa1 d461     .Z.+cZ..Z.!cZ..a
   19cc5:	560a 5ab1 0161 ee2b 5aa1 e65a b125 5ab2     V.Z..a.+Z..Z.%Z.
   19cd5:	125a 4506 5aa2 435a b232 5ab3 165a 4816     .ZE.Z.CZ.2Z..ZH.
   19ce5:	5aa3 665a b336 5ab4 2e5a b512 5a4a 1c5a     Z.fZ.6Z..Z..ZJ.Z
   19cf5:	4d0d 5aa5 8a5a b532 635a a1c1 5ab2 125a     M.Z..Z.2cZ..Z..Z
   19d05:	a365 5aa5 8163 5aa1 9d5a a364 5aa5 7861     .eZ..cZ..Z.dZ.xa
   19d15:	4603 5aa1 7c61 2c00 5aa3 635a b40e 5aa5     F.Z.|a,.Z.cZ..Z.
   19d25:	6f61 4603 5aa1 5d61 2c00 5aa5 6661 4603     oaF.Z.]a,.Z.faF.
   19d35:	5aa1 8a5a b122 614e 045a a15a 635a a12b     Z..Z."aN.Z.ZcZ.+
   19d45:	635a a1fd 5ab1 2163 5aa1 d461 330b 5ab1     cZ..Z.!cZ..a3.Z.
   19d55:	0161 8815 5a41 805a a166 5ab1 3263 5aa1     .a..ZA.Z.fZ.2cZ.
   19d65:	3763 5aa1 0a63 5aa1 e05a b131 635a a1bc     7cZ..cZ..Z.1cZ..
   19d75:	635a a198 614f 045a b111 5a41 a25a a1e6     cZ..aO.Z..ZA.Z..
   19d85:	5ab1 255a a28a 5ab2 325a b42e 635a a1c1     Z.%Z..Z.2Z..cZ..
   19d95:	635a a19d 635a a17c 635a a15d 5ab4 0e63     cZ..cZ.|cZ.]Z..c
   19da5:	5aa1 8a5a b122 614e 045a a15a 635a a12b     Z..Z."aN.Z.ZcZ.+
   19db5:	635a a1fd 5ab1 2163 5aa1 d461 070b 5ab1     cZ..Z.!cZ..a..Z.
   19dc5:	0161 2c00 5a41 805a a166 5ab1 325a b316     .a,.ZA.Z.fZ.2Z..
   19dd5:	5a48 175a a322 5ab3 365a b512 5a4a 1d5a     ZH.Z."Z.6Z..ZJ.Z
   19de5:	4d0e 5aa5 435a b532 6146 035a a137 612c     M.Z.CZ.2aF.Z.7a,
   19df5:	005a a53b 6146 035a a10a 5aa3 2161 2c00     .Z.;aF.Z..Z.!a,.
   19e05:	5aa5 3361 4603 5aa1 e05a b131 5aa3 2061     Z.3aF.Z..Z.1Z. a
   19e15:	2c00 5aa5 2b61 4603 5aa1 bc5a a522 635a     ,.Z.+aF.Z..Z."cZ
   19e25:	a198 614e 045a b111 5ab4 3263 5ab4 1261     ..aN.Z..Z.2cZ..a
   19e35:	1712 5a41 a25a a1e6 5ab1 255a b212 5a45     ..ZA.Z..Z.%Z..ZE
   19e45:	0a5a a243 5ab2 325a b42e 635a a1c1 5ab2     .Z.CZ.2Z..cZ..Z.
   19e55:	1263 5aa1 9d63 5aa1 7c5a b40e 635a a15d     .cZ..cZ.|Z..cZ.]
   19e65:	635a a18a 5ab1 2261 4e04 5aa1 5a63 5aa1     cZ..Z."aN.Z.ZcZ.
   19e75:	2b63 5aa1 fd5a b121 635a a1d4 6133 0b5a     +cZ..Z.!cZ..a3.Z
   19e85:	b101 5a41 805a a166 5ab1 325a a46c 5ab4     ..ZA.Z.fZ.2Z.lZ.
   19e95:	3163 5aa1 3763 5aa1 0a63 5aa1 e05a b131     1cZ.7cZ..cZ..Z.1
   19ea5:	5ab4 1163 5aa1 bc63 5aa1 9861 4e04 5ab1     Z..cZ..cZ..aN.Z.
   19eb5:	115a a166 5ab1 3261 4603 5aa1 3763 5aa1     .Z.fZ.2aF.Z.7cZ.
   19ec5:	0a63 5aa1 e05a b131 635a a1bc 635a a198     .cZ..Z.1cZ..cZ..
   19ed5:	614e 045a b111 5a41 a25a a1e6 5ab1 2561     aN.Z..ZA.Z..Z.%a
   19ee5:	2d00 5a45 095a b232 5aa4 225a b42e 6145     -.ZE.Z.2Z."Z..aE
   19ef5:	035a a1c1 5ab2 1263 5aa1 9d5a b40e 635a     .Z..Z..cZ..Z..cZ
   19f05:	a17c 635a a15d 635a a18a 5ab1 2261 4f04     .|cZ.]cZ..Z."aO.
   19f15:	5aa1 5a5a a498 5ab4 3163 5aa1 2b5a b411     Z.ZZ..Z.1cZ.+Z..
   19f25:	635a a1fd 5ab1 2163 5aa1 d461 320b 5ab1     cZ..Z.!cZ..a2.Z.
   19f35:	015a a422 5ab4 2e63 5ab4 0e5a b615 635a     .Z."Z..cZ..Z..cZ
   19f45:	b715 5ab8 1261 6d1c 5ab3 165a b512 61c0     ..Z..am.Z..Z..a.
   19f55:	075a b006 5a43 015a b026 5ac1 095a e103     .Z..ZC.Z.&Z..Z..
   19f65:	5a41 0d5a 61a3 5a81 f35a 2120 5ae4 015a     ZA.Za.Z..Z! Z..Z
   19f75:	4400 5a64 425a 8474 5a24 215a 440d 5aa1     D.ZdBZ.tZ$!ZD.Z.
   19f85:	985a b12d 5ac2 0961 2d00 5a42 0e5a 6292     .Z.-Z..a-.ZB.Zb.
   19f95:	5a82 b35a 2260 5ae5 015a 4500 5a65 525a     Z..Z"`Z..ZE.ZeRZ
   19fa5:	8574 5a25 215a 4505 5aa2 8a5a b22a 5ac3     .tZ%!ZE.Z..Z.*Z.
   19fb5:	075a 484b 5a68 a35a 88e3 5a28 e05a eb01     .ZHKZh.Z..Z(.Z..
   19fc5:	5a6b 525a 8b74 5a4b 0b61 2c00 5aa3 225a     ZkRZ.tZK.a,.Z."Z
   19fd5:	b32a 5ab4 2e5a c507 5aea 005a 4a00 5a8a     .*Z..Z..Z..ZJ.Z.
   19fe5:	065a 2a11 5a4d 005a 6df9 5a8d 075a 2d10     .Z*.ZM.Zm.Z..Z-.
   19ff5:	5a4a 035a a566 5ab5 2e5a 5391 5aa6 985a     ZJ.Z.fZ..ZS.Z..Z
   1a005:	b635 612c 005a a78a 5ab7 325a 5587 5ab8     .5a,.Z..Z.2ZU.Z.
   1a015:	3262 7d5a a199 5aa2 8c63 5aa2 8d5a a321     2b}Z..Z..cZ..Z.!
   1a025:	6146 035a a320 612c 005a b40e 6107 0b5a     aF.Z. a,.Z..a..Z
   1a035:	b50e 5a4a 0761 2c00 5ac5 095a a58a 5ab5     ..ZJ.a,.Z..Z..Z.
   1a045:	2e61 5c15 5ab5 0e5a 4a03 5ac5 075a a598     .a\.Z..ZJ.Z..Z..
   1a055:	5ab5 3561 8915 5ab5 155a 4a06 5ac5 095a     Z.5a..Z..ZJ.Z..Z
   1a065:	a581 5ab5 3561 8815 5ab4 2e5a b515 5aa5     ..Z.5a..Z..Z..Z.
   1a075:	8a5a b532 6363 5ab4 0e61 a50e 5ab5 125a     .Z.2ccZ..a..Z..Z
   1a085:	4a07 5aa5 225a b532 615c 155a b512 612c     J.Z."Z.2a\.Z..a,
   1a095:	005a 4a05 5aa5 985a b531 615d 155a b511     .ZJ.Z..Z.1a].Z..
   1a0a5:	5a4a 075a a58a 5ab5 3261 8815 5ab4 2e5a     ZJ.Z..Z.2a..Z..Z
   1a0b5:	b512 5a4a 065a a581 5ab5 3163 635a b40e     ..ZJ.Z..Z.1ccZ..
   1a0c5:	61a5 0e5a b511 5a4a 085a c50b 5aa5 cb5a     a..Z..ZJ.Z..Z..Z
   1a0d5:	b531 6188 155a b511 5a4a 065a c509 5aa5     .1a..Z..ZJ.Z..Z.
   1a0e5:	225a b532 6189 155a b432 5ab5 125a 4a03     "Z.2a..Z.2Z..ZJ.
   1a0f5:	5ac5 075a a566 5ab5 3261 b806 5ab4 1261     Z..Z.fZ.2a..Z..a
   1a105:	a40e 5ab4 2e5a b512 612c 005a 4a07 5ac5     ..Z..Z..a,.ZJ.Z.
   1a115:	095a a5cb 5ab5 3161 b806 5ab4 0e61 a50e     .Z..Z.1a..Z..a..
   1a125:	5ab5 115a a58a 5ab5 2e61 8815 5ab4 325a     Z..Z..Z..a..Z.2Z
   1a135:	b50e 5a4a 045a a522 5ab5 3263 5ab4 1261     ..ZJ.Z."Z.2cZ..a
   1a145:	1712 5ab5 125a 4a06 5aa5 985a b531 6188     ..Z..ZJ.Z..Z.1a.
   1a155:	155a b42e 5ab5 115a 4a03 5ac5 075a a566     .Z..Z..ZJ.Z..Z.f
   1a165:	5ab5 2e63 635a b40e 6179 0e5a b50e 5a4a     Z..ccZ..ay.Z..ZJ
   1a175:	0761 2c00 5ac5 095a a58a 5ab5 2e61 5c15     .a,.Z..Z..Z..a\.
   1a185:	5ab5 0e5a 4a03 5ac5 075a a598 5ab5 3561     Z..ZJ.Z..Z..Z.5a
   1a195:	8915 5ab4 2e5a b515 5a4a 065a c509 5aa5     ..Z..Z..ZJ.Z..Z.
   1a1a5:	815a b535 635a b40e 6116 125a b42e 5ab5     .Z.5cZ..a..Z..Z.
   1a1b5:	155a a58a 5ab5 3263 635a b40e 61a5 0e5a     .Z..Z.2ccZ..a..Z
   1a1c5:	b512 5a4a 075a a522 5ab5 3261 5c15 5aa4     ..ZJ.Z."Z.2a\.Z.
   1a1d5:	6c61 2c00 5ab4 315a b512 5a4a 055a a598     la,.Z.1Z..ZJ.Z..
   1a1e5:	5ab5 3161 b806 5ab4 1161 a40e 5ab5 115a     Z.1a..Z..a..Z..Z
   1a1f5:	4a07 5aa5 8a5a b532 6189 155a a422 5ab4     J.Z..Z.2a..Z."Z.
   1a205:	2e5a b512 5a4a 065a a581 5ab5 3163 635a     .Z..ZJ.Z..Z.1ccZ
   1a215:	b40e 61a4 0e5a a498 5ab4 315a b511 5a4a     ..a..Z..Z.1Z..ZJ
   1a225:	085a c50b 5aa5 cb5a b531 6363 5ab4 1161     .Z..Z..Z.1ccZ..a
   1a235:	a50e 5ab5 115a 4a06 5ac5 095a a522 5ab5     ..Z..ZJ.Z..Z."Z.
   1a245:	3261 8815 5aa4 6c5a b431 5ab5 125a 4a03     2a..Z.lZ.1Z..ZJ.
   1a255:	5ac5 075a a566 5ab5 3263 5ab4 1161 eb11     Z..Z.fZ.2cZ..a..
   1a265:	5aa4 8a5a b42e 5ab5 1261 2c00 5a4a 075a     Z..Z..Z..a,.ZJ.Z
   1a275:	c509 5aa5 cb5a b531 61b8 065a b40e 61a4     ..Z..Z.1a..Z..a.
   1a285:	0e5a b511 5aa5 8a5a b52e 6189 155a a422     .Z..Z..Z..a..Z."
   1a295:	5ab4 325a b50e 5a4a 045a a522 5ab5 3263     Z.2Z..ZJ.Z."Z.2c
   1a2a5:	635a b412 61c0 075a b20a 5ab7 1263 5ab1     cZ..a..Z..Z..cZ.
   1a2b5:	0d5a b30a 5ab6 155a b812 635a b512 5a4a     .Z..Z..Z..cZ..ZJ
   1a2c5:	065a a598 5ab5 3163 5ab0 0661 a50e 5a44     .Z..Z.1cZ..a..ZD
   1a2d5:	065a a1cb 5ab1 2d5a a26c 5ab2 2d5a 4b06     .Z..Z.-Z.lZ.-ZK.
   1a2e5:	5aa3 225a b32a 5a53 8a5a a6cb 5ab6 355a     Z."Z.*ZS.Z..Z.5Z
   1a2f5:	a76c 5ab7 355a 5585 5ab8 3263 5a43 005a     .lZ.5ZU.Z.2cZC.Z
   1a305:	b026 5aa1 cc5a a26d 5ab4 2e5a b511 5a4a     .&Z..Z.mZ..Z..ZJ
   1a315:	035a c507 5aa5 665a b52e 635a a321 635a     .Z..Z.fZ..cZ.!cZ
   1a325:	a320 61c0 075a b40e 61b8 065a b50e 612c     . a..Z..a..Z..a,
   1a335:	005a 4a07 5ac5 095a a58a 5ab5 2e61 5d15     .ZJ.Z..Z..Z..a].
   1a345:	5ab5 0e5a 4a03 5ac5 075a a598 5ab5 3561     Z..ZJ.Z..Z..Z.5a
   1a355:	8815 5ab5 155a 4a06 5ac5 095a a581 5ab5     ..Z..ZJ.Z..Z..Z.
   1a365:	3561 8915 5ab4 2e5a b515 5aa5 8a5a b532     5a..Z..Z..Z..Z.2
   1a375:	6156 0a5a b40e 6132 0b5a b512 5a4a 075a     aV.Z..a2.Z..ZJ.Z
   1a385:	a522 5ab5 3261 8915 5ab5 125a 4a05 5aa5     ."Z.2a..Z..ZJ.Z.
   1a395:	985a b531 615c 155a b511 5a4a 075a a58a     .Z.1a\.Z..ZJ.Z..
   1a3a5:	612c 005a b532 615d 155a b42e 5ab5 125a     a,.Z.2a].Z..Z..Z
   1a3b5:	4a06 5aa5 815a b531 61a4 0e5a b40e 6363     J.Z..Z.1a..Z..cc
   1a3c5:	5ab5 115a 4a08 5ac5 0b5a a5cb 5ab5 3161     Z..ZJ.Z..Z..Z.1a
   1a3d5:	8915 5ab4 325a b511 5a4a 065a c509 5aa5     ..Z.2Z..ZJ.Z..Z.
   1a3e5:	225a b532 635a b412 6116 125a b512 5a4a     "Z.2cZ..a..Z..ZJ
   1a3f5:	035a c507 5aa5 665a b532 615d 155a b42e     .Z..Z.fZ.2a].Z..
   1a405:	5ab5 1261 2c00 5a4a 075a c509 5aa5 cb5a     Z..a,.ZJ.Z..Z..Z
   1a415:	b531 612a 0a5a b40e 6132 0b5a b511 5aa5     .1a*.Z..a2.Z..Z.
   1a425:	8a5a b52e 6189 155a b50e 5a4a 045a a522     .Z..a..Z..ZJ.Z."
   1a435:	5ab5 3261 8815 5ab5 125a 4a06 5aa5 985a     Z.2a..Z..ZJ.Z..Z
   1a445:	b531 6189 155a b42e 5ab5 115a 4a03 5ac5     .1a..Z..Z..ZJ.Z.
   1a455:	075a a566 5ab5 2e61 320b 5ab4 0e61 2a0a     .Z.fZ..a2.Z..a*.
   1a465:	5ab5 0e61 2c00 5a4a 075a c509 5aa5 8a5a     Z..a,.ZJ.Z..Z..Z
   1a475:	b52e 615c 155a b50e 5a4a 035a c507 5aa5     ..a\.Z..ZJ.Z..Z.
   1a485:	985a b535 6189 155a b515 5a4a 065a c509     .Z.5a..Z..ZJ.Z..
   1a495:	5aa5 815a b535 6188 155a b42e 5ab5 155a     Z..Z.5a..Z..Z..Z
   1a4a5:	a58a 5ab5 3261 a50e 5ab4 0e63 635a b512     ..Z.2a..Z..ccZ..
   1a4b5:	5a4a 075a a522 5ab5 3261 8815 5ab5 125a     ZJ.Z."Z.2a..Z..Z
   1a4c5:	4a05 5aa5 985a b531 615d 155a b432 5ab5     J.Z..Z.1a].Z.2Z.
   1a4d5:	115a 4a07 612c 005a a58a 5ab5 3261 4603     .ZJ.a,.Z..Z.2aF.
   1a4e5:	5ab4 1261 1612 5ab4 2e5a b512 5a4a 065a     Z..a..Z..Z..ZJ.Z
   1a4f5:	a581 5ab5 3161 330b 5ab4 0e61 560a 5ab5     ..Z.1a3.Z..aV.Z.
   1a505:	115a 4a08 5ac5 0b5a a5cb 5ab5 3161 8815     .ZJ.Z..Z..Z.1a..
   1a515:	5aa4 6c5a b431 5ab5 115a 4a06 5ac5 095a     Z.lZ.1Z..ZJ.Z..Z
   1a525:	a522 5ab5 3261 330b 5ab4 1161 560a 5ab5     ."Z.2a3.Z..aV.Z.
   1a535:	125a 4a03 5ac5 075a a566 5ab5 3261 5c15     .ZJ.Z..Z.fZ.2a\.
   1a545:	5aa4 225a b42e 5ab5 1261 2c00 5a4a 075a     Z."Z..Z..a,.ZJ.Z
   1a555:	c509 5aa5 cb5a b531 61b8 065a b40e 61a5     ..Z..Z.1a..Z..a.
   1a565:	0e5a a498 5ab4 315a b511 5aa5 8a5a b52e     .Z..Z.1Z..Z..Z..
   1a575:	635a b411 6116 125a a422 5ab4 2e5a b50e     cZ..a..Z."Z..Z..
   1a585:	5a4a 045a a522 5ab5 3263 5ab1 0d5a b40e     ZJ.Z."Z.2cZ..Z..
   1a595:	5ab6 1563 5ab2 0d5a b30a 5ab7 155a b812     Z..cZ..Z..Z..Z..
   1a5a5:	61a5 0e5a b512 5a4a 065a a598 5ab5 3161     a..Z..ZJ.Z..Z.1a
   1a5b5:	8815 5ab0 065a 4301 5ab0 265a 440d 5aa1     ..Z..ZC.Z.&ZD.Z.
   1a5c5:	985a b12d 5aa2 8a5a b22a 5a4b 0b5a a322     .Z.-Z..Z.*ZK.Z."
   1a5d5:	5ab3 2a5a b511 5a4a 035a c507 5aa5 665a     Z.*Z..ZJ.Z..Z.fZ
   1a5e5:	b52e 612c 005a 5391 5aa6 985a b635 5aa7     ..a,.ZS.Z..Z.5Z.
   1a5f5:	8a5a b732 5a55 875a b832 6146 035a a199     .Z.2ZU.Z.2aF.Z..
   1a605:	5aa2 8c63 5aa2 8d5a a321 614f 045a a320     Z..cZ..Z.!aO.Z. 
   1a615:	612a 0a5a b50e 612c 005a 4a07 5ac5 095a     a*.Z..a,.ZJ.Z..Z
   1a625:	a58a 5ab5 2e61 5c15 5ab5 0e5a 4a03 5ac5     ..Z..a\.Z..ZJ.Z.
   1a635:	075a a598 5ab5 3561 8915 5ab5 155a 4a06     .Z..Z.5a..Z..ZJ.
   1a645:	5ac5 095a a581 5ab5 3561 8815 5ab5 155a     Z..Z..Z.5a..Z..Z
   1a655:	a58a 5ab5 3261 8915 5ab5 125a 4a07 5aa5     ..Z.2a..Z..ZJ.Z.
   1a665:	225a b532 6188 155a b512 5a4a 055a a598     "Z.2a..Z..ZJ.Z..
   1a675:	5ab5 3161 5d15 5ab5 115a 4a07 612c 005a     Z.1a].Z..ZJ.a,.Z
   1a685:	a58a 5ab5 3261 5c15 5ab5 125a 4a06 5aa5     ..Z.2a\.Z..ZJ.Z.
   1a695:	815a b531 6189 155a b511 5a4a 085a c50b     .Z.1a..Z..ZJ.Z..
   1a6a5:	5aa5 cb5a b531 6188 155a b511 5a4a 065a     Z..Z.1a..Z..ZJ.Z
   1a6b5:	c509 5aa5 225a b532 6189 155a b512 5a4a     ..Z."Z.2a..Z..ZJ
   1a6c5:	035a c507 5aa5 665a b532 615c 155a b512     .Z..Z.fZ.2a\.Z..
   1a6d5:	5a4a 0761 2c00 5ac5 095a a5cb 5ab5 3161     ZJ.a,.Z..Z..Z.1a
   1a6e5:	5c15 5ab5 115a a58a 5ab5 2e61 8915 5ab5     \.Z..Z..Z..a..Z.
   1a6f5:	0e5a 4a04 5aa5 225a b532 6188 155a b512     .ZJ.Z."Z.2a..Z..
   1a705:	5a4a 065a a598 5ab5 3161 8915 5ab5 115a     ZJ.Z..Z.1a..Z..Z
   1a715:	4a03 5ac5 075a a566 5ab5 2e61 5c15 5ab5     J.Z..Z.fZ..a\.Z.
   1a725:	0e61 2c00 5a4a 075a c509 5aa5 8a5a b52e     .a,.ZJ.Z..Z..Z..
   1a735:	615d 155a b50e 5a4a 035a c507 5aa5 985a     a].Z..ZJ.Z..Z..Z
   1a745:	b535 6188 155a b515 5a4a 065a c509 5aa5     .5a..Z..ZJ.Z..Z.
   1a755:	815a b535 6189 155a b515 5aa5 8a5a b532     .Z.5a..Z..Z..Z.2
   1a765:	6188 155a b512 5a4a 075a a522 5ab5 3261     a..Z..ZJ.Z."Z.2a
   1a775:	8915 5ab5 125a 4a05 5aa5 985a b531 615c     ..Z..ZJ.Z..Z.1a\
   1a785:	155a b511 5a4a 0761 2c00 5aa5 8a5a b532     .Z..ZJ.a,.Z..Z.2
   1a795:	615d 155a b512 5a4a 065a a581 5ab5 3161     a].Z..ZJ.Z..Z.1a
   1a7a5:	8815 5ab5 115a 4a08 5ac5 0b5a a5cb 5ab5     ..Z..ZJ.Z..Z..Z.
   1a7b5:	3161 8915 5ab5 115a 4a06 5ac5 095a a522     1a..Z..ZJ.Z..Z."
   1a7c5:	5ab5 3261 8815 5ab5 125a 4a03 5ac5 075a     Z.2a..Z..ZJ.Z..Z
   1a7d5:	a566 5ab5 3261 5d15 5ab5 125a 4a07 612c     .fZ.2a].Z..ZJ.a,
   1a7e5:	005a c509 5aa5 cb5a b531 615c 155a b511     .Z..Z..Z.1a\.Z..
   1a7f5:	5aa5 8a5a b52e 6189 155a b50e 5a4a 045a     Z..Z..a..Z..ZJ.Z
   1a805:	a522 5ab5 3261 a40e 5ab2 0a5a b712 635a     ."Z.2a..Z..Z..cZ
   1a815:	b10d 5ab3 0a5a b615 5ab8 1263 5ab5 125a     ..Z..Z..Z..cZ..Z
   1a825:	4a06 5aa5 985a b531 614f 045a b006 61c8     J.Z..Z.1aO.Z..a.
   1a835:	0d5a 4406 5aa1 cb5a b12d 5aa2 6c5a b22d     .ZD.Z..Z.-Z.lZ.-
   1a845:	5a4b 065a a322 5ab3 2a5a 538a 5aa6 cb5a     ZK.Z."Z.*ZS.Z..Z
   1a855:	b635 5aa7 6c5a b735 5a55 855a b832 635a     .5Z.lZ.5ZU.Z.2cZ
   1a865:	4300 5ab0 265a a1cc 5aa2 6d5a b511 5a4a     C.Z.&Z..Z.mZ..ZJ
   1a875:	035a c507 5aa5 665a b52e 614e 045a a321     .Z..Z.fZ..aN.Z.!
   1a885:	635a a320 619c 0d5a b50e 612c 005a 4a07     cZ. a..Z..a,.ZJ.
   1a895:	5ac5 095a a58a 5ab5 2e61 5d15 5ab5 0e5a     Z..Z..Z..a].Z..Z
   1a8a5:	4a03 5ac5 075a a598 5ab5 3561 8815 5ab5     J.Z..Z..Z.5a..Z.
   1a8b5:	155a 4a06 5ac5 095a a581 5ab5 3561 8915     .ZJ.Z..Z..Z.5a..
   1a8c5:	5ab5 155a a58a 5ab5 3261 8815 5ab5 125a     Z..Z..Z.2a..Z..Z
   1a8d5:	4a07 5aa5 225a b532 6189 155a b512 5a4a     J.Z."Z.2a..Z..ZJ
   1a8e5:	055a a598 5ab5 3161 5c15 5ab5 115a 4a07     .Z..Z.1a\.Z..ZJ.
   1a8f5:	612c 005a a58a 5ab5 3261 5c15 5ab5 125a     a,.Z..Z.2a\.Z..Z
   1a905:	4a06 5aa5 815a b531 6189 155a b511 5a4a     J.Z..Z.1a..Z..ZJ
   1a915:	085a c50b 5aa5 cb5a b531 6188 155a b511     .Z..Z..Z.1a..Z..
   1a925:	5a4a 065a c509 5aa5 225a b532 6189 155a     ZJ.Z..Z."Z.2a..Z
   1a935:	b512 5a4a 035a c507 5aa5 665a b532 615c     ..ZJ.Z..Z.fZ.2a\
   1a945:	155a b512 612c 005a 4a07 5ac5 095a a5cb     .Z..a,.ZJ.Z..Z..
   1a955:	5ab5 3161 5d15 5ab5 115a a58a 5ab5 2e61     Z.1a].Z..Z..Z..a
   1a965:	8815 5ab5 0e5a 4a04 5aa5 225a b532 6189     ..Z..ZJ.Z."Z.2a.
   1a975:	155a b512 5a4a 065a a598 5ab5 3161 6516     .Z..ZJ.Z..Z.1ae.
   1a985:	5ab5 115a 4a03 5ac5 075a a566 5ab5 2e61     Z..ZJ.Z..Z.fZ..a
   1a995:	8815 5ab5 0e5a 4a07 5ac5 095a a58a 5ab5     ..Z..ZJ.Z..Z..Z.
   1a9a5:	2e61 5d15 5ab5 0e5a 4a03 5ac5 075a a598     .a].Z..ZJ.Z..Z..
   1a9b5:	5ab5 3561 8815 5ab5 155a 4a06 5ac5 095a     Z.5a..Z..ZJ.Z..Z
   1a9c5:	a581 5ab5 3561 8915 5ab5 155a a58a 5ab5     ..Z.5a..Z..Z..Z.
   1a9d5:	3261 8815 5ab5 125a 4a07 5aa5 225a b532     2a..Z..ZJ.Z."Z.2
   1a9e5:	6189 155a b512 5a4a 055a a598 5ab5 3161     a..Z..ZJ.Z..Z.1a
   1a9f5:	5c15 5ab5 115a 4a07 612c 005a a58a 5ab5     \.Z..ZJ.a,.Z..Z.
   1aa05:	3261 5d15 5ab5 125a 4a06 5aa5 815a b531     2a].Z..ZJ.Z..Z.1
   1aa15:	6188 155a b511 5a4a 085a c50b 5aa5 cb5a     a..Z..ZJ.Z..Z..Z
   1aa25:	b531 6189 155a b511 5a4a 065a c509 5aa5     .1a..Z..ZJ.Z..Z.
   1aa35:	225a b532 6188 155a b512 5a4a 035a c507     "Z.2a..Z..ZJ.Z..
   1aa45:	5aa5 665a b532 615d 155a b512 612c 005a     Z.fZ.2a].Z..a,.Z
   1aa55:	4a07 5ac5 095a a5cb 5ab5 3161 5c15 5ab5     J.Z..Z..Z.1a\.Z.
   1aa65:	115a a58a 5ab5 2e61 8915 5ab5 0e5a 4a04     .Z..Z..a..Z..ZJ.
   1aa75:	5aa5 225a b532 635a b10d 5ab6 1563 5ab2     Z."Z.2cZ..Z..cZ.
   1aa85:	0d5a b30a 5ab7 155a b812 61a4 0e5a b512     .Z..Z..Z..a..Z..
   1aa95:	5a4a 065a a598 5ab5 3161 8915 5ab0 065a     ZJ.Z..Z.1a..Z..Z
   1aaa5:	b511 61ff ff61 214c 6647 6433 2000 0100     ..a..a!LfGd3 ...
   1aab5:	006a 0000 0042 0075 0072 006f 006b 0072     .j...B.u.r.o.k.r
   1aac5:	0061 0074 0000 0000 004b 0047 0042 0000     .a.t.....K.G.B..
   1aad5:	0000 0050 0043 0020 0044 004f 0053 0000     ...P.C. .D.O.S..
   1aae5:	0000 0053 0074 00e9 0070 0068 0061 006e     ...S.t...p.h.a.n
   1aaf5:	0065 0020 0050 0069 0063 0071 0000 0000     .e. .P.i.c.q....
   1ab05:	0031 0039 0039 0032 0000 004b 0061 006d     .1.9.9.2...K.a.m
   1ab15:	0069 006e 0061 0072 0069 0000 0000           .i.n.a.r.i.....
