
opl.elf:     file format elf32-m68k


Disassembly of section .text.init:

00002000 <_init>:
    2000:	41fa fffe      	lea %pc@(2000 <_init>),%a0
    2004:	43f9 0000 2000 	lea 2000 <_init>,%a1
    200a:	203c 0000 20c4 	movel #8388,%d0
    2010:	9089           	subl %a1,%d0
    2012:	e488           	lsrl #2,%d0
    2014:	5380           	subql #1,%d0
    2016:	22d8           	movel %a0@+,%a1@+
    2018:	51c8 fffc      	dbf %d0,2016 <_init+0x16>
    201c:	4ef9 0000 2024 	jmp 2024 <_postinit>

Disassembly of section .text.postinit:

00002024 <_postinit>:
    2024:	203c 0001 ab48 	movel #109384,%d0
    202a:	9089           	subl %a1,%d0
    202c:	e488           	lsrl #2,%d0
    202e:	2200           	movel %d0,%d1
    2030:	4841           	swap %d1
    2032:	6002           	bras 2036 <_postinit+0x12>
    2034:	22d8           	movel %a0@+,%a1@+
    2036:	51c8 fffc      	dbf %d0,2034 <_postinit+0x10>
    203a:	51c9 fff8      	dbf %d1,2034 <_postinit+0x10>

0000203e <_start>:
    203e:	2e78 0414      	moveal 414 <SDB_MEMSIZE>,%sp
    2042:	23f8 0490 0001 	movel 490 <EFP_PROG_EXIT>,1ab50 <SAVE_PROG_EXIT>
    2048:	ab50 
    204a:	21fc 0000 2064 	movel #8292,490 <EFP_PROG_EXIT>
    2050:	0490 
    2052:	41f9 0000 327e 	lea 327e <__kinit>,%a0
    2058:	4e90           	jsr %a0@
    205a:	6124           	bsrs 2080 <CALL_CTORS>
    205c:	41f9 0000 216a 	lea 216a <kmain>,%a0
    2062:	4e90           	jsr %a0@
    2064:	21f9 0001 ab50 	movel 1ab50 <SAVE_PROG_EXIT>,490 <EFP_PROG_EXIT>
    206a:	0490 
    206c:	42a7           	clrl %sp@-
    206e:	41f9 0000 32aa 	lea 32aa <__cxa_finalize>,%a0
    2074:	4e90           	jsr %a0@
    2076:	588f           	addql #4,%sp
    2078:	6128           	bsrs 20a2 <CALL_DTORS>
    207a:	2078 0004      	moveal 4 <DUART_CRA>,%a0
    207e:	4ed0           	jmp %a0@

00002080 <CALL_CTORS>:
    2080:	48e7 0038      	moveml %a2-%a4,%sp@-
    2084:	45f9 0001 ab34 	lea 1ab34 <secData>,%a2
    208a:	47f9 0001 ab34 	lea 1ab34 <secData>,%a3
    2090:	598b           	subql #4,%a3
    2092:	b7ca           	cmpal %a2,%a3
    2094:	6506           	bcss 209c <CALL_CTORS+0x1c>
    2096:	2853           	moveal %a3@,%a4
    2098:	4e94           	jsr %a4@
    209a:	60f4           	bras 2090 <CALL_CTORS+0x10>
    209c:	4cdf 1c00      	moveml %sp@+,%a2-%a4
    20a0:	4e75           	rts

000020a2 <CALL_DTORS>:
    20a2:	48e7 0038      	moveml %a2-%a4,%sp@-
    20a6:	45f9 0001 ab34 	lea 1ab34 <secData>,%a2
    20ac:	47f9 0001 ab34 	lea 1ab34 <secData>,%a3
    20b2:	b5cb           	cmpal %a3,%a2
    20b4:	6708           	beqs 20be <CALL_DTORS+0x1c>
    20b6:	2852           	moveal %a2@,%a4
    20b8:	4e94           	jsr %a4@
    20ba:	588a           	addql #4,%a2
    20bc:	60f4           	bras 20b2 <CALL_DTORS+0x10>
    20be:	4cdf 1c00      	moveml %sp@+,%a2-%a4
    20c2:	4e75           	rts

Disassembly of section .text:

000020c4 <writeReg>:
  for(long i=0;i<20;i++){
    readStatus();
  }

}
uint8_t writeReg(uint16_t reg, uint8_t data){
    20c4:	598f           	subql #4,%sp
    20c6:	2f02           	movel %d2,%sp@-
    20c8:	202f 000c      	movel %sp@(12),%d0
    20cc:	222f 0010      	movel %sp@(16),%d1
    volatile uint8_t status;

  if(reg&0xff00){
    20d0:	0c40 00ff      	cmpiw #255,%d0
    20d4:	634a           	blss 2120 <writeReg+0x5c>
    *secInd = (uint8_t)reg;
    20d6:	2079 0001 ab38 	moveal 1ab38 <secInd>,%a0
    20dc:	1080           	moveb %d0,%a0@
  return *primInd;
    20de:	2079 0001 ab40 	moveal 1ab40 <primInd>,%a0
    20e4:	1410           	moveb %a0@,%d2
      status += readStatus();
    20e6:	102f 0007      	moveb %sp@(7),%d0
    20ea:	d002           	addb %d2,%d0
    20ec:	1f40 0007      	moveb %d0,%sp@(7)
    *secData = data;
    20f0:	2079 0001 ab34 	moveal 1ab34 <secData>,%a0
    20f6:	1081           	moveb %d1,%a0@
  return *primInd;
    20f8:	2079 0001 ab40 	moveal 1ab40 <primInd>,%a0
    20fe:	1210           	moveb %a0@,%d1
  }else{
    *primInd = (uint8_t)reg;
      status += readStatus();
    *primData = data;
  }
  status += readStatus();
    2100:	102f 0007      	moveb %sp@(7),%d0
    2104:	d001           	addb %d1,%d0
    2106:	1f40 0007      	moveb %d0,%sp@(7)
  return *primInd;
    210a:	1210           	moveb %a0@,%d1
  status += readStatus();
    210c:	102f 0007      	moveb %sp@(7),%d0
    2110:	d001           	addb %d1,%d0
    2112:	1f40 0007      	moveb %d0,%sp@(7)


  return status;
    2116:	102f 0007      	moveb %sp@(7),%d0
}
    211a:	241f           	movel %sp@+,%d2
    211c:	588f           	addql #4,%sp
    211e:	4e75           	rts
    *primInd = (uint8_t)reg;
    2120:	2079 0001 ab40 	moveal 1ab40 <primInd>,%a0
    2126:	1080           	moveb %d0,%a0@
  return *primInd;
    2128:	2079 0001 ab40 	moveal 1ab40 <primInd>,%a0
    212e:	1410           	moveb %a0@,%d2
      status += readStatus();
    2130:	102f 0007      	moveb %sp@(7),%d0
    2134:	d002           	addb %d2,%d0
    2136:	1f40 0007      	moveb %d0,%sp@(7)
    *primData = data;
    213a:	2079 0001 ab3c 	moveal 1ab3c <primData>,%a0
    2140:	1081           	moveb %d1,%a0@
  return *primInd;
    2142:	2079 0001 ab40 	moveal 1ab40 <primInd>,%a0
    2148:	1210           	moveb %a0@,%d1
  status += readStatus();
    214a:	102f 0007      	moveb %sp@(7),%d0
    214e:	d001           	addb %d1,%d0
    2150:	1f40 0007      	moveb %d0,%sp@(7)
  return *primInd;
    2154:	1210           	moveb %a0@,%d1
  status += readStatus();
    2156:	102f 0007      	moveb %sp@(7),%d0
    215a:	d001           	addb %d1,%d0
    215c:	1f40 0007      	moveb %d0,%sp@(7)
  return status;
    2160:	102f 0007      	moveb %sp@(7),%d0
}
    2164:	241f           	movel %sp@+,%d2
    2166:	588f           	addql #4,%sp
    2168:	4e75           	rts

0000216a <kmain>:

	chan = ch[channel];
    writeReg(regbase + chan, value);
}

void kmain() {
    216a:	48e7 3c3e      	moveml %d2-%d5/%a2-%fp,%sp@-



  printf("Testing for OPL3\r\n");
    216e:	4879 0000 33ca 	pea 33ca <__mulsi3+0x22>
    2174:	4bf9 0000 3202 	lea 3202 <printf_>,%a5
    217a:	4e95           	jsr %a5@
  writeReg(0x4,0x60);
    217c:	4878 0060      	pea 60 <R_STOPCNTCMD+0x42>
    2180:	4878 0004      	pea 4 <DUART_CRA>
    2184:	45f9 0000 20c4 	lea 20c4 <writeReg>,%a2
    218a:	4e92           	jsr %a2@
  writeReg(0x4,0x80);
    218c:	4878 0080      	pea 80 <R_STOPCNTCMD+0x62>
    2190:	4878 0004      	pea 4 <DUART_CRA>
    2194:	4e92           	jsr %a2@
  return *primInd;
    2196:	2079 0001 ab40 	moveal 1ab40 <primInd>,%a0
    219c:	1410           	moveb %a0@,%d2
  //delayLoop();
  int8_t status = readStatus();
  writeReg(0x2,0xff);
    219e:	4878 00ff      	pea ff <R_STOPCNTCMD+0xe1>
    21a2:	4878 0002      	pea 2 <DUART_CSRA>
    21a6:	4e92           	jsr %a2@
  writeReg(0x4,0x21);
    21a8:	4878 0021      	pea 21 <R_STOPCNTCMD+0x3>
    21ac:	4878 0004      	pea 4 <DUART_CRA>
    21b0:	4e92           	jsr %a2@

  for(int i=0;i<10000;i++){
    uint8_t status2 = *primInd;
    21b2:	2079 0001 ab40 	moveal 1ab40 <primInd>,%a0
    21b8:	4fef 0024      	lea %sp@(36),%sp
    21bc:	203c 0000 2710 	movel #10000,%d0
    21c2:	1210           	moveb %a0@,%d1
    if(status ==0 && (status2&0xe0)==0xc0){
    21c4:	4a02           	tstb %d2
    21c6:	677e           	beqs 2246 <kmain+0xdc>
  for(int i=0;i<10000;i++){
    21c8:	5380           	subql #1,%d0
    21ca:	66f6           	bnes 21c2 <kmain+0x58>
    uint8_t status2 = *primInd;
    21cc:	4205           	clrb %d5
    21ce:	4243           	clrw %d3
    21d0:	7800           	moveq #0,%d4
    21d2:	267c 0000 223a 	moveal #8762,%a3
    21d8:	4df9 0000 3405 	lea 3405 <noHeader>,%fp
    21de:	287c 0000 22e6 	moveal #8934,%a4
  writeReg(0x4,0x60);
    21e4:	4878 0060      	pea 60 <R_STOPCNTCMD+0x42>
    21e8:	4878 0004      	pea 4 <DUART_CRA>
    21ec:	4e92           	jsr %a2@
  writeReg(0x4,0x80);
    21ee:	4878 0080      	pea 80 <R_STOPCNTCMD+0x62>
    21f2:	4878 0004      	pea 4 <DUART_CRA>
    21f6:	4e92           	jsr %a2@
  writeReg(0x2,0xfe);
    21f8:	4878 00fe      	pea fe <R_STOPCNTCMD+0xe0>
    21fc:	4878 0002      	pea 2 <DUART_CSRA>
    2200:	4e92           	jsr %a2@
  writeReg(0x4,0x21);
    2202:	4878 0021      	pea 21 <R_STOPCNTCMD+0x3>
    2206:	4878 0004      	pea 4 <DUART_CRA>
    220a:	4e92           	jsr %a2@
    220c:	4fef 0020      	lea %sp@(32),%sp
  uint16_t samplesToDelay=0;;

  uint8_t state =0; // 0 - looking for command 1 - 5E aa dd (port 0) 2 5F aa dd port(1)
  while(1){
    startTImer();
 for(long pointer =0; pointer<96159;pointer++){
    2210:	7400           	moveq #0,%d2
    2212:	2079 0001 ab40 	moveal 1ab40 <primInd>,%a0
  return *primInd;
    2218:	7014           	moveq #20,%d0
    221a:	1210           	moveb %a0@,%d1
  for(long i=0;i<20;i++){
    221c:	5380           	subql #1,%d0
    221e:	66fa           	bnes 221a <kmain+0xb0>
      delayLoop();
   if(samplesToDelay>0){
    2220:	4a43           	tstw %d3
    2222:	6600 014e      	bnew 2372 <kmain+0x208>
     samplesToDelay--;
     pointer--;
     continue;
  }
   switch(state){
    2226:	0c05 0005      	cmpib #5,%d5
    222a:	6200 014e      	bhiw 237a <kmain+0x210>
    222e:	2004           	movel %d4,%d0
    2230:	d080           	addl %d0,%d0
    2232:	3033 0800      	movew %a3@(0,%d0:l),%d0
    2236:	4efb 0002      	jmp %pc@(223a <kmain+0xd0>,%d0:w)
    223a:	008a           	.short 0x008a
    223c:	004e           	.short 0x004e
    223e:	00d8           	.short 0x00d8
    2240:	00c0           	.short 0x00c0
    2242:	004e           	.short 0x004e
    2244:	007c 0201      	oriw #513,%sr
    if(status ==0 && (status2&0xe0)==0xc0){
    2248:	ffe0           	.short 0xffe0
    224a:	0c01 ffc0      	cmpib #-64,%d1
    224e:	6712           	beqs 2262 <kmain+0xf8>
  for(int i=0;i<10000;i++){
    2250:	5380           	subql #1,%d0
    2252:	6700 ff78      	beqw 21cc <kmain+0x62>
    uint8_t status2 = *primInd;
    2256:	1210           	moveb %a0@,%d1
    if(status ==0 && (status2&0xe0)==0xc0){
    2258:	0201 ffe0      	andib #-32,%d1
    225c:	0c01 ffc0      	cmpib #-64,%d1
    2260:	66ee           	bnes 2250 <kmain+0xe6>
      printf("OPL3 detected!\r\n");
    2262:	4879 0000 33dd 	pea 33dd <__mulsi3+0x35>
    2268:	4e95           	jsr %a5@
      break;
    226a:	588f           	addql #4,%sp
    uint8_t status2 = *primInd;
    226c:	4205           	clrb %d5
    226e:	4243           	clrw %d3
    2270:	7800           	moveq #0,%d4
    2272:	267c 0000 223a 	moveal #8762,%a3
    2278:	4df9 0000 3405 	lea 3405 <noHeader>,%fp
    227e:	287c 0000 22e6 	moveal #8934,%a4
    2284:	6000 ff5e      	braw 21e4 <kmain+0x7a>
       break;
     case 4:
       reg = noHeader[pointer];
        pointer++;
         data = noHeader[pointer];
        writeReg(reg,data);
    2288:	7000           	moveq #0,%d0
    228a:	1036 2801      	moveb %fp@(1,%d2:l),%d0
    228e:	2f00           	movel %d0,%sp@-
    2290:	1036 2800      	moveb %fp@(0,%d2:l),%d0
       writeReg(reg,data);
    2294:	2f00           	movel %d0,%sp@-
    2296:	4e92           	jsr %a2@
 for(long pointer =0; pointer<96159;pointer++){
    2298:	5482           	addql #2,%d2
       break;
    229a:	508f           	addql #8,%sp
       state = 0;
    229c:	4205           	clrb %d5
    229e:	7800           	moveq #0,%d4
 for(long pointer =0; pointer<96159;pointer++){
    22a0:	0c82 0001 779e 	cmpil #96158,%d2
    22a6:	6e00 ff3c      	bgtw 21e4 <kmain+0x7a>
    22aa:	2079 0001 ab40 	moveal 1ab40 <primInd>,%a0
  return *primInd;
    22b0:	7014           	moveq #20,%d0
    22b2:	6000 ff66      	braw 221a <kmain+0xb0>
   switch(state){
    22b6:	4205           	clrb %d5
    22b8:	363c 0372      	movew #882,%d3
    22bc:	7800           	moveq #0,%d4
  return *primInd;
    22be:	7014           	moveq #20,%d0
    22c0:	6000 ff58      	braw 221a <kmain+0xb0>
        if(noHeader[pointer]==0x5e)
    22c4:	1236 2800      	moveb %fp@(0,%d2:l),%d1
        pointer++;
    22c8:	5282           	addql #1,%d2
    22ca:	1001           	moveb %d1,%d0
    22cc:	0600 ffa6      	addib #-90,%d0
    22d0:	0c00 0009      	cmpib #9,%d0
    22d4:	625e           	bhis 2334 <kmain+0x1ca>
    22d6:	0280 0000 00ff 	andil #255,%d0
    22dc:	d080           	addl %d0,%d0
    22de:	3034 0800      	movew %a4@(0,%d0:l),%d0
    22e2:	4efb 0002      	jmp %pc@(22e6 <kmain+0x17c>,%d0:w)
    22e6:	0064 004e      	oriw #78,%a4@-
    22ea:	004e           	.short 0x004e
    22ec:	004e           	.short 0x004e
    22ee:	0084 007c 004e 	oril #8126542,%d4
    22f4:	0074 004e 006c 	oriw #78,%a4@(6c,%d0:w)
       samplesToDelay = (samplesToDelay)|noHeader[pointer]<<8;
    22fa:	4243           	clrw %d3
    22fc:	1636 2801      	moveb %fp@(1,%d2:l),%d3
    2300:	e14b           	lslw #8,%d3
    2302:	4240           	clrw %d0
    2304:	1036 2800      	moveb %fp@(0,%d2:l),%d0
    2308:	8640           	orw %d0,%d3
 for(long pointer =0; pointer<96159;pointer++){
    230a:	5482           	addql #2,%d2
       state=0;
    230c:	4205           	clrb %d5
    230e:	7800           	moveq #0,%d4
       break;
    2310:	608e           	bras 22a0 <kmain+0x136>
       writeReg(reg,data);
    2312:	7000           	moveq #0,%d0
    2314:	1036 2801      	moveb %fp@(1,%d2:l),%d0
    2318:	2f00           	movel %d0,%sp@-
    231a:	203c 0000 0100 	movel #256,%d0
    2320:	8036 2800      	orb %fp@(0,%d2:l),%d0
    2324:	2f00           	movel %d0,%sp@-
    2326:	4e92           	jsr %a2@
 for(long pointer =0; pointer<96159;pointer++){
    2328:	5482           	addql #2,%d2
       break;
    232a:	508f           	addql #8,%sp
       state = 0;
    232c:	4205           	clrb %d5
    232e:	7800           	moveq #0,%d4
    2330:	6000 ff6e      	braw 22a0 <kmain+0x136>
          printf("Undefined opcode: %x\r\n",noHeader[pointer]);
    2334:	0281 0000 00ff 	andil #255,%d1
    233a:	2f01           	movel %d1,%sp@-
    233c:	4879 0000 33ee 	pea 33ee <__mulsi3+0x46>
    2342:	4e95           	jsr %a5@
    2344:	508f           	addql #8,%sp
    2346:	6000 ff58      	braw 22a0 <kmain+0x136>
        pointer++;
    234a:	7a04           	moveq #4,%d5
    234c:	7804           	moveq #4,%d4
    234e:	6000 ff50      	braw 22a0 <kmain+0x136>
    2352:	7a05           	moveq #5,%d5
    2354:	7805           	moveq #5,%d4
    2356:	6000 ff48      	braw 22a0 <kmain+0x136>
    235a:	7a03           	moveq #3,%d5
    235c:	7803           	moveq #3,%d4
    235e:	6000 ff40      	braw 22a0 <kmain+0x136>
    2362:	7a02           	moveq #2,%d5
    2364:	7802           	moveq #2,%d4
    2366:	6000 ff38      	braw 22a0 <kmain+0x136>
    236a:	7a01           	moveq #1,%d5
    236c:	7801           	moveq #1,%d4
    236e:	6000 ff30      	braw 22a0 <kmain+0x136>
     samplesToDelay--;
    2372:	5343           	subqw #1,%d3
  return *primInd;
    2374:	7014           	moveq #20,%d0
    2376:	6000 fea2      	braw 221a <kmain+0xb0>
        pointer++;
    237a:	5282           	addql #1,%d2
    237c:	6000 ff22      	braw 22a0 <kmain+0x136>

00002380 <_out_null>:

// internal null output
static inline void _out_null(char character, void* buffer, size_t idx, size_t maxlen)
{
  (void)character; (void)buffer; (void)idx; (void)maxlen;
}
    2380:	4e75           	rts

00002382 <_ntoa_long>:
}


// internal itoa for 'long' type
static size_t _ntoa_long(out_fct_type out, char* buffer, size_t idx, size_t maxlen, unsigned long value, bool negative, unsigned long base, unsigned int prec, unsigned int width, unsigned int flags)
{
    2382:	4fef ffcc      	lea %sp@(-52),%sp
    2386:	48e7 3f3e      	moveml %d2-%d7/%a2-%fp,%sp@-
    238a:	246f 0064      	moveal %sp@(100),%a2
    238e:	2a2f 0068      	movel %sp@(104),%d5
    2392:	2c2f 0070      	movel %sp@(112),%d6
    2396:	242f 0074      	movel %sp@(116),%d2
    239a:	262f 007c      	movel %sp@(124),%d3
    239e:	2e2f 0084      	movel %sp@(132),%d7
    23a2:	1f6f 007b 003f 	moveb %sp@(123),%sp@(63)
  if (!value) {
    flags &= ~FLAGS_HASH;
  }

  // write if precision != 0 and value is != 0
  if (!(flags & FLAGS_PRECISION) || value) {
    23a8:	222f 0088      	movel %sp@(136),%d1
    23ac:	0281 0000 0400 	andil #1024,%d1
    23b2:	2f41 0032      	movel %d1,%sp@(50)
  if (!value) {
    23b6:	4a82           	tstl %d2
    23b8:	6700 0174      	beqw 252e <_ntoa_long+0x1ac>
  if (flags & FLAGS_HASH) {
    23bc:	7210           	moveq #16,%d1
    23be:	c2af 0088      	andl %sp@(136),%d1
    23c2:	2f41 0036      	movel %d1,%sp@(54)
    23c6:	082f 0005 008b 	btst #5,%sp@(139)
    23cc:	6600 017e      	bnew 254c <_ntoa_long+0x1ca>
    23d0:	7061           	moveq #97,%d0
    23d2:	41ef 0040      	lea %sp@(64),%a0
    23d6:	2f48 002e      	movel %a0,%sp@(46)
    23da:	4def 0060      	lea %sp@(96),%fp
    do {
      const char digit = (char)(value % base);
      buf[len++] = digit < 10 ? '0' + digit : (flags & FLAGS_UPPERCASE ? 'A' : 'a') + digit - 10;
    23de:	2808           	movel %a0,%d4
    23e0:	49f9 0000 3378 	lea 3378 <__umodsi3>,%a4
    23e6:	47f9 0000 331c 	lea 331c <__udivsi3>,%a3
    23ec:	1200           	moveb %d0,%d1
    23ee:	0601 fff6      	addib #-10,%d1
    23f2:	2f4a 003a      	movel %a2,%sp@(58)
    23f6:	2a45           	moveal %d5,%a5
    23f8:	1a01           	moveb %d1,%d5
      const char digit = (char)(value % base);
    23fa:	2f03           	movel %d3,%sp@-
    23fc:	2f02           	movel %d2,%sp@-
    23fe:	4e94           	jsr %a4@
    2400:	508f           	addql #8,%sp
      buf[len++] = digit < 10 ? '0' + digit : (flags & FLAGS_UPPERCASE ? 'A' : 'a') + digit - 10;
    2402:	7209           	moveq #9,%d1
    2404:	b280           	cmpl %d0,%d1
    2406:	652a           	bcss 2432 <_ntoa_long+0xb0>
    2408:	0600 0030      	addib #48,%d0
    240c:	2444           	moveal %d4,%a2
    240e:	14c0           	moveb %d0,%a2@+
      value /= base;
    2410:	2f03           	movel %d3,%sp@-
    2412:	2f02           	movel %d2,%sp@-
    2414:	4e93           	jsr %a3@
    2416:	508f           	addql #8,%sp
    } while (value && (len < PRINTF_NTOA_BUFFER_SIZE));
    2418:	b682           	cmpl %d2,%d3
    241a:	6228           	bhis 2444 <_ntoa_long+0xc2>
    241c:	bdca           	cmpal %a2,%fp
    241e:	6724           	beqs 2444 <_ntoa_long+0xc2>
    2420:	280a           	movel %a2,%d4
      value /= base;
    2422:	2400           	movel %d0,%d2
      const char digit = (char)(value % base);
    2424:	2f03           	movel %d3,%sp@-
    2426:	2f02           	movel %d2,%sp@-
    2428:	4e94           	jsr %a4@
    242a:	508f           	addql #8,%sp
      buf[len++] = digit < 10 ? '0' + digit : (flags & FLAGS_UPPERCASE ? 'A' : 'a') + digit - 10;
    242c:	7209           	moveq #9,%d1
    242e:	b280           	cmpl %d0,%d1
    2430:	64d6           	bccs 2408 <_ntoa_long+0x86>
    2432:	d005           	addb %d5,%d0
    2434:	2444           	moveal %d4,%a2
    2436:	14c0           	moveb %d0,%a2@+
      value /= base;
    2438:	2f03           	movel %d3,%sp@-
    243a:	2f02           	movel %d2,%sp@-
    243c:	4e93           	jsr %a3@
    243e:	508f           	addql #8,%sp
    } while (value && (len < PRINTF_NTOA_BUFFER_SIZE));
    2440:	b682           	cmpl %d2,%d3
    2442:	63d8           	blss 241c <_ntoa_long+0x9a>
      buf[len++] = digit < 10 ? '0' + digit : (flags & FLAGS_UPPERCASE ? 'A' : 'a') + digit - 10;
    2444:	246f 003a      	moveal %sp@(58),%a2
    2448:	2a0d           	movel %a5,%d5
    244a:	307c 0001      	moveaw #1,%a0
    244e:	91ef 002e      	subal %sp@(46),%a0
    2452:	d888           	addl %a0,%d4
  if (!(flags & FLAGS_LEFT)) {
    2454:	082f 0001 008b 	btst #1,%sp@(139)
    245a:	6700 013e      	beqw 259a <_ntoa_long+0x218>
    245e:	3c7c 0002      	moveaw #2,%fp
  if (flags & FLAGS_HASH) {
    2462:	4aaf 0036      	tstl %sp@(54)
    2466:	6700 023c      	beqw 26a4 <_ntoa_long+0x322>
    if (!(flags & FLAGS_PRECISION) && len && ((len == prec) || (len == width))) {
    246a:	4aaf 0032      	tstl %sp@(50)
    246e:	6600 01aa      	bnew 261a <_ntoa_long+0x298>
    2472:	4a84           	tstl %d4
    2474:	6600 0324      	bnew 279a <_ntoa_long+0x418>
    if ((base == 16U) && !(flags & FLAGS_UPPERCASE) && (len < PRINTF_NTOA_BUFFER_SIZE)) {
    2478:	7010           	moveq #16,%d0
    247a:	b083           	cmpl %d3,%d0
    247c:	6700 0412      	beqw 2890 <_ntoa_long+0x50e>
    else if ((base == 2U) && (len < PRINTF_NTOA_BUFFER_SIZE)) {
    2480:	5583           	subql #2,%d3
    2482:	6700 04b0      	beqw 2934 <_ntoa_long+0x5b2>
      buf[len++] = '0';
    2486:	1f7c 0030 0040 	moveb #48,%sp@(64)
    248c:	202f 0088      	movel %sp@(136),%d0
    2490:	7401           	moveq #1,%d2
  if (!(flags & FLAGS_LEFT) && !(flags & FLAGS_ZEROPAD)) {
    2492:	7203           	moveq #3,%d1
    2494:	c280           	andl %d0,%d1
      buf[len++] = '-';
    2496:	2802           	movel %d2,%d4
    if (negative) {
    2498:	4a2f 003f      	tstb %sp@(63)
    249c:	6700 02dc      	beqw 277a <_ntoa_long+0x3f8>
      buf[len++] = '-';
    24a0:	5284           	addql #1,%d4
    24a2:	1fbc 002d 2840 	moveb #45,%sp@(40,%d2:l)
  if (!(flags & FLAGS_LEFT) && !(flags & FLAGS_ZEROPAD)) {
    24a8:	4a81           	tstl %d1
    24aa:	6600 0194      	bnew 2640 <_ntoa_long+0x2be>
    for (size_t i = len; i < width; i++) {
    24ae:	b887           	cmpl %d7,%d4
    24b0:	6400 018e      	bccw 2640 <_ntoa_long+0x2be>
    24b4:	242f 006c      	movel %sp@(108),%d2
    24b8:	2604           	movel %d4,%d3
    24ba:	9682           	subl %d2,%d3
      out(' ', buffer, idx++, maxlen);
    24bc:	2002           	movel %d2,%d0
    24be:	5282           	addql #1,%d2
    24c0:	2f06           	movel %d6,%sp@-
    24c2:	2f00           	movel %d0,%sp@-
    24c4:	2f05           	movel %d5,%sp@-
    24c6:	4878 0020      	pea 20 <R_STOPCNTCMD+0x2>
    24ca:	4e92           	jsr %a2@
    for (size_t i = len; i < width; i++) {
    24cc:	2003           	movel %d3,%d0
    24ce:	d082           	addl %d2,%d0
    24d0:	4fef 0010      	lea %sp@(16),%sp
    24d4:	be80           	cmpl %d0,%d7
    24d6:	62e4           	bhis 24bc <_ntoa_long+0x13a>
    24d8:	2004           	movel %d4,%d0
    24da:	5280           	addql #1,%d0
    24dc:	be80           	cmpl %d0,%d7
    24de:	6500 033e      	bcsw 281e <_ntoa_long+0x49c>
    24e2:	2047           	moveal %d7,%a0
    24e4:	5388           	subql #1,%a0
    24e6:	91c4           	subal %d4,%a0
    24e8:	226f 006c      	moveal %sp@(108),%a1
    24ec:	43f1 8801      	lea %a1@(1,%a0:l),%a1
    24f0:	2609           	movel %a1,%d3
  while (len) {
    24f2:	4a84           	tstl %d4
    24f4:	6600 014e      	bnew 2644 <_ntoa_long+0x2c2>
    24f8:	2403           	movel %d3,%d2
  if (flags & FLAGS_LEFT) {
    24fa:	bcfc 0000      	cmpaw #0,%fp
    24fe:	6722           	beqs 2522 <_ntoa_long+0x1a0>
    while (idx - start_idx < width) {
    2500:	2602           	movel %d2,%d3
    2502:	96af 006c      	subl %sp@(108),%d3
    2506:	be83           	cmpl %d3,%d7
    2508:	6318           	blss 2522 <_ntoa_long+0x1a0>
      out(' ', buffer, idx++, maxlen);
    250a:	2f06           	movel %d6,%sp@-
    250c:	2f02           	movel %d2,%sp@-
    250e:	5282           	addql #1,%d2
    2510:	2f05           	movel %d5,%sp@-
    2512:	4878 0020      	pea 20 <R_STOPCNTCMD+0x2>
    2516:	4e92           	jsr %a2@
    while (idx - start_idx < width) {
    2518:	5283           	addql #1,%d3
    251a:	4fef 0010      	lea %sp@(16),%sp
    251e:	be83           	cmpl %d3,%d7
    2520:	62e8           	bhis 250a <_ntoa_long+0x188>
  }

  return _ntoa_format(out, buffer, idx, maxlen, buf, len, negative, (unsigned int)base, prec, width, flags);
}
    2522:	2002           	movel %d2,%d0
    2524:	4cdf 7cfc      	moveml %sp@+,%d2-%d7/%a2-%fp
    2528:	4fef 0034      	lea %sp@(52),%sp
    252c:	4e75           	rts
    flags &= ~FLAGS_HASH;
    252e:	70ef           	moveq #-17,%d0
    2530:	c0af 0088      	andl %sp@(136),%d0
  if (!(flags & FLAGS_PRECISION) || value) {
    2534:	4aaf 0032      	tstl %sp@(50)
    2538:	6640           	bnes 257a <_ntoa_long+0x1f8>
    253a:	42af 0036      	clrl %sp@(54)
    flags &= ~FLAGS_HASH;
    253e:	2f40 0088      	movel %d0,%sp@(136)
    2542:	082f 0005 008b 	btst #5,%sp@(139)
    2548:	6700 fe86      	beqw 23d0 <_ntoa_long+0x4e>
    254c:	7041           	moveq #65,%d0
    254e:	41ef 0040      	lea %sp@(64),%a0
    2552:	2f48 002e      	movel %a0,%sp@(46)
    2556:	4def 0060      	lea %sp@(96),%fp
      buf[len++] = digit < 10 ? '0' + digit : (flags & FLAGS_UPPERCASE ? 'A' : 'a') + digit - 10;
    255a:	2808           	movel %a0,%d4
    255c:	49f9 0000 3378 	lea 3378 <__umodsi3>,%a4
    2562:	47f9 0000 331c 	lea 331c <__udivsi3>,%a3
    2568:	1200           	moveb %d0,%d1
    256a:	0601 fff6      	addib #-10,%d1
    256e:	2f4a 003a      	movel %a2,%sp@(58)
    2572:	2a45           	moveal %d5,%a5
    2574:	1a01           	moveb %d1,%d5
    2576:	6000 fe82      	braw 23fa <_ntoa_long+0x78>
  if (!(flags & FLAGS_LEFT)) {
    257a:	7802           	moveq #2,%d4
    257c:	c8af 0088      	andl %sp@(136),%d4
    2580:	082f 0001 008b 	btst #1,%sp@(139)
    2586:	6600 01e0      	bnew 2768 <_ntoa_long+0x3e6>
    258a:	42af 0036      	clrl %sp@(54)
    flags &= ~FLAGS_HASH;
    258e:	2f40 0088      	movel %d0,%sp@(136)
  if (!(flags & FLAGS_PRECISION) || value) {
    2592:	2f7c 0000 0400 	movel #1024,%sp@(50)
    2598:	0032 
    if (width && (flags & FLAGS_ZEROPAD) && (negative || (flags & (FLAGS_PLUS | FLAGS_SPACE)))) {
    259a:	4a87           	tstl %d7
    259c:	6700 012e      	beqw 26cc <_ntoa_long+0x34a>
    25a0:	7001           	moveq #1,%d0
    25a2:	c0af 0088      	andl %sp@(136),%d0
    25a6:	2c40           	moveal %d0,%fp
    25a8:	082f 0000 008b 	btst #0,%sp@(139)
    25ae:	6700 0194      	beqw 2744 <_ntoa_long+0x3c2>
    25b2:	4a2f 003f      	tstb %sp@(63)
    25b6:	6600 0250      	bnew 2808 <_ntoa_long+0x486>
    25ba:	700c           	moveq #12,%d0
    25bc:	c0af 0088      	andl %sp@(136),%d0
    25c0:	6600 0246      	bnew 2808 <_ntoa_long+0x486>
    while ((len < prec) && (len < PRINTF_NTOA_BUFFER_SIZE)) {
    25c4:	b8af 0080      	cmpl %sp@(128),%d4
    25c8:	6400 013a      	bccw 2704 <_ntoa_long+0x382>
    25cc:	7020           	moveq #32,%d0
    25ce:	b084           	cmpl %d4,%d0
    25d0:	6700 030a      	beqw 28dc <_ntoa_long+0x55a>
    25d4:	41f7 4840      	lea %sp@(40,%d4:l),%a0
    25d8:	202f 0080      	movel %sp@(128),%d0
      buf[len++] = '0';
    25dc:	5284           	addql #1,%d4
    25de:	10fc 0030      	moveb #48,%a0@+
    while ((len < prec) && (len < PRINTF_NTOA_BUFFER_SIZE)) {
    25e2:	b880           	cmpl %d0,%d4
    25e4:	6400 0116      	bccw 26fc <_ntoa_long+0x37a>
    25e8:	7220           	moveq #32,%d1
    25ea:	b284           	cmpl %d4,%d1
    25ec:	66ee           	bnes 25dc <_ntoa_long+0x25a>
    while ((flags & FLAGS_ZEROPAD) && (len < width) && (len < PRINTF_NTOA_BUFFER_SIZE)) {
    25ee:	bcfc 0000      	cmpaw #0,%fp
    25f2:	6700 0140      	beqw 2734 <_ntoa_long+0x3b2>
    25f6:	7020           	moveq #32,%d0
    25f8:	b087           	cmpl %d7,%d0
    25fa:	6400 0138      	bccw 2734 <_ntoa_long+0x3b2>
  if (flags & FLAGS_HASH) {
    25fe:	4aaf 0036      	tstl %sp@(54)
    2602:	6700 020a      	beqw 280e <_ntoa_long+0x48c>
    if (!(flags & FLAGS_PRECISION) && len && ((len == prec) || (len == width))) {
    2606:	4aaf 0032      	tstl %sp@(50)
    260a:	6600 0390      	bnew 299c <_ntoa_long+0x61a>
    260e:	7020           	moveq #32,%d0
    2610:	9dce           	subal %fp,%fp
    2612:	b0af 0080      	cmpl %sp@(128),%d0
    2616:	6700 02e8      	beqw 2900 <_ntoa_long+0x57e>
  if (!(flags & FLAGS_LEFT) && !(flags & FLAGS_ZEROPAD)) {
    261a:	7003           	moveq #3,%d0
    261c:	c0af 0088      	andl %sp@(136),%d0
    if ((base == 16U) && !(flags & FLAGS_UPPERCASE) && (len < PRINTF_NTOA_BUFFER_SIZE)) {
    2620:	7210           	moveq #16,%d1
    2622:	b283           	cmpl %d3,%d1
    2624:	6700 0220      	beqw 2846 <_ntoa_long+0x4c4>
    else if ((base == 2U) && (len < PRINTF_NTOA_BUFFER_SIZE)) {
    2628:	5583           	subql #2,%d3
    262a:	6700 01bc      	beqw 27e8 <_ntoa_long+0x466>
    if (len < PRINTF_NTOA_BUFFER_SIZE) {
    262e:	7220           	moveq #32,%d1
    2630:	b284           	cmpl %d4,%d1
    2632:	6666           	bnes 269a <_ntoa_long+0x318>
  if (!(flags & FLAGS_LEFT) && !(flags & FLAGS_ZEROPAD)) {
    2634:	4a80           	tstl %d0
    2636:	6608           	bnes 2640 <_ntoa_long+0x2be>
    for (size_t i = len; i < width; i++) {
    2638:	7220           	moveq #32,%d1
    263a:	b287           	cmpl %d7,%d1
    263c:	6500 fe76      	bcsw 24b4 <_ntoa_long+0x132>
  if (flags & FLAGS_HASH) {
    2640:	262f 006c      	movel %sp@(108),%d3
    2644:	4bef 0040      	lea %sp@(64),%a5
    2648:	47f5 4800      	lea %a5@(0,%d4:l),%a3
    264c:	d684           	addl %d4,%d3
    264e:	49f5 3800      	lea %a5@(0,%d3:l),%a4
    2652:	2403           	movel %d3,%d2
    out(buf[--len], buffer, idx++, maxlen);
    2654:	2f06           	movel %d6,%sp@-
    2656:	200c           	movel %a4,%d0
    2658:	908b           	subl %a3,%d0
    265a:	2f00           	movel %d0,%sp@-
    265c:	2f05           	movel %d5,%sp@-
    265e:	1023           	moveb %a3@-,%d0
    2660:	4880           	extw %d0
    2662:	3040           	moveaw %d0,%a0
    2664:	2f08           	movel %a0,%sp@-
    2666:	4e92           	jsr %a2@
  while (len) {
    2668:	4fef 0010      	lea %sp@(16),%sp
    266c:	b7cd           	cmpal %a5,%a3
    266e:	6700 fe8a      	beqw 24fa <_ntoa_long+0x178>
    2672:	2403           	movel %d3,%d2
    out(buf[--len], buffer, idx++, maxlen);
    2674:	2f06           	movel %d6,%sp@-
    2676:	200c           	movel %a4,%d0
    2678:	908b           	subl %a3,%d0
    267a:	2f00           	movel %d0,%sp@-
    267c:	2f05           	movel %d5,%sp@-
    267e:	1023           	moveb %a3@-,%d0
    2680:	4880           	extw %d0
    2682:	3040           	moveaw %d0,%a0
    2684:	2f08           	movel %a0,%sp@-
    2686:	4e92           	jsr %a2@
  while (len) {
    2688:	4fef 0010      	lea %sp@(16),%sp
    268c:	b7cd           	cmpal %a5,%a3
    268e:	66c2           	bnes 2652 <_ntoa_long+0x2d0>
    2690:	6000 fe68      	braw 24fa <_ntoa_long+0x178>
      buf[len++] = 'X';
    2694:	5384           	subql #1,%d4
    2696:	10bc 0058      	moveb #88,%a0@
      buf[len++] = '0';
    269a:	2004           	movel %d4,%d0
    269c:	5284           	addql #1,%d4
    269e:	1fbc 0030 0840 	moveb #48,%sp@(40,%d0:l)
  if (len < PRINTF_NTOA_BUFFER_SIZE) {
    26a4:	7020           	moveq #32,%d0
    26a6:	b084           	cmpl %d4,%d0
    26a8:	6600 0134      	bnew 27de <_ntoa_long+0x45c>
  if (!(flags & FLAGS_LEFT) && !(flags & FLAGS_ZEROPAD)) {
    26ac:	7003           	moveq #3,%d0
    26ae:	c0af 0088      	andl %sp@(136),%d0
    26b2:	6700 00a8      	beqw 275c <_ntoa_long+0x3da>
  if (flags & FLAGS_HASH) {
    26b6:	262f 006c      	movel %sp@(108),%d3
    26ba:	7820           	moveq #32,%d4
    26bc:	4bef 0040      	lea %sp@(64),%a5
    26c0:	47f5 4800      	lea %a5@(0,%d4:l),%a3
    26c4:	d684           	addl %d4,%d3
    26c6:	49f5 3800      	lea %a5@(0,%d3:l),%a4
    26ca:	6086           	bras 2652 <_ntoa_long+0x2d0>
    while ((len < prec) && (len < PRINTF_NTOA_BUFFER_SIZE)) {
    26cc:	b8af 0080      	cmpl %sp@(128),%d4
    26d0:	6400 0280      	bccw 2952 <_ntoa_long+0x5d0>
    if (width && (flags & FLAGS_ZEROPAD) && (negative || (flags & (FLAGS_PLUS | FLAGS_SPACE)))) {
    26d4:	7201           	moveq #1,%d1
    26d6:	c2af 0088      	andl %sp@(136),%d1
    26da:	2c41           	moveal %d1,%fp
    while ((len < prec) && (len < PRINTF_NTOA_BUFFER_SIZE)) {
    26dc:	7020           	moveq #32,%d0
    26de:	b084           	cmpl %d4,%d0
    26e0:	6600 fef2      	bnew 25d4 <_ntoa_long+0x252>
    while ((flags & FLAGS_ZEROPAD) && (len < width) && (len < PRINTF_NTOA_BUFFER_SIZE)) {
    26e4:	4a81           	tstl %d1
    26e6:	6700 02ba      	beqw 29a2 <_ntoa_long+0x620>
  if (flags & FLAGS_HASH) {
    26ea:	4aaf 0036      	tstl %sp@(54)
    26ee:	6600 02ba      	bnew 29aa <_ntoa_long+0x628>
    26f2:	9dce           	subal %fp,%fp
    26f4:	262f 006c      	movel %sp@(108),%d3
    26f8:	7820           	moveq #32,%d4
    26fa:	60c0           	bras 26bc <_ntoa_long+0x33a>
    while ((flags & FLAGS_ZEROPAD) && (len < width) && (len < PRINTF_NTOA_BUFFER_SIZE)) {
    26fc:	bcfc 0000      	cmpaw #0,%fp
    2700:	6700 fd60      	beqw 2462 <_ntoa_long+0xe0>
    2704:	be84           	cmpl %d4,%d7
    2706:	6300 024a      	blsw 2952 <_ntoa_long+0x5d0>
    270a:	7220           	moveq #32,%d1
    270c:	b284           	cmpl %d4,%d1
    270e:	6700 0270      	beqw 2980 <_ntoa_long+0x5fe>
    2712:	43ef 0040      	lea %sp@(64),%a1
    2716:	41f1 4800      	lea %a1@(0,%d4:l),%a0
    271a:	2009           	movel %a1,%d0
    271c:	d087           	addl %d7,%d0
    271e:	4def 0060      	lea %sp@(96),%fp
      buf[len++] = '0';
    2722:	10bc 0030      	moveb #48,%a0@
    2726:	2208           	movel %a0,%d1
    2728:	5288           	addql #1,%a0
    while ((flags & FLAGS_ZEROPAD) && (len < width) && (len < PRINTF_NTOA_BUFFER_SIZE)) {
    272a:	b1c0           	cmpal %d0,%a0
    272c:	6700 0100      	beqw 282e <_ntoa_long+0x4ac>
    2730:	bdc8           	cmpal %a0,%fp
    2732:	66ee           	bnes 2722 <_ntoa_long+0x3a0>
  if (flags & FLAGS_HASH) {
    2734:	4aaf 0036      	tstl %sp@(54)
    2738:	6700 00d4      	beqw 280e <_ntoa_long+0x48c>
    273c:	9dce           	subal %fp,%fp
    273e:	7820           	moveq #32,%d4
    2740:	6000 fd28      	braw 246a <_ntoa_long+0xe8>
    while ((len < prec) && (len < PRINTF_NTOA_BUFFER_SIZE)) {
    2744:	b8af 0080      	cmpl %sp@(128),%d4
    2748:	6400 fd18      	bccw 2462 <_ntoa_long+0xe0>
    274c:	7220           	moveq #32,%d1
    274e:	b284           	cmpl %d4,%d1
    2750:	6600 fe82      	bnew 25d4 <_ntoa_long+0x252>
  if (flags & FLAGS_HASH) {
    2754:	4aaf 0036      	tstl %sp@(54)
    2758:	6600 0250      	bnew 29aa <_ntoa_long+0x628>
    for (size_t i = len; i < width; i++) {
    275c:	7820           	moveq #32,%d4
    275e:	b887           	cmpl %d7,%d4
    2760:	6500 fd52      	bcsw 24b4 <_ntoa_long+0x132>
    2764:	6000 feda      	braw 2640 <_ntoa_long+0x2be>
  if (!(flags & FLAGS_LEFT)) {
    2768:	3c7c 0002      	moveaw #2,%fp
  if (!(flags & FLAGS_LEFT) && !(flags & FLAGS_ZEROPAD)) {
    276c:	7203           	moveq #3,%d1
    276e:	c280           	andl %d0,%d1
      buf[len++] = '-';
    2770:	2802           	movel %d2,%d4
    if (negative) {
    2772:	4a2f 003f      	tstb %sp@(63)
    2776:	6600 fd28      	bnew 24a0 <_ntoa_long+0x11e>
    else if (flags & FLAGS_PLUS) {
    277a:	0800 0002      	btst #2,%d0
    277e:	6700 00e8      	beqw 2868 <_ntoa_long+0x4e6>
      buf[len++] = '+';  // ignore the space if the '+' exists
    2782:	5284           	addql #1,%d4
    2784:	1fbc 002b 2840 	moveb #43,%sp@(40,%d2:l)
  if (!(flags & FLAGS_LEFT) && !(flags & FLAGS_ZEROPAD)) {
    278a:	4a81           	tstl %d1
    278c:	6600 feb2      	bnew 2640 <_ntoa_long+0x2be>
    for (size_t i = len; i < width; i++) {
    2790:	b887           	cmpl %d7,%d4
    2792:	6500 fd20      	bcsw 24b4 <_ntoa_long+0x132>
    2796:	6000 fea8      	braw 2640 <_ntoa_long+0x2be>
    if (!(flags & FLAGS_PRECISION) && len && ((len == prec) || (len == width))) {
    279a:	b8af 0080      	cmpl %sp@(128),%d4
    279e:	6706           	beqs 27a6 <_ntoa_long+0x424>
    27a0:	be84           	cmpl %d4,%d7
    27a2:	6600 fe76      	bnew 261a <_ntoa_long+0x298>
      len--;
    27a6:	2004           	movel %d4,%d0
    27a8:	5380           	subql #1,%d0
      if (len && (base == 16U)) {
    27aa:	7201           	moveq #1,%d1
    27ac:	b284           	cmpl %d4,%d1
    27ae:	6700 fcc8      	beqw 2478 <_ntoa_long+0xf6>
    27b2:	7210           	moveq #16,%d1
    27b4:	b283           	cmpl %d3,%d1
    27b6:	6700 01a8      	beqw 2960 <_ntoa_long+0x5de>
    else if ((base == 2U) && (len < PRINTF_NTOA_BUFFER_SIZE)) {
    27ba:	7202           	moveq #2,%d1
      len--;
    27bc:	2800           	movel %d0,%d4
    else if ((base == 2U) && (len < PRINTF_NTOA_BUFFER_SIZE)) {
    27be:	b283           	cmpl %d3,%d1
    27c0:	6600 feda      	bnew 269c <_ntoa_long+0x31a>
    27c4:	7003           	moveq #3,%d0
    27c6:	c0af 0088      	andl %sp@(136),%d0
      buf[len++] = 'b';
    27ca:	1fbc 0062 4840 	moveb #98,%sp@(40,%d4:l)
    27d0:	5284           	addql #1,%d4
    if (len < PRINTF_NTOA_BUFFER_SIZE) {
    27d2:	7220           	moveq #32,%d1
    27d4:	b284           	cmpl %d4,%d1
    27d6:	6700 fe5c      	beqw 2634 <_ntoa_long+0x2b2>
    27da:	6000 febe      	braw 269a <_ntoa_long+0x318>
    27de:	202f 0088      	movel %sp@(136),%d0
    27e2:	2404           	movel %d4,%d2
    27e4:	6000 fcac      	braw 2492 <_ntoa_long+0x110>
    else if ((base == 2U) && (len < PRINTF_NTOA_BUFFER_SIZE)) {
    27e8:	7220           	moveq #32,%d1
    27ea:	b284           	cmpl %d4,%d1
    27ec:	66dc           	bnes 27ca <_ntoa_long+0x448>
  if (!(flags & FLAGS_LEFT) && !(flags & FLAGS_ZEROPAD)) {
    27ee:	4a80           	tstl %d0
    27f0:	6600 fe4e      	bnew 2640 <_ntoa_long+0x2be>
    for (size_t i = len; i < width; i++) {
    27f4:	7020           	moveq #32,%d0
    27f6:	b087           	cmpl %d7,%d0
    27f8:	6400 fe46      	bccw 2640 <_ntoa_long+0x2be>
    27fc:	242f 006c      	movel %sp@(108),%d2
    2800:	2604           	movel %d4,%d3
    2802:	9682           	subl %d2,%d3
    2804:	6000 fcb6      	braw 24bc <_ntoa_long+0x13a>
      width--;
    2808:	5387           	subql #1,%d7
    280a:	6000 fdb8      	braw 25c4 <_ntoa_long+0x242>
  if (flags & FLAGS_HASH) {
    280e:	9dce           	subal %fp,%fp
  if (!(flags & FLAGS_LEFT) && !(flags & FLAGS_ZEROPAD)) {
    2810:	7003           	moveq #3,%d0
    2812:	c0af 0088      	andl %sp@(136),%d0
    2816:	6600 fe9e      	bnew 26b6 <_ntoa_long+0x334>
    281a:	6000 ff40      	braw 275c <_ntoa_long+0x3da>
    281e:	91c8           	subal %a0,%a0
    2820:	226f 006c      	moveal %sp@(108),%a1
    2824:	43f1 8801      	lea %a1@(1,%a0:l),%a1
    2828:	2609           	movel %a1,%d3
    282a:	6000 fcc6      	braw 24f2 <_ntoa_long+0x170>
      buf[len++] = '0';
    282e:	307c 0001      	moveaw #1,%a0
    2832:	91c9           	subal %a1,%a0
    2834:	2808           	movel %a0,%d4
    2836:	d881           	addl %d1,%d4
    2838:	9dce           	subal %fp,%fp
  if (flags & FLAGS_HASH) {
    283a:	4aaf 0036      	tstl %sp@(54)
    283e:	6600 fc2a      	bnew 246a <_ntoa_long+0xe8>
    2842:	6000 fe60      	braw 26a4 <_ntoa_long+0x322>
    if ((base == 16U) && !(flags & FLAGS_UPPERCASE) && (len < PRINTF_NTOA_BUFFER_SIZE)) {
    2846:	7220           	moveq #32,%d1
    2848:	082f 0005 008b 	btst #5,%sp@(139)
    284e:	6600 00ca      	bnew 291a <_ntoa_long+0x598>
    2852:	b284           	cmpl %d4,%d1
    2854:	6600 00b0      	bnew 2906 <_ntoa_long+0x584>
  if (!(flags & FLAGS_LEFT) && !(flags & FLAGS_ZEROPAD)) {
    2858:	4a80           	tstl %d0
    285a:	6600 fde4      	bnew 2640 <_ntoa_long+0x2be>
    for (size_t i = len; i < width; i++) {
    285e:	b287           	cmpl %d7,%d1
    2860:	6500 fc52      	bcsw 24b4 <_ntoa_long+0x132>
    2864:	6000 fdda      	braw 2640 <_ntoa_long+0x2be>
    else if (flags & FLAGS_SPACE) {
    2868:	0800 0003      	btst #3,%d0
    286c:	6640           	bnes 28ae <_ntoa_long+0x52c>
  if (!(flags & FLAGS_LEFT) && !(flags & FLAGS_ZEROPAD)) {
    286e:	4a81           	tstl %d1
    2870:	6600 00d8      	bnew 294a <_ntoa_long+0x5c8>
    for (size_t i = len; i < width; i++) {
    2874:	b487           	cmpl %d7,%d2
    2876:	6500 fc3c      	bcsw 24b4 <_ntoa_long+0x132>
  while (len) {
    287a:	4a82           	tstl %d2
    287c:	6600 fdc2      	bnew 2640 <_ntoa_long+0x2be>
    2880:	242f 006c      	movel %sp@(108),%d2
}
    2884:	2002           	movel %d2,%d0
    2886:	4cdf 7cfc      	moveml %sp@+,%d2-%d7/%a2-%fp
    288a:	4fef 0034      	lea %sp@(52),%sp
    288e:	4e75           	rts
    if ((base == 16U) && !(flags & FLAGS_UPPERCASE) && (len < PRINTF_NTOA_BUFFER_SIZE)) {
    2890:	082f 0005 008b 	btst #5,%sp@(139)
    2896:	662e           	bnes 28c6 <_ntoa_long+0x544>
      buf[len++] = 'x';
    2898:	1f7c 0078 0040 	moveb #120,%sp@(64)
      buf[len++] = '0';
    289e:	1f7c 0030 0041 	moveb #48,%sp@(65)
  if (!(flags & FLAGS_LEFT)) {
    28a4:	202f 0088      	movel %sp@(136),%d0
      buf[len++] = '0';
    28a8:	7402           	moveq #2,%d2
    28aa:	6000 fbe6      	braw 2492 <_ntoa_long+0x110>
      buf[len++] = ' ';
    28ae:	5284           	addql #1,%d4
    28b0:	1fbc 0020 2840 	moveb #32,%sp@(40,%d2:l)
  if (!(flags & FLAGS_LEFT) && !(flags & FLAGS_ZEROPAD)) {
    28b6:	4a81           	tstl %d1
    28b8:	6600 fd86      	bnew 2640 <_ntoa_long+0x2be>
    for (size_t i = len; i < width; i++) {
    28bc:	b887           	cmpl %d7,%d4
    28be:	6500 fbf4      	bcsw 24b4 <_ntoa_long+0x132>
    28c2:	6000 fd7c      	braw 2640 <_ntoa_long+0x2be>
      buf[len++] = 'X';
    28c6:	1f7c 0058 0040 	moveb #88,%sp@(64)
      buf[len++] = '0';
    28cc:	1f7c 0030 0041 	moveb #48,%sp@(65)
  if (!(flags & FLAGS_LEFT)) {
    28d2:	202f 0088      	movel %sp@(136),%d0
      buf[len++] = '0';
    28d6:	7402           	moveq #2,%d2
    28d8:	6000 fbb8      	braw 2492 <_ntoa_long+0x110>
    while ((flags & FLAGS_ZEROPAD) && (len < width) && (len < PRINTF_NTOA_BUFFER_SIZE)) {
    28dc:	7220           	moveq #32,%d1
    28de:	b287           	cmpl %d7,%d1
    28e0:	6400 fe08      	bccw 26ea <_ntoa_long+0x368>
  if (flags & FLAGS_HASH) {
    28e4:	4aaf 0036      	tstl %sp@(54)
    28e8:	6700 ff24      	beqw 280e <_ntoa_long+0x48c>
    if (!(flags & FLAGS_PRECISION) && len && ((len == prec) || (len == width))) {
    28ec:	4aaf 0032      	tstl %sp@(50)
    28f0:	6600 00aa      	bnew 299c <_ntoa_long+0x61a>
    28f4:	7220           	moveq #32,%d1
    28f6:	9dce           	subal %fp,%fp
    28f8:	b2af 0080      	cmpl %sp@(128),%d1
    28fc:	6600 fd1c      	bnew 261a <_ntoa_long+0x298>
      len--;
    2900:	701f           	moveq #31,%d0
    2902:	6000 feae      	braw 27b2 <_ntoa_long+0x430>
      buf[len++] = 'x';
    2906:	1fbc 0078 4840 	moveb #120,%sp@(40,%d4:l)
    290c:	5284           	addql #1,%d4
    if (len < PRINTF_NTOA_BUFFER_SIZE) {
    290e:	7220           	moveq #32,%d1
    2910:	b284           	cmpl %d4,%d1
    2912:	6700 fd20      	beqw 2634 <_ntoa_long+0x2b2>
    2916:	6000 fd82      	braw 269a <_ntoa_long+0x318>
    else if ((base == 16U) && (flags & FLAGS_UPPERCASE) && (len < PRINTF_NTOA_BUFFER_SIZE)) {
    291a:	b284           	cmpl %d4,%d1
    291c:	6700 fed0      	beqw 27ee <_ntoa_long+0x46c>
      buf[len++] = 'X';
    2920:	1fbc 0058 4840 	moveb #88,%sp@(40,%d4:l)
    2926:	5284           	addql #1,%d4
    if (len < PRINTF_NTOA_BUFFER_SIZE) {
    2928:	7220           	moveq #32,%d1
    292a:	b284           	cmpl %d4,%d1
    292c:	6700 fd06      	beqw 2634 <_ntoa_long+0x2b2>
    2930:	6000 fd68      	braw 269a <_ntoa_long+0x318>
      buf[len++] = 'b';
    2934:	1f7c 0062 0040 	moveb #98,%sp@(64)
      buf[len++] = '0';
    293a:	1f7c 0030 0041 	moveb #48,%sp@(65)
  if (!(flags & FLAGS_LEFT)) {
    2940:	202f 0088      	movel %sp@(136),%d0
      buf[len++] = '0';
    2944:	7402           	moveq #2,%d2
    2946:	6000 fb4a      	braw 2492 <_ntoa_long+0x110>
    294a:	262f 006c      	movel %sp@(108),%d3
    294e:	6000 fba2      	braw 24f2 <_ntoa_long+0x170>
    while ((flags & FLAGS_ZEROPAD) && (len < width) && (len < PRINTF_NTOA_BUFFER_SIZE)) {
    2952:	9dce           	subal %fp,%fp
  if (flags & FLAGS_HASH) {
    2954:	4aaf 0036      	tstl %sp@(54)
    2958:	6600 fb10      	bnew 246a <_ntoa_long+0xe8>
    295c:	6000 fd46      	braw 26a4 <_ntoa_long+0x322>
      buf[len++] = 'x';
    2960:	41f7 483e      	lea %sp@(3e,%d4:l),%a0
    if ((base == 16U) && !(flags & FLAGS_UPPERCASE) && (len < PRINTF_NTOA_BUFFER_SIZE)) {
    2964:	082f 0005 008b 	btst #5,%sp@(139)
    296a:	6600 fd28      	bnew 2694 <_ntoa_long+0x312>
      buf[len++] = 'x';
    296e:	2004           	movel %d4,%d0
    2970:	5380           	subql #1,%d0
    2972:	10bc 0078      	moveb #120,%a0@
      buf[len++] = '0';
    2976:	1fbc 0030 0840 	moveb #48,%sp@(40,%d0:l)
    297c:	6000 fd26      	braw 26a4 <_ntoa_long+0x322>
  if (flags & FLAGS_HASH) {
    2980:	4aaf 0036      	tstl %sp@(54)
    2984:	6700 fe88      	beqw 280e <_ntoa_long+0x48c>
    if (!(flags & FLAGS_PRECISION) && len && ((len == prec) || (len == width))) {
    2988:	4aaf 0032      	tstl %sp@(50)
    298c:	660e           	bnes 299c <_ntoa_long+0x61a>
    298e:	7020           	moveq #32,%d0
    2990:	b0af 0080      	cmpl %sp@(128),%d0
    2994:	6738           	beqs 29ce <_ntoa_long+0x64c>
    2996:	7220           	moveq #32,%d1
    2998:	b287           	cmpl %d7,%d1
    299a:	6732           	beqs 29ce <_ntoa_long+0x64c>
    299c:	9dce           	subal %fp,%fp
    299e:	6000 fc7a      	braw 261a <_ntoa_long+0x298>
  if (flags & FLAGS_HASH) {
    29a2:	4aaf 0036      	tstl %sp@(54)
    29a6:	6700 fc98      	beqw 2640 <_ntoa_long+0x2be>
    if (!(flags & FLAGS_PRECISION) && len && ((len == prec) || (len == width))) {
    29aa:	4aaf 0032      	tstl %sp@(50)
    29ae:	6708           	beqs 29b8 <_ntoa_long+0x636>
    29b0:	9dce           	subal %fp,%fp
    29b2:	7820           	moveq #32,%d4
    29b4:	6000 fc64      	braw 261a <_ntoa_long+0x298>
    29b8:	7020           	moveq #32,%d0
    29ba:	7820           	moveq #32,%d4
    29bc:	b0af 0080      	cmpl %sp@(128),%d0
    29c0:	6714           	beqs 29d6 <_ntoa_long+0x654>
    29c2:	9dce           	subal %fp,%fp
    29c4:	be84           	cmpl %d4,%d7
    29c6:	6600 fc52      	bnew 261a <_ntoa_long+0x298>
    29ca:	6000 fdda      	braw 27a6 <_ntoa_long+0x424>
    29ce:	9dce           	subal %fp,%fp
      len--;
    29d0:	701f           	moveq #31,%d0
    29d2:	6000 fdde      	braw 27b2 <_ntoa_long+0x430>
    29d6:	701f           	moveq #31,%d0
    if (!(flags & FLAGS_PRECISION) && len && ((len == prec) || (len == width))) {
    29d8:	9dce           	subal %fp,%fp
    29da:	6000 fdd6      	braw 27b2 <_ntoa_long+0x430>

000029de <_out_char>:
{
    29de:	202f 0004      	movel %sp@(4),%d0
  if (character) {
    29e2:	4a00           	tstb %d0
    29e4:	6602           	bnes 29e8 <_out_char+0xa>
}
    29e6:	4e75           	rts
    _putchar(character);
    29e8:	4880           	extw %d0
    29ea:	3040           	moveaw %d0,%a0
    29ec:	2f48 0004      	movel %a0,%sp@(4)
    29f0:	4ef9 0000 322a 	jmp 322a <_putchar>

000029f6 <_vsnprintf>:
#endif  // PRINTF_SUPPORT_FLOAT


// internal vsnprintf
static int _vsnprintf(out_fct_type out, char* buffer, const size_t maxlen, const char* format, va_list va)
{
    29f6:	4fef fff4      	lea %sp@(-12),%sp
    29fa:	48e7 3f3e      	moveml %d2-%d7/%a2-%fp,%sp@-
    29fe:	2a6f 003c      	moveal %sp@(60),%a5
    2a02:	2c2f 0040      	movel %sp@(64),%d6
    2a06:	242f 0044      	movel %sp@(68),%d2
    2a0a:	286f 0048      	moveal %sp@(72),%a4
    2a0e:	262f 004c      	movel %sp@(76),%d3
  unsigned int flags, width, precision, n;
  size_t idx = 0U;

  if (!buffer) {
    2a12:	4a86           	tstl %d6
    2a14:	6700 023e      	beqw 2c54 <_vsnprintf+0x25e>
    // use null output function
    out = _out_null;
  }

  while (*format)
    2a18:	1014           	moveb %a4@,%d0
    2a1a:	95ca           	subal %a2,%a2
    2a1c:	4a00           	tstb %d0
    2a1e:	6700 0244      	beqw 2c64 <_vsnprintf+0x26e>
    }

    // evaluate flags
    flags = 0U;
    do {
      switch (*format) {
    2a22:	2c7c 0000 2a92 	moveal #10898,%fp
      format++;
    2a28:	528c           	addql #1,%a4
    if (*format != '%') {
    2a2a:	0c00 0025      	cmpib #37,%d0
    2a2e:	6740           	beqs 2a70 <_vsnprintf+0x7a>
      out(*format, buffer, idx++, maxlen);
    2a30:	280a           	movel %a2,%d4
    2a32:	5284           	addql #1,%d4
    2a34:	2f02           	movel %d2,%sp@-
    2a36:	2f0a           	movel %a2,%sp@-
    2a38:	2f06           	movel %d6,%sp@-
    2a3a:	4880           	extw %d0
    2a3c:	3040           	moveaw %d0,%a0
    2a3e:	2f08           	movel %a0,%sp@-
    2a40:	4e95           	jsr %a5@
      continue;
    2a42:	4fef 0010      	lea %sp@(16),%sp
      out(*format, buffer, idx++, maxlen);
    2a46:	2444           	moveal %d4,%a2
  while (*format)
    2a48:	1014           	moveb %a4@,%d0
    2a4a:	66dc           	bnes 2a28 <_vsnprintf+0x32>

  // termination
  out((char)0, buffer, idx < maxlen ? idx : maxlen - 1U, maxlen);

  // return written chars without terminating \0
  return (int)idx;
    2a4c:	260a           	movel %a2,%d3
  out((char)0, buffer, idx < maxlen ? idx : maxlen - 1U, maxlen);
    2a4e:	b5c2           	cmpal %d2,%a2
    2a50:	6504           	bcss 2a56 <_vsnprintf+0x60>
    2a52:	2442           	moveal %d2,%a2
    2a54:	538a           	subql #1,%a2
    2a56:	2f02           	movel %d2,%sp@-
    2a58:	2f0a           	movel %a2,%sp@-
    2a5a:	2f06           	movel %d6,%sp@-
    2a5c:	42a7           	clrl %sp@-
    2a5e:	4e95           	jsr %a5@
  return (int)idx;
    2a60:	4fef 0010      	lea %sp@(16),%sp
}
    2a64:	2003           	movel %d3,%d0
    2a66:	4cdf 7cfc      	moveml %sp@+,%d2-%d7/%a2-%fp
    2a6a:	4fef 000c      	lea %sp@(12),%sp
    2a6e:	4e75           	rts
    flags = 0U;
    2a70:	7200           	moveq #0,%d1
      switch (*format) {
    2a72:	204c           	moveal %a4,%a0
    2a74:	1018           	moveb %a0@+,%d0
    2a76:	1800           	moveb %d0,%d4
    2a78:	0604 ffe0      	addib #-32,%d4
    2a7c:	0c04 0010      	cmpib #16,%d4
    2a80:	6232           	bhis 2ab4 <_vsnprintf+0xbe>
    2a82:	0284 0000 00ff 	andil #255,%d4
    2a88:	d884           	addl %d4,%d4
    2a8a:	3276 4800      	moveaw %fp@(0,%d4:l),%a1
    2a8e:	4efb 9002      	jmp %pc@(2a92 <_vsnprintf+0x9c>,%a1:w)
    2a92:	00e2           	.short 0x00e2
    2a94:	0022 0022      	orib #34,%a2@-
    2a98:	00d8           	.short 0x00d8
    2a9a:	0022 0022      	orib #34,%a2@-
    2a9e:	0022 0022      	orib #34,%a2@-
    2aa2:	0022 0022      	orib #34,%a2@-
    2aa6:	0022 00ce      	orib #-50,%a2@-
    2aaa:	0022 00c4      	orib #-60,%a2@-
    2aae:	0022 0022      	orib #34,%a2@-
    2ab2:	00ba           	.short 0x00ba
  return (ch >= '0') && (ch <= '9');
    2ab4:	1800           	moveb %d0,%d4
    2ab6:	0604 ffd0      	addib #-48,%d4
    if (_is_digit(*format)) {
    2aba:	0c04 0009      	cmpib #9,%d4
    2abe:	6300 00be      	blsw 2b7e <_vsnprintf+0x188>
    else if (*format == '*') {
    2ac2:	0c00 002a      	cmpib #42,%d0
    2ac6:	6700 0172      	beqw 2c3a <_vsnprintf+0x244>
    width = 0U;
    2aca:	97cb           	subal %a3,%a3
    if (*format == '.') {
    2acc:	0c00 002e      	cmpib #46,%d0
    2ad0:	6700 00fc      	beqw 2bce <_vsnprintf+0x1d8>
    precision = 0U;
    2ad4:	7e00           	moveq #0,%d7
        format++;
    2ad6:	2808           	movel %a0,%d4
    switch (*format) {
    2ad8:	0c00 006c      	cmpib #108,%d0
    2adc:	6700 011e      	beqw 2bfc <_vsnprintf+0x206>
    2ae0:	0c00 006c      	cmpib #108,%d0
    2ae4:	6e00 0136      	bgtw 2c1c <_vsnprintf+0x226>
    2ae8:	0c00 0068      	cmpib #104,%d0
    2aec:	6700 02c8      	beqw 2db6 <_vsnprintf+0x3c0>
    2af0:	0c00 006a      	cmpib #106,%d0
    2af4:	6600 017a      	bnew 2c70 <_vsnprintf+0x27a>
        flags |= (sizeof(intmax_t) == sizeof(long) ? FLAGS_LONG : FLAGS_LONG_LONG);
    2af8:	0041 0200      	oriw #512,%d1
        if (*format == 'l') {
    2afc:	102c 0001      	moveb %a4@(1),%d0
        format++;
    2b00:	2844           	moveal %d4,%a4
    2b02:	528c           	addql #1,%a4
    switch (*format) {
    2b04:	0c00 0078      	cmpib #120,%d0
    2b08:	6e00 0198      	bgtw 2ca2 <_vsnprintf+0x2ac>
    2b0c:	0c00 0063      	cmpib #99,%d0
    2b10:	6e00 0168      	bgtw 2c7a <_vsnprintf+0x284>
    2b14:	0c00 0062      	cmpib #98,%d0
    2b18:	6700 05de      	beqw 30f8 <_vsnprintf+0x702>
    2b1c:	0c00 0063      	cmpib #99,%d0
    2b20:	6700 0362      	beqw 2e84 <_vsnprintf+0x48e>
    2b24:	0c00 0025      	cmpib #37,%d0
    2b28:	6600 050a      	bnew 3034 <_vsnprintf+0x63e>
        out('%', buffer, idx++, maxlen);
    2b2c:	280a           	movel %a2,%d4
    2b2e:	5284           	addql #1,%d4
    2b30:	2f02           	movel %d2,%sp@-
    2b32:	2f0a           	movel %a2,%sp@-
    2b34:	2f06           	movel %d6,%sp@-
    2b36:	4878 0025      	pea 25 <R_STOPCNTCMD+0x7>
    2b3a:	4e95           	jsr %a5@
        break;
    2b3c:	4fef 0010      	lea %sp@(16),%sp
        out('%', buffer, idx++, maxlen);
    2b40:	2444           	moveal %d4,%a2
  while (*format)
    2b42:	1014           	moveb %a4@,%d0
    2b44:	6600 fee2      	bnew 2a28 <_vsnprintf+0x32>
    2b48:	6000 ff02      	braw 2a4c <_vsnprintf+0x56>
        case '0': flags |= FLAGS_ZEROPAD; format++; n = 1U; break;
    2b4c:	7001           	moveq #1,%d0
    2b4e:	8280           	orl %d0,%d1
  while (*format)
    2b50:	2848           	moveal %a0,%a4
    2b52:	6000 ff1e      	braw 2a72 <_vsnprintf+0x7c>
        case '-': flags |= FLAGS_LEFT;    format++; n = 1U; break;
    2b56:	7a02           	moveq #2,%d5
    2b58:	8285           	orl %d5,%d1
  while (*format)
    2b5a:	2848           	moveal %a0,%a4
    2b5c:	6000 ff14      	braw 2a72 <_vsnprintf+0x7c>
        case '+': flags |= FLAGS_PLUS;    format++; n = 1U; break;
    2b60:	7004           	moveq #4,%d0
    2b62:	8280           	orl %d0,%d1
  while (*format)
    2b64:	2848           	moveal %a0,%a4
    2b66:	6000 ff0a      	braw 2a72 <_vsnprintf+0x7c>
        case '#': flags |= FLAGS_HASH;    format++; n = 1U; break;
    2b6a:	7010           	moveq #16,%d0
    2b6c:	8280           	orl %d0,%d1
  while (*format)
    2b6e:	2848           	moveal %a0,%a4
    2b70:	6000 ff00      	braw 2a72 <_vsnprintf+0x7c>
        case ' ': flags |= FLAGS_SPACE;   format++; n = 1U; break;
    2b74:	7a08           	moveq #8,%d5
    2b76:	8285           	orl %d5,%d1
  while (*format)
    2b78:	2848           	moveal %a0,%a4
    2b7a:	6000 fef6      	braw 2a72 <_vsnprintf+0x7c>
  unsigned int i = 0U;
    2b7e:	97cb           	subal %a3,%a3
    i = i * 10U + (unsigned int)(*((*str)++) - '0');
    2b80:	2848           	moveal %a0,%a4
    2b82:	43f3 b800      	lea %a3@(0,%a3:l),%a1
    2b86:	d3c9           	addal %a1,%a1
    2b88:	47f1 b800      	lea %a1@(0,%a3:l),%a3
    2b8c:	d7cb           	addal %a3,%a3
    2b8e:	4880           	extw %d0
    2b90:	47f3 00d0      	lea %a3@(ffffffffffffffd0,%d0:w),%a3
  while (_is_digit(**str)) {
    2b94:	1010           	moveb %a0@,%d0
  return (ch >= '0') && (ch <= '9');
    2b96:	1800           	moveb %d0,%d4
    2b98:	0604 ffd0      	addib #-48,%d4
    2b9c:	5288           	addql #1,%a0
  while (_is_digit(**str)) {
    2b9e:	0c04 0009      	cmpib #9,%d4
    2ba2:	6200 ff28      	bhiw 2acc <_vsnprintf+0xd6>
    i = i * 10U + (unsigned int)(*((*str)++) - '0');
    2ba6:	2848           	moveal %a0,%a4
    2ba8:	43f3 b800      	lea %a3@(0,%a3:l),%a1
    2bac:	d3c9           	addal %a1,%a1
    2bae:	47f1 b800      	lea %a1@(0,%a3:l),%a3
    2bb2:	d7cb           	addal %a3,%a3
    2bb4:	4880           	extw %d0
    2bb6:	47f3 00d0      	lea %a3@(ffffffffffffffd0,%d0:w),%a3
  while (_is_digit(**str)) {
    2bba:	1010           	moveb %a0@,%d0
  return (ch >= '0') && (ch <= '9');
    2bbc:	1800           	moveb %d0,%d4
    2bbe:	0604 ffd0      	addib #-48,%d4
    2bc2:	5288           	addql #1,%a0
  while (_is_digit(**str)) {
    2bc4:	0c04 0009      	cmpib #9,%d4
    2bc8:	63b6           	blss 2b80 <_vsnprintf+0x18a>
    2bca:	6000 ff00      	braw 2acc <_vsnprintf+0xd6>
      flags |= FLAGS_PRECISION;
    2bce:	0041 0400      	oriw #1024,%d1
      if (_is_digit(*format)) {
    2bd2:	102c 0001      	moveb %a4@(1),%d0
  return (ch >= '0') && (ch <= '9');
    2bd6:	1a00           	moveb %d0,%d5
    2bd8:	0605 ffd0      	addib #-48,%d5
      if (_is_digit(*format)) {
    2bdc:	0c05 0009      	cmpib #9,%d5
    2be0:	6300 02f6      	blsw 2ed8 <_vsnprintf+0x4e2>
      else if (*format == '*') {
    2be4:	0c00 002a      	cmpib #42,%d0
    2be8:	6700 0334      	beqw 2f1e <_vsnprintf+0x528>
      format++;
    2bec:	2848           	moveal %a0,%a4
    precision = 0U;
    2bee:	7e00           	moveq #0,%d7
    2bf0:	5288           	addql #1,%a0
        format++;
    2bf2:	2808           	movel %a0,%d4
    switch (*format) {
    2bf4:	0c00 006c      	cmpib #108,%d0
    2bf8:	6600 fee6      	bnew 2ae0 <_vsnprintf+0xea>
        if (*format == 'l') {
    2bfc:	102c 0001      	moveb %a4@(1),%d0
    2c00:	0c00 006c      	cmpib #108,%d0
    2c04:	6700 040a      	beqw 3010 <_vsnprintf+0x61a>
        flags |= FLAGS_LONG;
    2c08:	0041 0100      	oriw #256,%d1
        format++;
    2c0c:	2844           	moveal %d4,%a4
    2c0e:	528c           	addql #1,%a4
    switch (*format) {
    2c10:	0c00 0078      	cmpib #120,%d0
    2c14:	6f00 fef6      	blew 2b0c <_vsnprintf+0x116>
    2c18:	6000 0088      	braw 2ca2 <_vsnprintf+0x2ac>
    switch (*format) {
    2c1c:	0c00 007a      	cmpib #122,%d0
    2c20:	6600 00a2      	bnew 2cc4 <_vsnprintf+0x2ce>
        flags |= (sizeof(size_t) == sizeof(long) ? FLAGS_LONG : FLAGS_LONG_LONG);
    2c24:	0041 0100      	oriw #256,%d1
        if (*format == 'l') {
    2c28:	102c 0001      	moveb %a4@(1),%d0
        format++;
    2c2c:	2844           	moveal %d4,%a4
    2c2e:	528c           	addql #1,%a4
    switch (*format) {
    2c30:	0c00 0078      	cmpib #120,%d0
    2c34:	6f00 fed6      	blew 2b0c <_vsnprintf+0x116>
    2c38:	6068           	bras 2ca2 <_vsnprintf+0x2ac>
      const int w = va_arg(va, int);
    2c3a:	2243           	moveal %d3,%a1
    2c3c:	2659           	moveal %a1@+,%a3
    2c3e:	2609           	movel %a1,%d3
      if (w < 0) {
    2c40:	b6fc 0000      	cmpaw #0,%a3
    2c44:	6d00 0124      	bltw 2d6a <_vsnprintf+0x374>
    if (*format == '.') {
    2c48:	102c 0001      	moveb %a4@(1),%d0
      format++;
    2c4c:	2848           	moveal %a0,%a4
    2c4e:	5288           	addql #1,%a0
    2c50:	6000 fe7a      	braw 2acc <_vsnprintf+0xd6>
    out = _out_null;
    2c54:	4bf9 0000 2380 	lea 2380 <_out_null>,%a5
  while (*format)
    2c5a:	1014           	moveb %a4@,%d0
    2c5c:	95ca           	subal %a2,%a2
    2c5e:	4a00           	tstb %d0
    2c60:	6600 fdc0      	bnew 2a22 <_vsnprintf+0x2c>
    2c64:	7600           	moveq #0,%d3
  out((char)0, buffer, idx < maxlen ? idx : maxlen - 1U, maxlen);
    2c66:	b5c2           	cmpal %d2,%a2
    2c68:	6500 fdec      	bcsw 2a56 <_vsnprintf+0x60>
    2c6c:	6000 fde4      	braw 2a52 <_vsnprintf+0x5c>
        format++;
    2c70:	2848           	moveal %a0,%a4
    switch (*format) {
    2c72:	0c00 0063      	cmpib #99,%d0
    2c76:	6f00 fe9c      	blew 2b14 <_vsnprintf+0x11e>
    2c7a:	1a00           	moveb %d0,%d5
    2c7c:	0605 ff9c      	addib #-100,%d5
    2c80:	0285 0000 00ff 	andil #255,%d5
    2c86:	7801           	moveq #1,%d4
    2c88:	ebac           	lsll %d5,%d4
    2c8a:	0284 0012 0821 	andil #1181729,%d4
    2c90:	6652           	bnes 2ce4 <_vsnprintf+0x2ee>
    2c92:	0c00 0073      	cmpib #115,%d0
    2c96:	6700 0140      	beqw 2dd8 <_vsnprintf+0x3e2>
    2c9a:	0c00 0070      	cmpib #112,%d0
    2c9e:	6700 00e0      	beqw 2d80 <_vsnprintf+0x38a>
        out(*format, buffer, idx++, maxlen);
    2ca2:	280a           	movel %a2,%d4
    2ca4:	5284           	addql #1,%d4
    2ca6:	2f02           	movel %d2,%sp@-
    2ca8:	2f0a           	movel %a2,%sp@-
    2caa:	2f06           	movel %d6,%sp@-
    2cac:	4880           	extw %d0
    2cae:	3240           	moveaw %d0,%a1
    2cb0:	2f09           	movel %a1,%sp@-
    2cb2:	4e95           	jsr %a5@
        break;
    2cb4:	4fef 0010      	lea %sp@(16),%sp
        out(*format, buffer, idx++, maxlen);
    2cb8:	2444           	moveal %d4,%a2
  while (*format)
    2cba:	1014           	moveb %a4@,%d0
    2cbc:	6600 fd6a      	bnew 2a28 <_vsnprintf+0x32>
    2cc0:	6000 fd8a      	braw 2a4c <_vsnprintf+0x56>
        format++;
    2cc4:	2848           	moveal %a0,%a4
    switch (*format) {
    2cc6:	0c00 0078      	cmpib #120,%d0
    2cca:	6ed6           	bgts 2ca2 <_vsnprintf+0x2ac>
    2ccc:	1a00           	moveb %d0,%d5
    2cce:	0605 ff9c      	addib #-100,%d5
    2cd2:	0285 0000 00ff 	andil #255,%d5
    2cd8:	7801           	moveq #1,%d4
    2cda:	ebac           	lsll %d5,%d4
    2cdc:	0284 0012 0821 	andil #1181729,%d4
    2ce2:	67ae           	beqs 2c92 <_vsnprintf+0x29c>
        if (*format == 'x' || *format == 'X') {
    2ce4:	0c00 006f      	cmpib #111,%d0
    2ce8:	6700 025c      	beqw 2f46 <_vsnprintf+0x550>
    2cec:	6e00 03f2      	bgtw 30e0 <_vsnprintf+0x6ea>
          flags &= ~FLAGS_HASH;   // no hash for dec format
    2cf0:	78ef           	moveq #-17,%d4
    2cf2:	c881           	andl %d1,%d4
        if ((*format != 'i') && (*format != 'd')) {
    2cf4:	0c00 0069      	cmpib #105,%d0
    2cf8:	6600 045e      	bnew 3158 <_vsnprintf+0x762>
        if (flags & FLAGS_PRECISION) {
    2cfc:	0801 000a      	btst #10,%d1
    2d00:	6704           	beqs 2d06 <_vsnprintf+0x310>
          flags &= ~FLAGS_ZEROPAD;
    2d02:	78ee           	moveq #-18,%d4
    2d04:	c881           	andl %d1,%d4
          if (flags & FLAGS_LONG_LONG) {
    2d06:	0804 0009      	btst #9,%d4
    2d0a:	6600 fd3c      	bnew 2a48 <_vsnprintf+0x52>
            const long value = va_arg(va, long);
    2d0e:	2a03           	movel %d3,%d5
    2d10:	5885           	addql #4,%d5
          else if (flags & FLAGS_LONG) {
    2d12:	0804 0008      	btst #8,%d4
    2d16:	6600 0470      	bnew 3188 <_vsnprintf+0x792>
            const int value = (flags & FLAGS_CHAR) ? (char)va_arg(va, int) : (flags & FLAGS_SHORT) ? (short int)va_arg(va, int) : va_arg(va, int);
    2d1a:	0804 0006      	btst #6,%d4
    2d1e:	6600 03e0      	bnew 3100 <_vsnprintf+0x70a>
    2d22:	4a04           	tstb %d4
    2d24:	6a00 04ac      	bplw 31d2 <_vsnprintf+0x7dc>
    2d28:	2043           	moveal %d3,%a0
    2d2a:	2010           	movel %a0@,%d0
    2d2c:	48c0           	extl %d0
            idx = _ntoa_long(out, buffer, idx, maxlen, (unsigned int)(value > 0 ? value : 0 - value), value < 0, base, precision, width, flags);
    2d2e:	2f04           	movel %d4,%sp@-
    2d30:	2f0b           	movel %a3,%sp@-
    2d32:	2f07           	movel %d7,%sp@-
    2d34:	4878 000a      	pea a <DUART_IMR>
    2d38:	2200           	movel %d0,%d1
    2d3a:	d281           	addl %d1,%d1
    2d3c:	9381           	subxl %d1,%d1
    2d3e:	4481           	negl %d1
    2d40:	2f01           	movel %d1,%sp@-
    2d42:	4a80           	tstl %d0
    2d44:	6d00 03dc      	bltw 3122 <_vsnprintf+0x72c>
    2d48:	2f00           	movel %d0,%sp@-
    2d4a:	2f02           	movel %d2,%sp@-
    2d4c:	2f0a           	movel %a2,%sp@-
    2d4e:	2f06           	movel %d6,%sp@-
    2d50:	2f0d           	movel %a5,%sp@-
    2d52:	4eb9 0000 2382 	jsr 2382 <_ntoa_long>
    2d58:	2440           	moveal %d0,%a2
    2d5a:	4fef 0028      	lea %sp@(40),%sp
    2d5e:	2605           	movel %d5,%d3
  while (*format)
    2d60:	1014           	moveb %a4@,%d0
    2d62:	6600 fcc4      	bnew 2a28 <_vsnprintf+0x32>
    2d66:	6000 fce4      	braw 2a4c <_vsnprintf+0x56>
        flags |= FLAGS_LEFT;    // reverse padding
    2d6a:	7002           	moveq #2,%d0
    2d6c:	8280           	orl %d0,%d1
        width = (unsigned int)-w;
    2d6e:	2a0b           	movel %a3,%d5
    2d70:	4485           	negl %d5
    2d72:	2645           	moveal %d5,%a3
    if (*format == '.') {
    2d74:	102c 0001      	moveb %a4@(1),%d0
      format++;
    2d78:	2848           	moveal %a0,%a4
    2d7a:	5288           	addql #1,%a0
    2d7c:	6000 fd4e      	braw 2acc <_vsnprintf+0xd6>
          idx = _ntoa_long(out, buffer, idx, maxlen, (unsigned long)((uintptr_t)va_arg(va, void*)), false, 16U, precision, width, flags);
    2d80:	7021           	moveq #33,%d0
    2d82:	8081           	orl %d1,%d0
    2d84:	2f00           	movel %d0,%sp@-
    2d86:	4878 0008      	pea 8 <DUART_ACR>
    2d8a:	2f07           	movel %d7,%sp@-
    2d8c:	4878 0010      	pea 10 <DUART_MR1B>
    2d90:	42a7           	clrl %sp@-
    2d92:	2043           	moveal %d3,%a0
    2d94:	2f18           	movel %a0@+,%sp@-
    2d96:	2608           	movel %a0,%d3
    2d98:	2f02           	movel %d2,%sp@-
    2d9a:	2f0a           	movel %a2,%sp@-
    2d9c:	2f06           	movel %d6,%sp@-
    2d9e:	2f0d           	movel %a5,%sp@-
    2da0:	4eb9 0000 2382 	jsr 2382 <_ntoa_long>
    2da6:	2440           	moveal %d0,%a2
        break;
    2da8:	4fef 0028      	lea %sp@(40),%sp
  while (*format)
    2dac:	1014           	moveb %a4@,%d0
    2dae:	6600 fc78      	bnew 2a28 <_vsnprintf+0x32>
    2db2:	6000 fc98      	braw 2a4c <_vsnprintf+0x56>
        if (*format == 'h') {
    2db6:	102c 0001      	moveb %a4@(1),%d0
    2dba:	0c00 0068      	cmpib #104,%d0
    2dbe:	6700 0232      	beqw 2ff2 <_vsnprintf+0x5fc>
        flags |= FLAGS_SHORT;
    2dc2:	7a7f           	moveq #127,%d5
    2dc4:	4605           	notb %d5
    2dc6:	8285           	orl %d5,%d1
        format++;
    2dc8:	2844           	moveal %d4,%a4
    2dca:	528c           	addql #1,%a4
    switch (*format) {
    2dcc:	0c00 0078      	cmpib #120,%d0
    2dd0:	6f00 fd3a      	blew 2b0c <_vsnprintf+0x116>
    2dd4:	6000 fecc      	braw 2ca2 <_vsnprintf+0x2ac>
        const char* p = va_arg(va, char*);
    2dd8:	2f43 0030      	movel %d3,%sp@(48)
    2ddc:	2243           	moveal %d3,%a1
    2dde:	58af 0030      	addql #4,%sp@(48)
    2de2:	2619           	movel %a1@+,%d3
  for (s = str; *s && maxsize--; ++s);
    2de4:	2043           	moveal %d3,%a0
    2de6:	1f50 002f      	moveb %a0@,%sp@(47)
    2dea:	102f 002f      	moveb %sp@(47),%d0
        unsigned int l = _strnlen_s(p, precision ? precision : (size_t)-1);
    2dee:	4a87           	tstl %d7
    2df0:	6700 0118      	beqw 2f0a <_vsnprintf+0x514>
  for (s = str; *s && maxsize--; ++s);
    2df4:	4a00           	tstb %d0
    2df6:	671a           	beqs 2e12 <_vsnprintf+0x41c>
    2df8:	2807           	movel %d7,%d4
    2dfa:	5384           	subql #1,%d4
    2dfc:	2043           	moveal %d3,%a0
    2dfe:	43f0 4801      	lea %a0@(1,%d4:l),%a1
    2e02:	5288           	addql #1,%a0
    2e04:	4a10           	tstb %a0@
    2e06:	6700 01e2      	beqw 2fea <_vsnprintf+0x5f4>
    2e0a:	b1c9           	cmpal %a1,%a0
    2e0c:	66f4           	bnes 2e02 <_vsnprintf+0x40c>
  return (unsigned int)(s - str);
    2e0e:	2809           	movel %a1,%d4
    2e10:	9883           	subl %d3,%d4
        if (flags & FLAGS_PRECISION) {
    2e12:	2a01           	movel %d1,%d5
    2e14:	0285 0000 0400 	andil #1024,%d5
    2e1a:	2245           	moveal %d5,%a1
    2e1c:	0801 000a      	btst #10,%d1
    2e20:	6706           	beqs 2e28 <_vsnprintf+0x432>
          l = (l < precision ? l : precision);
    2e22:	be84           	cmpl %d4,%d7
    2e24:	6402           	bccs 2e28 <_vsnprintf+0x432>
    2e26:	2807           	movel %d7,%d4
        if (!(flags & FLAGS_LEFT)) {
    2e28:	7a02           	moveq #2,%d5
    2e2a:	ca81           	andl %d1,%d5
    2e2c:	2f45 0034      	movel %d5,%sp@(52)
    2e30:	0801 0001      	btst #1,%d1
    2e34:	6700 0258      	beqw 308e <_vsnprintf+0x698>
        while ((*p != 0) && (!(flags & FLAGS_PRECISION) || precision--)) {
    2e38:	4a2f 002f      	tstb %sp@(47)
    2e3c:	6700 017a      	beqw 2fb8 <_vsnprintf+0x5c2>
    2e40:	220a           	movel %a2,%d1
    2e42:	2a09           	movel %a1,%d5
    2e44:	204b           	moveal %a3,%a0
    2e46:	2643           	moveal %d3,%a3
    2e48:	224c           	moveal %a4,%a1
    2e4a:	284a           	moveal %a2,%a4
    2e4c:	2447           	moveal %d7,%a2
    2e4e:	2e09           	movel %a1,%d7
    2e50:	2608           	movel %a0,%d3
    2e52:	4a85           	tstl %d5
    2e54:	670e           	beqs 2e64 <_vsnprintf+0x46e>
    2e56:	41ea ffff      	lea %a2@(-1),%a0
    2e5a:	b4fc 0000      	cmpaw #0,%a2
    2e5e:	6700 014c      	beqw 2fac <_vsnprintf+0x5b6>
    2e62:	2448           	moveal %a0,%a2
          out(*(p++), buffer, idx++, maxlen);
    2e64:	528c           	addql #1,%a4
    2e66:	528b           	addql #1,%a3
    2e68:	2f02           	movel %d2,%sp@-
    2e6a:	2f01           	movel %d1,%sp@-
    2e6c:	2f06           	movel %d6,%sp@-
    2e6e:	4880           	extw %d0
    2e70:	3240           	moveaw %d0,%a1
    2e72:	2f09           	movel %a1,%sp@-
    2e74:	4e95           	jsr %a5@
        while ((*p != 0) && (!(flags & FLAGS_PRECISION) || precision--)) {
    2e76:	1013           	moveb %a3@,%d0
    2e78:	4fef 0010      	lea %sp@(16),%sp
    2e7c:	6700 012e      	beqw 2fac <_vsnprintf+0x5b6>
    2e80:	220c           	movel %a4,%d1
    2e82:	60ce           	bras 2e52 <_vsnprintf+0x45c>
      out(*format, buffer, idx++, maxlen);
    2e84:	280a           	movel %a2,%d4
    2e86:	5284           	addql #1,%d4
            const long value = va_arg(va, long);
    2e88:	2a03           	movel %d3,%d5
    2e8a:	5885           	addql #4,%d5
        if (!(flags & FLAGS_LEFT)) {
    2e8c:	0801 0001      	btst #1,%d1
    2e90:	6700 01b6      	beqw 3048 <_vsnprintf+0x652>
        out((char)va_arg(va, int), buffer, idx++, maxlen);
    2e94:	2f02           	movel %d2,%sp@-
    2e96:	2f0a           	movel %a2,%sp@-
    2e98:	2f06           	movel %d6,%sp@-
    2e9a:	2043           	moveal %d3,%a0
    2e9c:	2010           	movel %a0@,%d0
    2e9e:	4880           	extw %d0
    2ea0:	3240           	moveaw %d0,%a1
    2ea2:	2f09           	movel %a1,%sp@-
    2ea4:	4e95           	jsr %a5@
          while (l++ < width) {
    2ea6:	4fef 0010      	lea %sp@(16),%sp
    2eaa:	d5cb           	addal %a3,%a2
    2eac:	7001           	moveq #1,%d0
    2eae:	b08b           	cmpl %a3,%d0
    2eb0:	6400 02ce      	bccw 3180 <_vsnprintf+0x78a>
            out(' ', buffer, idx++, maxlen);
    2eb4:	2004           	movel %d4,%d0
    2eb6:	5284           	addql #1,%d4
    2eb8:	2f02           	movel %d2,%sp@-
    2eba:	2f00           	movel %d0,%sp@-
    2ebc:	2f06           	movel %d6,%sp@-
    2ebe:	4878 0020      	pea 20 <R_STOPCNTCMD+0x2>
    2ec2:	4e95           	jsr %a5@
          while (l++ < width) {
    2ec4:	4fef 0010      	lea %sp@(16),%sp
    2ec8:	b5c4           	cmpal %d4,%a2
    2eca:	66e8           	bnes 2eb4 <_vsnprintf+0x4be>
        out((char)va_arg(va, int), buffer, idx++, maxlen);
    2ecc:	2605           	movel %d5,%d3
  while (*format)
    2ece:	1014           	moveb %a4@,%d0
    2ed0:	6600 fb56      	bnew 2a28 <_vsnprintf+0x32>
    2ed4:	6000 fb76      	braw 2a4c <_vsnprintf+0x56>
  unsigned int i = 0U;
    2ed8:	7e00           	moveq #0,%d7
    2eda:	2848           	moveal %a0,%a4
    2edc:	2047           	moveal %d7,%a0
    i = i * 10U + (unsigned int)(*((*str)++) - '0');
    2ede:	528c           	addql #1,%a4
    2ee0:	43f0 8800      	lea %a0@(0,%a0:l),%a1
    2ee4:	d3c9           	addal %a1,%a1
    2ee6:	41f1 8800      	lea %a1@(0,%a0:l),%a0
    2eea:	d1c8           	addal %a0,%a0
    2eec:	4880           	extw %d0
    2eee:	41f0 00d0      	lea %a0@(ffffffffffffffd0,%d0:w),%a0
  while (_is_digit(**str)) {
    2ef2:	1014           	moveb %a4@,%d0
  return (ch >= '0') && (ch <= '9');
    2ef4:	1800           	moveb %d0,%d4
    2ef6:	0604 ffd0      	addib #-48,%d4
  while (_is_digit(**str)) {
    2efa:	0c04 0009      	cmpib #9,%d4
    2efe:	63de           	blss 2ede <_vsnprintf+0x4e8>
    2f00:	2e08           	movel %a0,%d7
    2f02:	41ec 0001      	lea %a4@(1),%a0
    2f06:	6000 fbce      	braw 2ad6 <_vsnprintf+0xe0>
  for (s = str; *s && maxsize--; ++s);
    2f0a:	4a2f 002f      	tstb %sp@(47)
    2f0e:	6700 ff02      	beqw 2e12 <_vsnprintf+0x41c>
    2f12:	78fe           	moveq #-2,%d4
    2f14:	2043           	moveal %d3,%a0
    2f16:	43f0 4801      	lea %a0@(1,%d4:l),%a1
    2f1a:	6000 fee6      	braw 2e02 <_vsnprintf+0x40c>
        precision = prec > 0 ? (unsigned int)prec : 0U;
    2f1e:	2043           	moveal %d3,%a0
    2f20:	2e18           	movel %a0@+,%d7
    2f22:	2608           	movel %a0,%d3
    2f24:	4a87           	tstl %d7
    2f26:	6d0e           	blts 2f36 <_vsnprintf+0x540>
    switch (*format) {
    2f28:	102c 0002      	moveb %a4@(2),%d0
        format++;
    2f2c:	548c           	addql #2,%a4
    2f2e:	41ec 0001      	lea %a4@(1),%a0
    2f32:	6000 fba2      	braw 2ad6 <_vsnprintf+0xe0>
        precision = prec > 0 ? (unsigned int)prec : 0U;
    2f36:	7e00           	moveq #0,%d7
    switch (*format) {
    2f38:	102c 0002      	moveb %a4@(2),%d0
        format++;
    2f3c:	548c           	addql #2,%a4
    2f3e:	41ec 0001      	lea %a4@(1),%a0
    2f42:	6000 fb92      	braw 2ad6 <_vsnprintf+0xe0>
    switch (*format) {
    2f46:	307c 0008      	moveaw #8,%a0
        if (flags & FLAGS_PRECISION) {
    2f4a:	0801 000a      	btst #10,%d1
    2f4e:	6600 00dc      	bnew 302c <_vsnprintf+0x636>
          flags &= ~(FLAGS_PLUS | FLAGS_SPACE);
    2f52:	70f3           	moveq #-13,%d0
    2f54:	c280           	andl %d0,%d1
          if (flags & FLAGS_LONG_LONG) {
    2f56:	0801 0009      	btst #9,%d1
    2f5a:	6600 faec      	bnew 2a48 <_vsnprintf+0x52>
            const long value = va_arg(va, long);
    2f5e:	2803           	movel %d3,%d4
    2f60:	5884           	addql #4,%d4
          else if (flags & FLAGS_LONG) {
    2f62:	0801 0008      	btst #8,%d1
    2f66:	6600 0242      	bnew 31aa <_vsnprintf+0x7b4>
            const unsigned int value = (flags & FLAGS_CHAR) ? (unsigned char)va_arg(va, unsigned int) : (flags & FLAGS_SHORT) ? (unsigned short int)va_arg(va, unsigned int) : va_arg(va, unsigned int);
    2f6a:	0801 0006      	btst #6,%d1
    2f6e:	6600 01d0      	bnew 3140 <_vsnprintf+0x74a>
    2f72:	2243           	moveal %d3,%a1
    2f74:	2011           	movel %a1@,%d0
    2f76:	4a01           	tstb %d1
    2f78:	6a06           	bpls 2f80 <_vsnprintf+0x58a>
    2f7a:	0280 0000 ffff 	andil #65535,%d0
            idx = _ntoa_long(out, buffer, idx, maxlen, value, false, base, precision, width, flags);
    2f80:	2f01           	movel %d1,%sp@-
    2f82:	2f0b           	movel %a3,%sp@-
    2f84:	2f07           	movel %d7,%sp@-
    2f86:	2f08           	movel %a0,%sp@-
    2f88:	42a7           	clrl %sp@-
    2f8a:	2f00           	movel %d0,%sp@-
    2f8c:	2f02           	movel %d2,%sp@-
    2f8e:	2f0a           	movel %a2,%sp@-
    2f90:	2f06           	movel %d6,%sp@-
    2f92:	2f0d           	movel %a5,%sp@-
    2f94:	4eb9 0000 2382 	jsr 2382 <_ntoa_long>
    2f9a:	2440           	moveal %d0,%a2
    2f9c:	4fef 0028      	lea %sp@(40),%sp
    2fa0:	2604           	movel %d4,%d3
  while (*format)
    2fa2:	1014           	moveb %a4@,%d0
    2fa4:	6600 fa82      	bnew 2a28 <_vsnprintf+0x32>
    2fa8:	6000 faa2      	braw 2a4c <_vsnprintf+0x56>
    2fac:	2643           	moveal %d3,%a3
    2fae:	244c           	moveal %a4,%a2
    2fb0:	2847           	moveal %d7,%a4
        if (flags & FLAGS_LEFT) {
    2fb2:	4aaf 0034      	tstl %sp@(52)
    2fb6:	6724           	beqs 2fdc <_vsnprintf+0x5e6>
    2fb8:	2a0a           	movel %a2,%d5
          while (l++ < width) {
    2fba:	b88b           	cmpl %a3,%d4
    2fbc:	641e           	bccs 2fdc <_vsnprintf+0x5e6>
    2fbe:	45f3 a800      	lea %a3@(0,%a2:l),%a2
    2fc2:	95c4           	subal %d4,%a2
            out(' ', buffer, idx++, maxlen);
    2fc4:	2005           	movel %d5,%d0
    2fc6:	5285           	addql #1,%d5
    2fc8:	2f02           	movel %d2,%sp@-
    2fca:	2f00           	movel %d0,%sp@-
    2fcc:	2f06           	movel %d6,%sp@-
    2fce:	4878 0020      	pea 20 <R_STOPCNTCMD+0x2>
    2fd2:	4e95           	jsr %a5@
          while (l++ < width) {
    2fd4:	4fef 0010      	lea %sp@(16),%sp
    2fd8:	ba8a           	cmpl %a2,%d5
    2fda:	66e8           	bnes 2fc4 <_vsnprintf+0x5ce>
        const char* p = va_arg(va, char*);
    2fdc:	262f 0030      	movel %sp@(48),%d3
  while (*format)
    2fe0:	1014           	moveb %a4@,%d0
    2fe2:	6600 fa44      	bnew 2a28 <_vsnprintf+0x32>
    2fe6:	6000 fa64      	braw 2a4c <_vsnprintf+0x56>
  return (unsigned int)(s - str);
    2fea:	2808           	movel %a0,%d4
    2fec:	9883           	subl %d3,%d4
    2fee:	6000 fe22      	braw 2e12 <_vsnprintf+0x41c>
          flags |= FLAGS_CHAR;
    2ff2:	703f           	moveq #63,%d0
    2ff4:	4600           	notb %d0
    2ff6:	8280           	orl %d0,%d1
          format++;
    2ff8:	280c           	movel %a4,%d4
    2ffa:	5484           	addql #2,%d4
    switch (*format) {
    2ffc:	102c 0002      	moveb %a4@(2),%d0
        format++;
    3000:	2844           	moveal %d4,%a4
    3002:	528c           	addql #1,%a4
    switch (*format) {
    3004:	0c00 0078      	cmpib #120,%d0
    3008:	6f00 fb02      	blew 2b0c <_vsnprintf+0x116>
    300c:	6000 fc94      	braw 2ca2 <_vsnprintf+0x2ac>
          flags |= FLAGS_LONG_LONG;
    3010:	0041 0300      	oriw #768,%d1
          format++;
    3014:	280c           	movel %a4,%d4
    3016:	5484           	addql #2,%d4
    switch (*format) {
    3018:	102c 0002      	moveb %a4@(2),%d0
        format++;
    301c:	2844           	moveal %d4,%a4
    301e:	528c           	addql #1,%a4
    switch (*format) {
    3020:	0c00 0078      	cmpib #120,%d0
    3024:	6f00 fae6      	blew 2b0c <_vsnprintf+0x116>
    3028:	6000 fc78      	braw 2ca2 <_vsnprintf+0x2ac>
          flags &= ~FLAGS_ZEROPAD;
    302c:	70f2           	moveq #-14,%d0
    302e:	c280           	andl %d0,%d1
        if ((*format == 'i') || (*format == 'd')) {
    3030:	6000 ff24      	braw 2f56 <_vsnprintf+0x560>
    switch (*format) {
    3034:	0c00 0058      	cmpib #88,%d0
    3038:	6600 fc68      	bnew 2ca2 <_vsnprintf+0x2ac>
          flags |= FLAGS_UPPERCASE;
    303c:	7a20           	moveq #32,%d5
    303e:	8285           	orl %d5,%d1
    3040:	307c 0010      	moveaw #16,%a0
    3044:	6000 ff04      	braw 2f4a <_vsnprintf+0x554>
          while (l++ < width) {
    3048:	7001           	moveq #1,%d0
    304a:	b08b           	cmpl %a3,%d0
    304c:	6400 011c      	bccw 316a <_vsnprintf+0x774>
    3050:	41f3 a8ff      	lea %a3@(ffffffffffffffff,%a2:l),%a0
    3054:	2e08           	movel %a0,%d7
    3056:	280a           	movel %a2,%d4
            out(' ', buffer, idx++, maxlen);
    3058:	2004           	movel %d4,%d0
    305a:	5284           	addql #1,%d4
    305c:	2f02           	movel %d2,%sp@-
    305e:	2f00           	movel %d0,%sp@-
    3060:	2f06           	movel %d6,%sp@-
    3062:	4878 0020      	pea 20 <R_STOPCNTCMD+0x2>
    3066:	4e95           	jsr %a5@
          while (l++ < width) {
    3068:	4fef 0010      	lea %sp@(16),%sp
    306c:	b887           	cmpl %d7,%d4
    306e:	66e8           	bnes 3058 <_vsnprintf+0x662>
        out((char)va_arg(va, int), buffer, idx++, maxlen);
    3070:	d5cb           	addal %a3,%a2
    3072:	2f02           	movel %d2,%sp@-
    3074:	2f07           	movel %d7,%sp@-
    3076:	2f06           	movel %d6,%sp@-
    3078:	2243           	moveal %d3,%a1
    307a:	2011           	movel %a1@,%d0
    307c:	4880           	extw %d0
    307e:	3040           	moveaw %d0,%a0
    3080:	2f08           	movel %a0,%sp@-
    3082:	4e95           	jsr %a5@
    3084:	4fef 0010      	lea %sp@(16),%sp
    3088:	2605           	movel %d5,%d3
    308a:	6000 fe42      	braw 2ece <_vsnprintf+0x4d8>
          while (l++ < width) {
    308e:	b88b           	cmpl %a3,%d4
    3090:	6400 0162      	bccw 31f4 <_vsnprintf+0x7fe>
    3094:	200b           	movel %a3,%d0
    3096:	d08a           	addl %a2,%d0
    3098:	9084           	subl %d4,%d0
    309a:	2800           	movel %d0,%d4
    309c:	2a09           	movel %a1,%d5
            out(' ', buffer, idx++, maxlen);
    309e:	200a           	movel %a2,%d0
    30a0:	528a           	addql #1,%a2
    30a2:	2f02           	movel %d2,%sp@-
    30a4:	2f00           	movel %d0,%sp@-
    30a6:	2f06           	movel %d6,%sp@-
    30a8:	4878 0020      	pea 20 <R_STOPCNTCMD+0x2>
    30ac:	4e95           	jsr %a5@
          while (l++ < width) {
    30ae:	4fef 0010      	lea %sp@(16),%sp
    30b2:	b5c4           	cmpal %d4,%a2
    30b4:	66e8           	bnes 309e <_vsnprintf+0x6a8>
    30b6:	2245           	moveal %d5,%a1
    30b8:	280b           	movel %a3,%d4
    30ba:	5284           	addql #1,%d4
    30bc:	2043           	moveal %d3,%a0
    30be:	1f50 002f      	moveb %a0@,%sp@(47)
        while ((*p != 0) && (!(flags & FLAGS_PRECISION) || precision--)) {
    30c2:	102f 002f      	moveb %sp@(47),%d0
    30c6:	6700 ff14      	beqw 2fdc <_vsnprintf+0x5e6>
    30ca:	220a           	movel %a2,%d1
    30cc:	2a09           	movel %a1,%d5
    30ce:	204b           	moveal %a3,%a0
    30d0:	2643           	moveal %d3,%a3
    30d2:	224c           	moveal %a4,%a1
    30d4:	284a           	moveal %a2,%a4
    30d6:	2447           	moveal %d7,%a2
    30d8:	2e09           	movel %a1,%d7
    30da:	2608           	movel %a0,%d3
    30dc:	6000 fd74      	braw 2e52 <_vsnprintf+0x45c>
    switch (*format) {
    30e0:	307c 0010      	moveaw #16,%a0
    30e4:	0c00 0078      	cmpib #120,%d0
    30e8:	6700 fe60      	beqw 2f4a <_vsnprintf+0x554>
          flags &= ~FLAGS_HASH;   // no hash for dec format
    30ec:	70ef           	moveq #-17,%d0
    30ee:	c280           	andl %d0,%d1
    30f0:	307c 000a      	moveaw #10,%a0
    30f4:	6000 fe54      	braw 2f4a <_vsnprintf+0x554>
    switch (*format) {
    30f8:	307c 0002      	moveaw #2,%a0
    30fc:	6000 fe4c      	braw 2f4a <_vsnprintf+0x554>
            const int value = (flags & FLAGS_CHAR) ? (char)va_arg(va, int) : (flags & FLAGS_SHORT) ? (short int)va_arg(va, int) : va_arg(va, int);
    3100:	2243           	moveal %d3,%a1
    3102:	2011           	movel %a1@,%d0
    3104:	4880           	extw %d0
    3106:	48c0           	extl %d0
            idx = _ntoa_long(out, buffer, idx, maxlen, (unsigned int)(value > 0 ? value : 0 - value), value < 0, base, precision, width, flags);
    3108:	2f04           	movel %d4,%sp@-
    310a:	2f0b           	movel %a3,%sp@-
    310c:	2f07           	movel %d7,%sp@-
    310e:	4878 000a      	pea a <DUART_IMR>
    3112:	2200           	movel %d0,%d1
    3114:	d281           	addl %d1,%d1
    3116:	9381           	subxl %d1,%d1
    3118:	4481           	negl %d1
    311a:	2f01           	movel %d1,%sp@-
    311c:	4a80           	tstl %d0
    311e:	6c00 fc28      	bgew 2d48 <_vsnprintf+0x352>
    3122:	4480           	negl %d0
    3124:	2f00           	movel %d0,%sp@-
    3126:	2f02           	movel %d2,%sp@-
    3128:	2f0a           	movel %a2,%sp@-
    312a:	2f06           	movel %d6,%sp@-
    312c:	2f0d           	movel %a5,%sp@-
    312e:	4eb9 0000 2382 	jsr 2382 <_ntoa_long>
    3134:	2440           	moveal %d0,%a2
    3136:	4fef 0028      	lea %sp@(40),%sp
    313a:	2605           	movel %d5,%d3
    313c:	6000 fc22      	braw 2d60 <_vsnprintf+0x36a>
    3140:	7000           	moveq #0,%d0
    3142:	4600           	notb %d0
    3144:	2243           	moveal %d3,%a1
    3146:	c091           	andl %a1@,%d0
            idx = _ntoa_long(out, buffer, idx, maxlen, value, false, base, precision, width, flags);
    3148:	2f01           	movel %d1,%sp@-
    314a:	2f0b           	movel %a3,%sp@-
    314c:	2f07           	movel %d7,%sp@-
    314e:	2f08           	movel %a0,%sp@-
    3150:	42a7           	clrl %sp@-
    3152:	2f00           	movel %d0,%sp@-
    3154:	6000 fe36      	braw 2f8c <_vsnprintf+0x596>
        if ((*format != 'i') && (*format != 'd')) {
    3158:	0c00 0064      	cmpib #100,%d0
    315c:	6700 fb9e      	beqw 2cfc <_vsnprintf+0x306>
    3160:	2204           	movel %d4,%d1
    3162:	307c 000a      	moveaw #10,%a0
    3166:	6000 fde2      	braw 2f4a <_vsnprintf+0x554>
        out((char)va_arg(va, int), buffer, idx++, maxlen);
    316a:	2f02           	movel %d2,%sp@-
    316c:	2f0a           	movel %a2,%sp@-
    316e:	2f06           	movel %d6,%sp@-
    3170:	2043           	moveal %d3,%a0
    3172:	2010           	movel %a0@,%d0
    3174:	4880           	extw %d0
    3176:	3240           	moveaw %d0,%a1
    3178:	2f09           	movel %a1,%sp@-
    317a:	4e95           	jsr %a5@
    317c:	4fef 0010      	lea %sp@(16),%sp
    3180:	2444           	moveal %d4,%a2
    3182:	2605           	movel %d5,%d3
    3184:	6000 fd48      	braw 2ece <_vsnprintf+0x4d8>
            const long value = va_arg(va, long);
    3188:	2043           	moveal %d3,%a0
    318a:	2010           	movel %a0@,%d0
            idx = _ntoa_long(out, buffer, idx, maxlen, (unsigned int)(value > 0 ? value : 0 - value), value < 0, base, precision, width, flags);
    318c:	2f04           	movel %d4,%sp@-
    318e:	2f0b           	movel %a3,%sp@-
    3190:	2f07           	movel %d7,%sp@-
    3192:	4878 000a      	pea a <DUART_IMR>
    3196:	2200           	movel %d0,%d1
    3198:	d281           	addl %d1,%d1
    319a:	9381           	subxl %d1,%d1
    319c:	4481           	negl %d1
    319e:	2f01           	movel %d1,%sp@-
    31a0:	4a80           	tstl %d0
    31a2:	6c00 fba4      	bgew 2d48 <_vsnprintf+0x352>
    31a6:	6000 ff7a      	braw 3122 <_vsnprintf+0x72c>
            idx = _ntoa_long(out, buffer, idx, maxlen, va_arg(va, unsigned long), false, base, precision, width, flags);
    31aa:	2f01           	movel %d1,%sp@-
    31ac:	2f0b           	movel %a3,%sp@-
    31ae:	2f07           	movel %d7,%sp@-
    31b0:	2f08           	movel %a0,%sp@-
    31b2:	42a7           	clrl %sp@-
    31b4:	2043           	moveal %d3,%a0
    31b6:	2f10           	movel %a0@,%sp@-
            idx = _ntoa_long(out, buffer, idx, maxlen, value, false, base, precision, width, flags);
    31b8:	2f02           	movel %d2,%sp@-
    31ba:	2f0a           	movel %a2,%sp@-
    31bc:	2f06           	movel %d6,%sp@-
    31be:	2f0d           	movel %a5,%sp@-
    31c0:	4eb9 0000 2382 	jsr 2382 <_ntoa_long>
    31c6:	2440           	moveal %d0,%a2
    31c8:	4fef 0028      	lea %sp@(40),%sp
    31cc:	2604           	movel %d4,%d3
        break;
    31ce:	6000 fdd2      	braw 2fa2 <_vsnprintf+0x5ac>
            const int value = (flags & FLAGS_CHAR) ? (char)va_arg(va, int) : (flags & FLAGS_SHORT) ? (short int)va_arg(va, int) : va_arg(va, int);
    31d2:	2243           	moveal %d3,%a1
    31d4:	2011           	movel %a1@,%d0
            idx = _ntoa_long(out, buffer, idx, maxlen, (unsigned int)(value > 0 ? value : 0 - value), value < 0, base, precision, width, flags);
    31d6:	2f04           	movel %d4,%sp@-
    31d8:	2f0b           	movel %a3,%sp@-
    31da:	2f07           	movel %d7,%sp@-
    31dc:	4878 000a      	pea a <DUART_IMR>
    31e0:	2200           	movel %d0,%d1
    31e2:	d281           	addl %d1,%d1
    31e4:	9381           	subxl %d1,%d1
    31e6:	4481           	negl %d1
    31e8:	2f01           	movel %d1,%sp@-
    31ea:	4a80           	tstl %d0
    31ec:	6c00 fb5a      	bgew 2d48 <_vsnprintf+0x352>
    31f0:	6000 ff30      	braw 3122 <_vsnprintf+0x72c>
          while (l++ < width) {
    31f4:	5284           	addql #1,%d4
        while ((*p != 0) && (!(flags & FLAGS_PRECISION) || precision--)) {
    31f6:	102f 002f      	moveb %sp@(47),%d0
    31fa:	6600 fece      	bnew 30ca <_vsnprintf+0x6d4>
    31fe:	6000 fddc      	braw 2fdc <_vsnprintf+0x5e6>

00003202 <printf_>:


///////////////////////////////////////////////////////////////////////////////

int printf_(const char* format, ...)
{
    3202:	4e56 fffc      	linkw %fp,#-4
  va_list va;
  va_start(va, format);
  char buffer[1];
  const int ret = _vsnprintf(_out_char, buffer, (size_t)-1, format, va);
    3206:	486e 000c      	pea %fp@(12)
    320a:	2f2e 0008      	movel %fp@(8),%sp@-
    320e:	4878 ffff      	pea ffffffff <DUART_BASE_R2+0xff07ff57>
    3212:	486e ffff      	pea %fp@(-1)
    3216:	4879 0000 29de 	pea 29de <_out_char>
    321c:	4eb9 0000 29f6 	jsr 29f6 <_vsnprintf>
  va_end(va);
  return ret;
    3222:	4fef 0014      	lea %sp@(20),%sp
}
    3226:	4e5e           	unlk %fp
    3228:	4e75           	rts

0000322a <_putchar>:
static char crbuf[2] = { '\r', 0 };

/*
 * This is used by printf.
 */
void _putchar(char chr) {
    322a:	2f02           	movel %d2,%sp@-
    322c:	242f 0008      	movel %sp@(8),%d2
  if (chr == '\n') {
    3230:	0c02 000a      	cmpib #10,%d2
    3234:	6714           	beqs 324a <_putchar+0x20>
    // is LF, print CR too
    mcPrint(crbuf);
  }

  buf[0] = chr;
    3236:	41f9 0001 ab48 	lea 1ab48 <buf>,%a0
    323c:	1082           	moveb %d2,%a0@
  mcPrint(buf);
    323e:	2f48 0008      	movel %a0,%sp@(8)
}
    3242:	241f           	movel %sp@+,%d2
  mcPrint(buf);
    3244:	4ef9 0000 326c 	jmp 326c <mcPrint>
    mcPrint(crbuf);
    324a:	4879 0001 ab44 	pea 1ab44 <crbuf>
    3250:	4eb9 0000 326c 	jsr 326c <mcPrint>
    3256:	588f           	addql #4,%sp
  buf[0] = chr;
    3258:	41f9 0001 ab48 	lea 1ab48 <buf>,%a0
    325e:	1082           	moveb %d2,%a0@
  mcPrint(buf);
    3260:	2f48 0008      	movel %a0,%sp@(8)
}
    3264:	241f           	movel %sp@+,%d2
  mcPrint(buf);
    3266:	4ef9 0000 326c 	jmp 326c <mcPrint>

0000326c <mcPrint>:
    326c:	48e7 c080      	moveml %d0-%d1/%a0,%sp@-
    3270:	206f 0010      	moveal %sp@(16),%a0
    3274:	7200           	moveq #0,%d1
    3276:	4e4e           	trap #14
    3278:	4cdf 0103      	moveml %sp@+,%d0-%d1/%a0
    327c:	4e75           	rts

0000327e <__kinit>:

void *__dso_handle;

__attribute__((weak)) void __kinit() {
  // zero .bss
  for (uint32_t *dst = &_bss_start; dst < &_bss_end; *dst++ = 0);
    327e:	41f9 0001 ab48 	lea 1ab48 <buf>,%a0
    3284:	b1fc 0001 e358 	cmpal #123736,%a0
    328a:	641c           	bccs 32a8 <__kinit+0x2a>
    328c:	203c 0001 e358 	movel #123736,%d0
    3292:	0480 0001 ab49 	subil #109385,%d0
    3298:	72fc           	moveq #-4,%d1
    329a:	c081           	andl %d1,%d0
    329c:	0680 0001 ab4c 	addil #109388,%d0
    32a2:	4298           	clrl %a0@+
    32a4:	b088           	cmpl %a0,%d0
    32a6:	66fa           	bnes 32a2 <__kinit+0x24>
}
    32a8:	4e75           	rts

000032aa <__cxa_finalize>:
/*
 * We probably don't need the full dso_handle capability as we're always
 * statically linked, but I'd rather do a proper impl now than have it 
 * break later because of a half-baked one :D
 */
void __cxa_finalize(void *dso_handle) {
    32aa:	48e7 3020      	moveml %d2-%d3/%a2,%sp@-
    32ae:	262f 0010      	movel %sp@(16),%d3
    for (int i = cxa_atexit_count - 1; i >= 0; i--) {
    32b2:	7200           	moveq #0,%d1
    32b4:	3239 0001 ab54 	movew 1ab54 <cxa_atexit_count>,%d1
    32ba:	2401           	movel %d1,%d2
    32bc:	5382           	subql #1,%d2
    32be:	4a81           	tstl %d1
    32c0:	6738           	beqs 32fa <__cxa_finalize+0x50>
    32c2:	2001           	movel %d1,%d0
    32c4:	e788           	lsll #3,%d0
    32c6:	2440           	moveal %d0,%a2
    32c8:	95c1           	subal %d1,%a2
    32ca:	d5ca           	addal %a2,%a2
    32cc:	d5fc 0001 ab48 	addal #109384,%a2
        cxa_atexit_entry *entry = &cxa_atexits[i];

        if ((dso_handle == NULL || dso_handle == entry->dso_handle) && !entry->done) {
    32d2:	4a83           	tstl %d3
    32d4:	662a           	bnes 3300 <__cxa_finalize+0x56>
    32d6:	4a2a 000c      	tstb %a2@(12)
    32da:	6610           	bnes 32ec <__cxa_finalize+0x42>
            entry->func(entry->ptr);
    32dc:	2f2a 0004      	movel %a2@(4),%sp@-
    32e0:	2052           	moveal %a2@,%a0
    32e2:	4e90           	jsr %a0@
            entry->done = true;
    32e4:	157c 0001 000c 	moveb #1,%a2@(12)
    32ea:	588f           	addql #4,%sp
    for (int i = cxa_atexit_count - 1; i >= 0; i--) {
    32ec:	45ea fff2      	lea %a2@(-14),%a2
    32f0:	51ca ffe0      	dbf %d2,32d2 <__cxa_finalize+0x28>
    32f4:	4242           	clrw %d2
    32f6:	5382           	subql #1,%d2
    32f8:	64d8           	bccs 32d2 <__cxa_finalize+0x28>
        }
    }
}
    32fa:	4cdf 040c      	moveml %sp@+,%d2-%d3/%a2
    32fe:	4e75           	rts
        if ((dso_handle == NULL || dso_handle == entry->dso_handle) && !entry->done) {
    3300:	b6aa 0008      	cmpl %a2@(8),%d3
    3304:	67d0           	beqs 32d6 <__cxa_finalize+0x2c>
    for (int i = cxa_atexit_count - 1; i >= 0; i--) {
    3306:	45ea fff2      	lea %a2@(-14),%a2
    330a:	51ca fff4      	dbf %d2,3300 <__cxa_finalize+0x56>
    330e:	4242           	clrw %d2
    3310:	5382           	subql #1,%d2
    3312:	64ec           	bccs 3300 <__cxa_finalize+0x56>
}
    3314:	4cdf 040c      	moveml %sp@+,%d2-%d3/%a2
    3318:	4e75           	rts
	...

0000331c <__udivsi3>:
    331c:	2f02           	movel %d2,%sp@-
    331e:	222f 000c      	movel %sp@(12),%d1
    3322:	202f 0008      	movel %sp@(8),%d0
    3326:	0c81 0001 0000 	cmpil #65536,%d1
    332c:	6416           	bccs 3344 <L3>
    332e:	2400           	movel %d0,%d2
    3330:	4242           	clrw %d2
    3332:	4842           	swap %d2
    3334:	84c1           	divuw %d1,%d2
    3336:	3002           	movew %d2,%d0
    3338:	4840           	swap %d0
    333a:	342f 000a      	movew %sp@(10),%d2
    333e:	84c1           	divuw %d1,%d2
    3340:	3002           	movew %d2,%d0
    3342:	6030           	bras 3374 <L6>

00003344 <L3>:
    3344:	2401           	movel %d1,%d2

00003346 <L4>:
    3346:	e289           	lsrl #1,%d1
    3348:	e288           	lsrl #1,%d0
    334a:	0c81 0001 0000 	cmpil #65536,%d1
    3350:	64f4           	bccs 3346 <L4>
    3352:	80c1           	divuw %d1,%d0
    3354:	0280 0000 ffff 	andil #65535,%d0
    335a:	2202           	movel %d2,%d1
    335c:	c2c0           	muluw %d0,%d1
    335e:	4842           	swap %d2
    3360:	c4c0           	muluw %d0,%d2
    3362:	4842           	swap %d2
    3364:	4a42           	tstw %d2
    3366:	660a           	bnes 3372 <L5>
    3368:	d282           	addl %d2,%d1
    336a:	6506           	bcss 3372 <L5>
    336c:	b2af 0008      	cmpl %sp@(8),%d1
    3370:	6302           	blss 3374 <L6>

00003372 <L5>:
    3372:	5380           	subql #1,%d0

00003374 <L6>:
    3374:	241f           	movel %sp@+,%d2
    3376:	4e75           	rts

00003378 <__umodsi3>:
    3378:	222f 0008      	movel %sp@(8),%d1
    337c:	202f 0004      	movel %sp@(4),%d0
    3380:	2f01           	movel %d1,%sp@-
    3382:	2f00           	movel %d0,%sp@-
    3384:	4eb9 0000 331c 	jsr 331c <__udivsi3>
    338a:	508f           	addql #8,%sp
    338c:	222f 0008      	movel %sp@(8),%d1
    3390:	2f01           	movel %d1,%sp@-
    3392:	2f00           	movel %d0,%sp@-
    3394:	4eb9 0000 33a8 	jsr 33a8 <__mulsi3>
    339a:	508f           	addql #8,%sp
    339c:	222f 0004      	movel %sp@(4),%d1
    33a0:	9280           	subl %d0,%d1
    33a2:	2001           	movel %d1,%d0
    33a4:	4e75           	rts
	...

000033a8 <__mulsi3>:
    33a8:	302f 0004      	movew %sp@(4),%d0
    33ac:	c0ef 000a      	muluw %sp@(10),%d0
    33b0:	322f 0006      	movew %sp@(6),%d1
    33b4:	c2ef 0008      	muluw %sp@(8),%d1
    33b8:	d041           	addw %d1,%d0
    33ba:	4840           	swap %d0
    33bc:	4240           	clrw %d0
    33be:	322f 0006      	movew %sp@(6),%d1
    33c2:	c2ef 000a      	muluw %sp@(10),%d1
    33c6:	d081           	addl %d1,%d0
    33c8:	4e75           	rts
    33ca:	5465           	addqw #2,%a5@-
    33cc:	7374           	.short 0x7374
    33ce:	696e           	bvss 343e <noHeader+0x39>
    33d0:	6720           	beqs 33f2 <__mulsi3+0x4a>
    33d2:	666f           	bnes 3443 <noHeader+0x3e>
    33d4:	7220           	moveq #32,%d1
    33d6:	4f50           	.short 0x4f50
    33d8:	4c33           	.short 0x4c33
    33da:	0d0a 004f      	movepw %a2@(79),%d6
    33de:	504c           	addqw #8,%a4
    33e0:	3320           	movew %a0@-,%a1@-
    33e2:	6465           	bccs 3449 <noHeader+0x44>
    33e4:	7465           	moveq #101,%d2
    33e6:	6374           	blss 345c <noHeader+0x57>
    33e8:	6564           	bcss 344e <noHeader+0x49>
    33ea:	210d           	movel %a5,%a0@-
    33ec:	0a00 556e      	eorib #110,%d0
    33f0:	6465           	bccs 3457 <noHeader+0x52>
    33f2:	6669           	bnes 345d <noHeader+0x58>
    33f4:	6e65           	bgts 345b <noHeader+0x56>
    33f6:	6420           	bccs 3418 <noHeader+0x13>
    33f8:	6f70           	bles 346a <noHeader+0x65>
    33fa:	636f           	blss 346b <noHeader+0x66>
    33fc:	6465           	bccs 3463 <noHeader+0x5e>
    33fe:	3a20           	movew %a0@-,%d5
    3400:	
00003405 <noHeader>:
    3405:	5a01 205a 0840 5a80 ff5a 81ff 5a82 ff5a     Z. Z.@Z..Z..Z..Z
    3415:	88ff 5a89 ff5a 8aff 5a90 ff5a 91ff 5a92     ..Z..Z..Z..Z..Z.
    3425:	ff61 2c00 5a83 ff5a 84ff 5a85 ff5a 8bff     .a,.Z..Z..Z..Z..
    3435:	5a8c ff5a 8dff 5a93 ff5a 94ff 5a95 ff5a     Z..Z..Z..Z..Z..Z
    3445:	c008 5ae0 025a 4000 5a60 f55a 8013 5a20     ..Z..Z@.Z`.Z..Z 
    3455:	105a e300 5a43 005a 63f4 5a83 155a 2341     .Z..ZC.Zc.Z..Z#A
    3465:	5a40 0e5a c00a 612c 005a a022 5ab0 2661     Z@.Z..a,.Z."Z.&a
    3475:	0124 5ab0 0661 1d1d 5a40 0f61 2c00 5ab0     .$Z..a..Z@.a,.Z.
    3485:	2661 401c 5ab0 0661 2d24 5a40 0a5a a098     &a@.Z..a-$Z@.Z..
    3495:	5ab0 2961 c44a 5ab0 0961 320b 5a40 0e5a     Z.)a.JZ..a2.Z@.Z
    34a5:	a081 5ab0 2961 5123 5ab0 0961 c007 5a40     ..Z.)aQ#Z..a..Z@
    34b5:	125a c00c 5aa0 665a b026 61c8 0d5a b006     .Z..Z.fZ.&a..Z..
    34c5:	61c1 075a 400e 5ac0 0a5a a08a 5ab0 2661     a..Z@.Z..Z..Z.&a
    34d5:	b21f 5ab0 0661 330b 5ab0 2661 c80d 5ab0     ..Z..a3.Z.&a..Z.
    34e5:	0661 c007 5a40 135a c00c 5aa0 225a b026     .a..Z@.Z..Z."Z.&
    34f5:	6111 2b5a b006 615c 155a 4011 612d 005a     a.+Z..a\.Z@.a-.Z
    3505:	b026 6124 235a b006 6149 1d5a 400c 5ac0     .&a$#Z..aI.Z@.Z.
    3515:	0a5a a098 5ab0 2961 354e 5ab0 0961 c107     .Z..Z.)a5NZ..a..
    3525:	5aa0 815a b029 6111 2b5a b009 5a40 105a     Z..Z.)a.+Z..Z@.Z
    3535:	c00c 5aa0 665a b026 6116 125a b006 635a     ..Z.fZ.&a..Z..cZ
    3545:	400d 5ac0 0a5a a08a 5ab0 2661 b31f 5ab0     @.Z..Z..Z.&a..Z.
    3555:	0661 320b 5ab0 2661 c80d 5ab0 0661 c107     .a2.Z.&a..Z..a..
    3565:	5a40 0e5a a022 5ab0 2661 5023 5ab0 0661     Z@.Z."Z.&aP#Z..a
    3575:	1d1d 5a40 0d61 2c00 5ab0 2661 b31f 5ab0     ..Z@.a,.Z.&a..Z.
    3585:	0661 bb20 5a40 095a a098 5ab0 2961 354e     .a. Z@.Z..Z.)a5N
    3595:	5ab0 0961 c107 5a40 0d5a a081 5ab0 2961     Z..a..Z@.Z..Z.)a
    35a5:	9f27 5ab0 0963 5a40 0f5a a066 5ab0 2661     .'Z..cZ@.Z.fZ.&a
    35b5:	a40e 5ab0 0663 635a 400c 5aa0 8a5a b026     ..Z..ccZ@.Z..Z.&
    35c5:	61b2 1f5a b006 6133 0b5a 400d 5ab0 2661     a..Z..a3.Z@.Z.&a
    35d5:	8815 5ab0 065a a022 5ab0 2661 9f27 5ab0     ..Z..Z."Z.&a.'Z.
    35e5:	0661 cf18 5a40 1161 2c00 5ac0 0c5a b026     .a..Z@.a,.Z..Z.&
    35f5:	61b2 1f5a b006 61bb 205a 4007 5ac0 085a     a..Z..a. Z@.Z..Z
    3605:	a098 5ab0 2961 8a39 5ab0 0963 635a 400a     ..Z.)a.9Z..ccZ@.
    3615:	5ac0 0a5a a081 5ab0 2961 de1f 5ab0 0961     Z..Z..Z.)a..Z..a
    3625:	b176 5a40 0e5a a022 5ab0 265a c10c 5ae1     .vZ@.Z."Z.&Z..Z.
    3635:	025a 4180 5a61 f65a 8116 5a21 0061 2c00     .ZA.Za.Z..Z!.a,.
    3645:	5ae4 005a 4480 5a64 f55a 8417 5a24 035a     Z..ZD.Zd.Z..Z$.Z
    3655:	41a2 5aa1 e65a b125 5ac3 045a e800 5a48     A.Z..Z.%Z..Z..ZH
    3665:	005a 68f6 5a88 665a 2830 5aeb 005a 4b00     .Zh.Z.fZ(0Z..ZK.
    3675:	5a6b f55a 8b08 5a2b 1d5a c40e 5ae9 025a     Zk.Z..Z+.Z..Z..Z
    3685:	490b 5a69 c561 2c00 5a89 165a 29d0 5aec     I.Zi.a,.Z..Z).Z.
    3695:	005a 4c00 5a6c f75a 8c17 5a2c 1e61 1a03     .ZL.Zl.Z..Z,.a..
    36a5:	5aa1 c163 5aa1 9d61 4f04 5aa1 7c63 5aa1     Z..cZ..aO.Z.|cZ.
    36b5:	5d63 5aa1 8a5a b122 635a a15a 635a a12b     ]cZ..Z."cZ.ZcZ.+
    36c5:	635a a1fd 5ab1 2161 4e04 5aa1 d463 5ab0     cZ..Z.!aN.Z..cZ.
    36d5:	0663 635a b101 5a4b 055a a36c 5ab3 2961     .ccZ..ZK.Z.lZ.)a
    36e5:	5d15 5a40 0f61 2c00 5ab0 265a 4180 5aa1     ].Z@.a,.Z.&ZA.Z.
    36f5:	665a b132 5ab3 0961 4603 5aa1 3763 5aa1     fZ.2Z..aF.Z.7cZ.
    3705:	0a61 4e04 5aa1 e05a b131 635a a1bc 635a     .aN.Z..Z.1cZ..cZ
    3715:	a198 635a b111 5a41 a25a a1e6 5ab1 2563     ..cZ..ZA.Z..Z.%c
    3725:	5aa1 c163 5ab0 065a a19d 614f 045a a17c     Z..cZ..Z..aO.Z.|
    3735:	635a a15d 635a a18a 5ab1 2263 5aa1 5a5a     cZ.]cZ..Z."cZ.ZZ
    3745:	b329 635a a12b 635a a1fd 5ab1 2161 4e04     .)cZ.+cZ..Z.!aN.
    3755:	5aa1 d461 560a 5a40 0a5a a098 5ab0 295a     Z..aV.Z@.Z..Z.)Z
    3765:	b101 5a41 805a a166 5ab1 325a b309 635a     ..ZA.Z.fZ.2Z..cZ
    3775:	a137 635a a10a 614f 045a a1e0 5ab1 3163     .7cZ..aO.Z..Z.1c
    3785:	5aa1 bc63 5aa1 9863 5ab1 1161 8815 5a41     Z..cZ..cZ..a..ZA
    3795:	a25a a1e6 5ab1 255a b329 635a a1c1 635a     .Z..Z.%Z.)cZ..cZ
    37a5:	a19d 6122 045a a17c 635a a15d 635a a18a     ..a".Z.|cZ.]cZ..
    37b5:	5ab1 2263 5aa1 5a61 2d00 5ab3 0961 4503     Z."cZ.Za-.Z..aE.
    37c5:	5aa1 2b63 5aa1 fd5a b121 614f 045a b009     Z.+cZ..Z.!aO.Z..
    37d5:	5aa1 d461 560a 5a40 0e5a a081 5ab0 295a     Z..aV.Z@.Z..Z.)Z
    37e5:	b101 5a41 805a a166 612c 005a b132 6146     ..ZA.Z.fa,.Z.2aF
    37f5:	035a a137 635a a10a 614e 045a a1e0 5ab1     .Z.7cZ..aN.Z..Z.
    3805:	3163 5aa1 bc63 5aa1 9863 5ab1 115a b329     1cZ..cZ..cZ..Z.)
    3815:	61a5 0e5a b009 6363 5a40 125a c00c 5aa0     a..Z..ccZ@.Z..Z.
    3825:	665a b026 5a41 a25a a1e6 5ab1 255a b309     fZ.&ZA.Z..Z.%Z..
    3835:	5ab3 2963 5aa1 c163 5aa1 9d61 4e04 5aa1     Z.)cZ..cZ..aN.Z.
    3845:	7c63 5ab0 065a a15d 635a a18a 5ab1 2263     |cZ..Z.]cZ..Z."c
    3855:	5a40 0e5a c00a 5aa0 8a5a b026 5aa1 5a5a     Z@.Z..Z..Z.&Z.ZZ
    3865:	b309 5a4c 065a a443 5ab4 2263 5aa1 2b63     ..ZL.Z.CZ."cZ.+c
    3875:	5aa1 fd5a b121 614f 045a a1d4 612a 0a5a     Z..Z.!aO.Z..a*.Z
    3885:	b101 612c 005a b329 5ab4 0261 060b 5ab0     ..a,.Z.)Z..a..Z.
    3895:	0661 560a 5ab0 265a b309 61a5 0e5a b006     .aV.Z.&Z..a..Z..
    38a5:	6363 5a40 135a c00c 5aa0 225a b026 5aa1     ccZ@.Z..Z."Z.&Z.
    38b5:	e65a b125 635a a1c1 635a a19d 614e 045a     .Z.%cZ..cZ..aN.Z
    38c5:	a17c 635a a15d 635a a18a 5ab1 2263 5aa1     .|cZ.]cZ..Z."cZ.
    38d5:	5a63 5aa1 2b63 5aa1 fd5a b121 614f 045a     ZcZ.+cZ..Z.!aO.Z
    38e5:	a1d4 6156 0a5a b006 5ab1 015a b329 6188     ..aV.Z..Z..Z.)a.
    38f5:	155a 4011 5ab0 265a 4180 5aa1 665a b132     .Z@.Z.&ZA.Z.fZ.2
    3905:	5ab3 0961 4603 5aa1 3763 5aa1 0a61 4f04     Z..aF.Z.7cZ..aO.
    3915:	5aa1 e05a b131 635a a1bc 635a a198 635a     Z..Z.1cZ..cZ..cZ
    3925:	b111 5a41 a25a a1e6 5ab1 2563 5aa1 c163     ..ZA.Z..Z.%cZ..c
    3935:	5aa1 9d61 4e04 5aa1 7c63 5ab0 065a a15d     Z..aN.Z.|cZ..Z.]
    3945:	635a a18a 5ab1 2263 5aa1 5a5a b329 635a     cZ..Z."cZ.ZZ.)cZ
    3955:	a12b 614f 045a a1fd 5ab1 2163 5aa1 d461     .+aO.Z..Z.!cZ..a
    3965:	560a 5a40 0c5a c00a 5aa0 985a b029 5ab1     V.Z@.Z..Z..Z.)Z.
    3975:	015a 4180 5aa1 665a b132 5ab3 0963 5aa1     .ZA.Z.fZ.2Z..cZ.
    3985:	3761 4e04 5aa1 0a63 5aa1 e05a b131 635a     7aN.Z..cZ..Z.1cZ
    3995:	a1bc 635a a198 635a b111 6189 155a 41a2     ..cZ..cZ..a..ZA.
    39a5:	5aa1 e65a b125 5ab3 2963 5aa1 c161 4e04     Z..Z.%Z.)cZ..aN.
    39b5:	5aa1 9d61 4603 5aa1 7c63 5aa1 5d63 5aa1     Z..aF.Z.|cZ.]cZ.
    39c5:	8a5a b122 635a a15a 612c 005a b309 6146     .Z."cZ.Za,.Z..aF
    39d5:	035a a12b 614f 045a a1fd 5ab1 2163 5aa1     .Z.+aO.Z..Z.!cZ.
    39e5:	d463 5ab0 0963 635a a081 5ab0 295a b101     .cZ..ccZ..Z.)Z..
    39f5:	5a41 8061 2c00 5aa1 665a b132 6146 035a     ZA.a,.Z.fZ.2aF.Z
    3a05:	a137 614e 045a a10a 635a a1e0 5ab1 3163     .7aN.Z..cZ..Z.1c
    3a15:	5aa1 bc63 5aa1 9863 5ab1 115a b329 6189     Z..cZ..cZ..Z.)a.
    3a25:	155a b009 5a40 105a c00c 5aa0 665a b026     .Z..Z@.Z..Z.fZ.&
    3a35:	5a41 a25a a1e6 5ab1 255a b309 5ab3 2963     ZA.Z..Z.%Z..Z.)c
    3a45:	5aa1 c161 4e04 5aa1 9d63 5aa1 7c63 5aa1     Z..aN.Z..cZ.|cZ.
    3a55:	5d63 5ab0 065a a18a 5ab1 2263 5a40 0d5a     ]cZ..Z..Z."cZ@.Z
    3a65:	c00a 5aa0 8a5a b026 5aa1 5a5a b309 5ab4     ..Z..Z.&Z.ZZ..Z.
    3a75:	2263 5aa1 2b61 4f04 5aa1 fd5a b121 635a     "cZ.+aO.Z..Z.!cZ
    3a85:	a1d4 612a 0a5a b101 612c 005a b329 5ab4     ..a*.Z..a,.Z.)Z.
    3a95:	0261 060b 5ab0 0661 560a 5ab0 265a b309     .a..Z..aV.Z.&Z..
    3aa5:	61a5 0e5a b006 6363 5a40 0e5a a022 5ab0     a..Z..ccZ@.Z."Z.
    3ab5:	265a a1e6 5ab1 2563 5aa1 c161 4e04 5aa1     &Z..Z.%cZ..aN.Z.
    3ac5:	9d63 5aa1 7c63 5aa1 5d63 5aa1 8a5a b122     .cZ.|cZ.]cZ..Z."
    3ad5:	635a a15a 635a a12b 614f 045a a1fd 5ab1     cZ.ZcZ.+aO.Z..Z.
    3ae5:	2163 5aa1 d463 5ab0 0663 635a b101 5a4b     !cZ..cZ..ccZ..ZK
    3af5:	065a b329 6188 155a 400d 5ab0 265a 4180     .Z.)a..Z@.Z.&ZA.
    3b05:	5aa1 665a b132 5ab3 0961 4603 5aa1 3761     Z.fZ.2Z..aF.Z.7a
    3b15:	4e04 5aa1 0a63 5aa1 e05a b131 635a a1bc     N.Z..cZ..Z.1cZ..
    3b25:	635a a198 635a b111 5a41 a25a a1e6 612d     cZ..cZ..ZA.Z..a-
    3b35:	005a b125 6145 035a a1c1 614f 045a a19d     .Z.%aE.Z..aO.Z..
    3b45:	635a b006 5aa1 7c63 5aa1 5d63 5aa1 8a5a     cZ..Z.|cZ.]cZ..Z
    3b55:	b122 635a a15a 5ab3 2963 5aa1 2b61 4e04     ."cZ.ZZ.)cZ.+aN.
    3b65:	5aa1 fd5a b121 635a a1d4 6156 0a5a 4009     Z..Z.!cZ..aV.Z@.
    3b75:	5aa0 985a b029 5ab1 015a 4180 5aa1 665a     Z..Z.)Z..ZA.Z.fZ
    3b85:	b132 5ab3 0963 5aa1 3761 4f04 5aa1 0a63     .2Z..cZ.7aO.Z..c
    3b95:	5aa1 e05a b131 635a a1bc 635a a198 635a     Z..Z.1cZ..cZ..cZ
    3ba5:	b111 6188 155a 41a2 5aa1 e65a b125 5ab3     ..a..ZA.Z..Z.%Z.
    3bb5:	2963 5aa1 c161 4f04 5aa1 9d61 4603 5aa1     )cZ..aO.Z..aF.Z.
    3bc5:	7c63 5aa1 5d63 5aa1 8a5a b122 635a a15a     |cZ.]cZ..Z."cZ.Z
    3bd5:	612c 005a b309 6146 035a a12b 614e 045a     a,.Z..aF.Z.+aN.Z
    3be5:	a1fd 5ab1 2163 5aa1 d463 5ab0 0963 635a     ..Z.!cZ..cZ..ccZ
    3bf5:	400d 5aa0 815a b029 5ab1 015a 4180 612c     @.Z..Z.)Z..ZA.a,
    3c05:	005a a166 5ab1 3261 4603 5aa1 3761 4f04     .Z.fZ.2aF.Z.7aO.
    3c15:	5aa1 0a63 5aa1 e05a b131 635a a1bc 635a     Z..cZ..Z.1cZ..cZ
    3c25:	a198 635a b111 5ab3 2961 1612 5ab0 0963     ..cZ..Z.)a..Z..c
    3c35:	5a40 0f5a a066 5ab0 265a 41a2 5aa1 e65a     Z@.Z.fZ.&ZA.Z..Z
    3c45:	b125 5ab3 095a b329 614f 045a a1c1 635a     .%Z..Z.)aO.Z..cZ
    3c55:	a19d 635a a17c 635a b006 5aa1 5d63 5aa1     ..cZ.|cZ..Z.]cZ.
    3c65:	8a5a b122 635a 400c 5aa0 8a5a b026 5aa1     .Z."cZ@.Z..Z.&Z.
    3c75:	5a5a b309 5ab4 2261 4e04 5aa1 2b63 5aa1     ZZ..Z."aN.Z.+cZ.
    3c85:	fd5a b121 635a a1d4 612a 0a5a b101 612c     .Z.!cZ..a*.Z..a,
    3c95:	005a b329 5ab4 0261 070b 5ab0 0661 560a     .Z.)Z..a..Z..aV.
    3ca5:	5a40 0d5a b026 5ab3 0961 8815 5ab0 065a     Z@.Z.&Z..a..Z..Z
    3cb5:	a022 5ab0 265a a1e6 5ab1 2561 4f04 5aa1     ."Z.&Z..Z.%aO.Z.
    3cc5:	c163 5aa1 9d63 5aa1 7c63 5aa1 5d63 5aa1     .cZ..cZ.|cZ.]cZ.
    3cd5:	8a5a b122 635a a15a 614e 045a a12b 635a     .Z."cZ.ZaN.Z.+cZ
    3ce5:	a1fd 5ab1 2163 5aa1 d463 635a b006 635a     ..Z.!cZ..ccZ..cZ
    3cf5:	b101 5ab3 2961 8915 5a40 115a c00c 5ab0     ..Z.)a..Z@.Z..Z.
    3d05:	265a 4180 5aa1 665a b132 5ab3 0961 2204     &ZA.Z.fZ.2Z..a".
    3d15:	5aa1 3763 5aa1 0a63 5aa1 e05a b131 635a     Z.7cZ..cZ..Z.1cZ
    3d25:	a1bc 635a a198 635a b111 5a41 a25a a1e6     ..cZ..cZ..ZA.Z..
    3d35:	612c 005a b125 6123 045a a1c1 635a a19d     a,.Z.%a#.Z..cZ..
    3d45:	635a b006 5aa1 7c63 5aa1 5d63 5aa1 8a5a     cZ..Z.|cZ.]cZ..Z
    3d55:	b122 635a a15a 5ab3 2961 4e04 5aa1 2b63     ."cZ.ZZ.)aN.Z.+c
    3d65:	5aa1 fd5a b121 635a a1d4 6156 0a5a 4007     Z..Z.!cZ..aV.Z@.
    3d75:	5ac0 085a a098 5ab0 295a b101 5a41 805a     Z..Z..Z.)Z..ZA.Z
    3d85:	a166 5ab1 325a b309 614f 045a a137 635a     .fZ.2Z..aO.Z.7cZ
    3d95:	a10a 635a a1e0 5ab1 3163 5aa1 bc63 5aa1     ..cZ..Z.1cZ..cZ.
    3da5:	9863 5ab1 1161 8815 5a41 a25a a1e6 5ab1     .cZ..a..ZA.Z..Z.
    3db5:	255a b329 614f 045a a1c1 635a a19d 635a     %Z.)aO.Z..cZ..cZ
    3dc5:	a17c 635a b009 5aa1 5d61 4603 5aa1 8a5a     .|cZ..Z.]aF.Z..Z
    3dd5:	b122 635a 400a 5ac0 0a61 2c00 5aa0 815a     ."cZ@.Z..a,.Z..Z
    3de5:	b029 5aa1 5a5a b309 6122 045a a12b 635a     .)Z.ZZ..a".Z.+cZ
    3df5:	a1fd 5ab1 2163 5aa1 d461 560a 5ab1 015a     ..Z.!cZ..aV.Z..Z
    3e05:	4180 5aa1 665a b132 614f 045a a137 635a     A.Z.fZ.2aO.Z.7cZ
    3e15:	a10a 635a b009 5aa1 e05a b131 635a a1bc     ..cZ..Z..Z.1cZ..
    3e25:	635a a198 635a b111 5aa1 665a b132 5ab3     cZ..cZ..Z.fZ.2Z.
    3e35:	2961 4e04 5aa1 3763 5aa1 0a63 5aa1 e05a     )aN.Z.7cZ..cZ..Z
    3e45:	b131 635a a1bc 635a a198 635a b111 5a41     .1cZ..cZ..cZ..ZA
    3e55:	a25a a1e6 5ab1 255a b309 5ab3 295a b422     .Z..Z.%Z..Z.)Z."
    3e65:	614f 045a a1c1 635a a19d 635a a17c 635a     aO.Z..cZ..cZ.|cZ
    3e75:	a15d 635a a18a 5ab1 2263 5aa1 5a5a b309     .]cZ..Z."cZ.ZZ..
    3e85:	5ab4 0261 4e04 5aa1 2b63 5aa1 fd5a b121     Z..aN.Z.+cZ..Z.!
    3e95:	635a a1d4 6156 0a5a b101 5ab4 2261 5c15     cZ..aV.Z..Z."a\.
    3ea5:	5ab3 295a b402 6165 165a 400e 5aa0 225a     Z.)Z..ae.Z@.Z."Z
    3eb5:	b026 5aa1 e65a b125 5ab3 0961 2d00 5ac5     .&Z..Z.%Z..a-.Z.
    3ec5:	075a ea00 5a4a 005a 6af2 5a8a 065a 2a11     .Z..ZJ.Zj.Z..Z*.
    3ed5:	5aed 035a 4d00 5a6d f95a 8d07 5a2d 105a     Z..ZM.Zm.Z..Z-.Z
    3ee5:	4a03 5aa5 665a b52e 6145 035a a1c1 635a     J.Z.fZ..aE.Z..cZ
    3ef5:	a19d 635a a17c 635a a15d 635a a18a 5ab1     ..cZ.|cZ.]cZ..Z.
    3f05:	2261 4f04 5aa1 5a5a b50e 5a4a 075a c509     "aO.Z.ZZ..ZJ.Z..
    3f15:	5aa5 8a5a b52e 635a a12b 635a a1fd 5ab1     Z..Z..cZ.+cZ..Z.
    3f25:	2163 5aa1 d463 5ab0 0661 c007 5ab1 015a     !cZ..cZ..a..Z..Z
    3f35:	4b05 5ab3 295a b50e 5a4a 035a c507 5aa5     K.Z.)Z..ZJ.Z..Z.
    3f45:	985a b535 6189 155a 400f 5ab0 265a 4180     .Z.5a..Z@.Z.&ZA.
    3f55:	5aa1 665a b132 5ab3 095a b515 5a4a 065a     Z.fZ.2Z..Z..ZJ.Z
    3f65:	c509 5aa5 815a b535 635a a137 6146 035a     ..Z..Z.5cZ.7aF.Z
    3f75:	a10a 635a a1e0 5ab1 3163 5aa1 bc63 5aa1     ..cZ..Z.1cZ..cZ.
    3f85:	9861 4e04 5ab1 115a 41a2 5aa1 e661 2c00     .aN.Z..ZA.Z..a,.
    3f95:	5ab1 255a b515 5aa5 8a5a b532 6146 035a     Z.%Z..Z..Z.2aF.Z
    3fa5:	a1c1 635a b006 5aa1 9d63 5aa1 7c63 5aa1     ..cZ..Z..cZ.|cZ.
    3fb5:	5d63 5aa1 8a5a b122 614f 045a a15a 5ab3     ]cZ..Z."aO.Z.ZZ.
    3fc5:	295a b512 5a4a 0761 2c00 5aa5 225a b532     )Z..ZJ.a,.Z."Z.2
    3fd5:	6146 035a a12b 635a a1fd 5ab1 2163 5aa1     aF.Z.+cZ..Z.!cZ.
    3fe5:	d461 320b 5a40 0a5a a098 5ab0 295a b101     .a2.Z@.Z..Z.)Z..
    3ff5:	5a41 805a a166 5ab1 325a b309 612c 005a     ZA.Z.fZ.2Z..a,.Z
    4005:	b512 5a4a 055a a598 5ab5 3161 4603 5aa1     ..ZJ.Z..Z.1aF.Z.
    4015:	3763 5aa1 0a63 5aa1 e05a b131 635a a1bc     7cZ..cZ..Z.1cZ..
    4025:	635a a198 614f 045a b111 5ab5 115a 4a07     cZ..aO.Z..Z..ZJ.
    4035:	5aa5 8a5a b532 6188 155a 41a2 5aa1 e65a     Z..Z.2a..ZA.Z..Z
    4045:	b125 5ab3 295a b512 5a4a 065a a581 5ab5     .%Z.)Z..ZJ.Z..Z.
    4055:	3163 5aa1 c163 5aa1 9d63 5aa1 7c61 4603     1cZ..cZ..cZ.|aF.
    4065:	5aa1 5d63 5aa1 8a5a b122 614f 045a a15a     Z.]cZ..Z."aO.Z.Z
    4075:	612c 005a b309 5ab5 115a 4a08 5ac5 0b5a     a,.Z..Z..ZJ.Z..Z
    4085:	a5cb 5ab5 3161 4603 5aa1 2b63 5aa1 fd5a     ..Z.1aF.Z.+cZ..Z
    4095:	b121 635a b009 5aa1 d461 320b 5a40 0e5a     .!cZ..Z..a2.Z@.Z
    40a5:	a081 5ab0 295a b101 612c 005a 4180 5aa1     ..Z.)Z..a,.ZA.Z.
    40b5:	665a b132 5ab5 115a 4a06 5ac5 095a a522     fZ.2Z..ZJ.Z..Z."
    40c5:	5ab5 3261 4603 5aa1 3763 5aa1 0a63 5aa1     Z.2aF.Z.7cZ..cZ.
    40d5:	e05a b131 635a a1bc 635a a198 614f 045a     .Z.1cZ..cZ..aO.Z
    40e5:	b111 5ab3 295a b512 5a4a 035a c507 5aa5     ..Z.)Z..ZJ.Z..Z.
    40f5:	665a b532 61c8 0d5a b009 61c0 075a 4012     fZ.2a..Z..a..Z@.
    4105:	5ac0 0c5a a066 5ab0 265a 41a2 5aa1 e65a     Z..Z.fZ.&ZA.Z..Z
    4115:	b125 5ab3 095a b329 5ab5 125a 4a07 612c     .%Z..Z.)Z..ZJ.a,
    4125:	005a c509 5aa5 cb5a b531 6146 035a a1c1     .Z..Z..Z.1aF.Z..
    4135:	635a a19d 635a a17c 635a b006 5aa1 5d63     cZ..cZ.|cZ..Z.]c
    4145:	5aa1 8a5a b122 614f 045a 400e 5ac0 0a5a     Z..Z."aO.Z@.Z..Z
    4155:	a08a 5ab0 265a a15a 5ab3 095a b422 5ab5     ..Z.&Z.ZZ..Z."Z.
    4165:	115a a58a 5ab5 2e63 5aa1 2b63 5aa1 fd5a     .Z..Z..cZ.+cZ..Z
    4175:	b121 635a a1d4 6132 0b5a b101 5ab3 295a     .!cZ..a2.Z..Z.)Z
    4185:	b402 5ab5 0e5a 4a04 5aa5 225a b532 612a     ..Z..ZJ.Z."Z.2a*
    4195:	0a5a b006 6133 0b5a b026 612c 005a b309     .Z..a3.Z.&a,.Z..
    41a5:	5ab5 125a 4a06 5aa5 985a b531 619c 0d5a     Z..ZJ.Z..Z.1a..Z
    41b5:	b006 61c0 075a 4013 5ac0 0c5a a022 5ab0     ..a..Z@.Z..Z."Z.
    41c5:	265a a1e6 5ab1 255a b511 5a4a 0361 2c00     &Z..Z.%Z..ZJ.a,.
    41d5:	5ac5 075a a566 5ab5 2e61 4603 5aa1 c163     Z..Z.fZ..aF.Z..c
    41e5:	5aa1 9d63 5aa1 7c63 5aa1 5d63 5aa1 8a5a     Z..cZ.|cZ.]cZ..Z
    41f5:	b122 614f 045a a15a 5ab5 0e5a 4a07 5ac5     ."aO.Z.ZZ..ZJ.Z.
    4205:	095a a58a 5ab5 2e63 5aa1 2b63 5aa1 fd5a     .Z..Z..cZ.+cZ..Z
    4215:	b121 635a a1d4 6132 0b5a b006 5ab1 015a     .!cZ..a2.Z..Z..Z
    4225:	b329 5ab5 0e5a 4a03 5ac5 075a a598 5ab5     .)Z..ZJ.Z..Z..Z.
    4235:	3561 8915 5a40 115a b026 5a41 805a a166     5a..Z@.Z.&ZA.Z.f
    4245:	5ab1 325a b309 5ab5 155a 4a06 5ac5 095a     Z.2Z..Z..ZJ.Z..Z
    4255:	a581 5ab5 3563 5aa1 3761 4603 5aa1 0a63     ..Z.5cZ.7aF.Z..c
    4265:	5aa1 e061 2c00 5ab1 3161 4603 5aa1 bc63     Z..a,.Z.1aF.Z..c
    4275:	5aa1 9861 4e04 5ab1 115a 41a2 612c 005a     Z..aN.Z..ZA.a,.Z
    4285:	a1e6 5ab1 255a b515 5aa5 8a5a b532 6146     ..Z.%Z..Z..Z.2aF
    4295:	035a a1c1 635a a19d 635a a17c 635a b006     .Z..cZ..cZ.|cZ..
    42a5:	5aa1 5d63 5aa1 8a5a b122 614f 045a a15a     Z.]cZ..Z."aO.Z.Z
    42b5:	5ab3 295a b512 612c 005a 4a07 5aa5 225a     Z.)Z..a,.ZJ.Z."Z
    42c5:	b532 6146 035a a12b 635a a1fd 5ab1 2163     .2aF.Z.+cZ..Z.!c
    42d5:	5aa1 d461 320b 5a40 0c5a c00a 5aa0 985a     Z..a2.Z@.Z..Z..Z
    42e5:	b029 5ab1 015a 4180 5aa1 665a b132 5ab3     .)Z..ZA.Z.fZ.2Z.
    42f5:	0961 2c00 5ab5 125a 4a05 5aa5 985a b531     .a,.Z..ZJ.Z..Z.1
    4305:	6146 035a a137 635a a10a 635a a1e0 5ab1     aF.Z.7cZ..cZ..Z.
    4315:	3163 5aa1 bc61 4f04 5aa1 9863 5ab1 115a     1cZ..aO.Z..cZ..Z
    4325:	b511 5a4a 075a a58a 5ab5 3261 8815 5a41     ..ZJ.Z..Z.2a..ZA
    4335:	a25a a1e6 5ab1 255a b329 5ab5 125a 4a06     .Z..Z.%Z.)Z..ZJ.
    4345:	5aa5 815a b531 635a a1c1 635a a19d 635a     Z..Z.1cZ..cZ..cZ
    4355:	a17c 635a a15d 6122 045a a18a 5ab1 2263     .|cZ.]a".Z..Z."c
    4365:	5aa1 5a61 2d00 5ab3 095a b511 5a4a 085a     Z.Za-.Z..Z..ZJ.Z
    4375:	c50b 5aa5 cb5a b531 6145 035a a12b 635a     ..Z..Z.1aE.Z.+cZ
    4385:	a1fd 5ab1 2163 5aa1 d463 5ab0 0961 c107     ..Z.!cZ..cZ..a..
    4395:	5aa0 815a b029 5ab1 0161 2c00 5a41 805a     Z..Z.)Z..a,.ZA.Z
    43a5:	a166 5ab1 325a b511 5a4a 065a c509 5aa5     .fZ.2Z..ZJ.Z..Z.
    43b5:	225a b532 6146 035a a137 635a a10a 635a     "Z.2aF.Z.7cZ..cZ
    43c5:	a1e0 5ab1 3163 5aa1 bc61 4e04 5aa1 9863     ..Z.1cZ..aN.Z..c
    43d5:	5ab1 115a b329 5ab5 125a 4a03 5ac5 075a     Z..Z.)Z..ZJ.Z..Z
    43e5:	a566 612d 005a b532 615c 155a b009 5a40     .fa-.Z.2a\.Z..Z@
    43f5:	105a c00c 5aa0 665a b026 5a41 a25a a1e6     .Z..Z.fZ.&ZA.Z..
    4405:	5ab1 255a b309 5ab3 295a b512 612c 005a     Z.%Z..Z.)Z..a,.Z
    4415:	4a07 5ac5 095a a5cb 5ab5 3161 4603 5aa1     J.Z..Z..Z.1aF.Z.
    4425:	c163 5aa1 9d63 5aa1 7c63 5aa1 5d61 4e04     .cZ..cZ.|cZ.]aN.
    4435:	5ab0 065a a18a 5ab1 2263 5a40 0d5a c00a     Z..Z..Z."cZ@.Z..
    4445:	5aa0 8a5a b026 5aa1 5a5a b309 5ab4 225a     Z..Z.&Z.ZZ..Z."Z
    4455:	b511 5aa5 8a5a b52e 635a a12b 635a a1fd     ..Z..Z..cZ.+cZ..
    4465:	5ab1 2163 5aa1 d461 330b 5ab1 015a b329     Z.!cZ..a3.Z..Z.)
    4475:	5ab4 025a b50e 5a4a 045a a522 5ab5 3261     Z..Z..ZJ.Z."Z.2a
    4485:	2a0a 5ab0 0661 320b 5ab0 2661 2c00 5ab3     *.Z..a2.Z.&a,.Z.
    4495:	095a b512 5a4a 065a a598 5ab5 3161 9c0d     .Z..ZJ.Z..Z.1a..
    44a5:	5ab0 0661 c107 5a40 0e5a a022 5ab0 265a     Z..a..Z@.Z."Z.&Z
    44b5:	a1e6 5ab1 255a b511 612c 005a 4a03 5ac5     ..Z.%Z..a,.ZJ.Z.
    44c5:	075a a566 5ab5 2e61 4603 5aa1 c163 5aa1     .Z.fZ..aF.Z..cZ.
    44d5:	9d63 5aa1 7c63 5aa1 5d61 4e04 5aa1 8a5a     .cZ.|cZ.]aN.Z..Z
    44e5:	b122 635a a15a 5ab5 0e5a 4a07 5ac5 095a     ."cZ.ZZ..ZJ.Z..Z
    44f5:	a58a 5ab5 2e63 5aa1 2b63 5aa1 fd5a b121     ..Z..cZ.+cZ..Z.!
    4505:	635a a1d4 635a b006 61c1 075a b101 5a4b     cZ..cZ..a..Z..ZK
    4515:	065a b329 5ab5 0e5a 4a03 5ac5 075a a598     .Z.)Z..ZJ.Z..Z..
    4525:	5ab5 3561 8815 5a40 0d5a b026 5a41 805a     Z.5a..Z@.Z.&ZA.Z
    4535:	a166 5ab1 325a b309 5ab5 155a 4a06 5ac5     .fZ.2Z..Z..ZJ.Z.
    4545:	095a a581 5ab5 3563 5aa1 3763 5aa1 0a61     .Z..Z.5cZ.7cZ..a
    4555:	4603 5aa1 e061 2c00 5ab1 3161 4603 5aa1     F.Z..a,.Z.1aF.Z.
    4565:	bc61 4f04 5aa1 9863 5ab1 115a 41a2 612c     .aO.Z..cZ..ZA.a,
    4575:	005a a1e6 5ab1 255a b515 5aa5 8a5a b532     .Z..Z.%Z..Z..Z.2
    4585:	6146 035a a1c1 635a a19d 635a b006 5aa1     aF.Z..cZ..cZ..Z.
    4595:	7c63 5aa1 5d61 4e04 5aa1 8a5a b122 635a     |cZ.]aN.Z..Z."cZ
    45a5:	a15a 5ab3 295a b512 612c 005a 4a07 5aa5     .ZZ.)Z..a,.ZJ.Z.
    45b5:	225a b532 6146 035a a12b 635a a1fd 5ab1     "Z.2aF.Z.+cZ..Z.
    45c5:	2163 5aa1 d461 330b 5a40 095a a098 5ab0     !cZ..a3.Z@.Z..Z.
    45d5:	295a b101 5a41 805a a166 5ab1 325a b309     )Z..ZA.Z.fZ.2Z..
    45e5:	612c 005a b512 5a4a 055a a598 5ab5 3161     a,.Z..ZJ.Z..Z.1a
    45f5:	4603 5aa1 3763 5aa1 0a63 5aa1 e05a b131     F.Z.7cZ..cZ..Z.1
    4605:	635a a1bc 614e 045a a198 635a b111 5ab5     cZ..aN.Z..cZ..Z.
    4615:	115a 4a07 5aa5 8a5a b532 6189 155a 41a2     .ZJ.Z..Z.2a..ZA.
    4625:	5aa1 e65a b125 5ab3 295a b512 5a4a 065a     Z..Z.%Z.)Z..ZJ.Z
    4635:	a581 5ab5 3163 5aa1 c163 5aa1 9d63 5aa1     ..Z.1cZ..cZ..cZ.
    4645:	7c63 5aa1 5d61 2204 5aa1 8a61 2c00 5ab1     |cZ.]a".Z..a,.Z.
    4655:	2261 4603 5aa1 5a61 2c00 5ab3 095a b511     "aF.Z.Za,.Z..Z..
    4665:	5a4a 085a c50b 5aa5 cb5a b531 6146 035a     ZJ.Z..Z..Z.1aF.Z
    4675:	a12b 635a a1fd 5ab1 2163 5aa1 d463 5ab0     .+cZ..Z.!cZ..cZ.
    4685:	0961 c107 5a40 0d5a a081 5ab0 295a b101     .a..Z@.Z..Z.)Z..
    4695:	612c 005a 4180 5aa1 665a b132 5ab5 115a     a,.ZA.Z.fZ.2Z..Z
    46a5:	4a06 5ac5 095a a522 5ab5 3261 4603 5aa1     J.Z..Z."Z.2aF.Z.
    46b5:	3763 5aa1 0a63 5aa1 e05a b131 614e 045a     7cZ..cZ..Z.1aN.Z
    46c5:	a1bc 635a a198 635a b111 5ab3 295a b512     ..cZ..cZ..Z.)Z..
    46d5:	5a4a 035a c507 5aa5 6661 2c00 5ab5 3261     ZJ.Z..Z.fa,.Z.2a
    46e5:	eb11 5ab0 0963 5a40 0f5a a066 5ab0 265a     ..Z..cZ@.Z.fZ.&Z
    46f5:	41a2 5aa1 e65a b125 5ab3 095a b329 5ab5     A.Z..Z.%Z..Z.)Z.
    4705:	1261 2c00 5a4a 075a c509 5aa5 cb5a b531     .a,.ZJ.Z..Z..Z.1
    4715:	6146 035a a1c1 635a a19d 635a a17c 614e     aF.Z..cZ..cZ.|aN
    4725:	045a b006 5aa1 5d63 5aa1 8a5a b122 635a     .Z..Z.]cZ..Z."cZ
    4735:	400c 5aa0 8a5a b026 5aa1 5a5a b309 5ab4     @.Z..Z.&Z.ZZ..Z.
    4745:	225a b511 5aa5 8a5a b52e 635a a12b 635a     "Z..Z..Z..cZ.+cZ
    4755:	a1fd 5ab1 2163 5aa1 d461 330b 5ab1 015a     ..Z.!cZ..a3.Z..Z
    4765:	b329 5ab4 025a b50e 5a4a 045a a522 5ab5     .)Z..Z..ZJ.Z."Z.
    4775:	3261 2a0a 5ab0 0661 320b 5a40 0d5a b026     2a*.Z..a2.Z@.Z.&
    4785:	612c 005a b309 5ab5 125a 4a06 5aa5 985a     a,.Z..Z..ZJ.Z..Z
    4795:	b531 615d 155a b006 5aa0 225a b026 5aa1     .1a].Z..Z."Z.&Z.
    47a5:	e65a b125 612c 005a b511 5a4a 035a c507     .Z.%a,.Z..ZJ.Z..
    47b5:	5aa5 665a b52e 6146 035a a1c1 635a a19d     Z.fZ..aF.Z..cZ..
    47c5:	635a a17c 614e 045a a15d 635a a18a 5ab1     cZ.|aN.Z.]cZ..Z.
    47d5:	2263 5aa1 5a5a b50e 5a4a 075a c509 5aa5     "cZ.ZZ..ZJ.Z..Z.
    47e5:	8a5a b52e 635a a12b 635a a1fd 5ab1 2163     .Z..cZ.+cZ..Z.!c
    47f5:	5aa1 d461 c107 5ab0 0663 5ab1 015a b329     Z..a..Z..cZ..Z.)
    4805:	5ab5 0e5a 4a03 5ac5 075a a598 5ab5 3561     Z..ZJ.Z..Z..Z.5a
    4815:	8815 5a40 115a c00c 5ab0 265a 4180 5aa1     ..Z@.Z..Z.&ZA.Z.
    4825:	665a b132 5ab3 095a b515 5a4a 065a c509     fZ.2Z..Z..ZJ.Z..
    4835:	5aa5 815a b535 635a a137 635a a10a 6146     Z..Z.5cZ.7cZ..aF
    4845:	035a a1e0 612c 005a b131 6122 045a a1bc     .Z..a,.Z.1a".Z..
    4855:	635a a198 635a b111 5a41 a261 2d00 5aa1     cZ..cZ..ZA.a-.Z.
    4865:	e65a b125 5ab5 155a a58a 5ab5 3261 4503     .Z.%Z..Z..Z.2aE.
    4875:	5aa1 c163 5aa1 9d63 5ab0 065a a17c 614f     Z..cZ..cZ..Z.|aO
    4885:	045a a15d 635a a18a 5ab1 2263 5aa1 5a5a     .Z.]cZ..Z."cZ.ZZ
    4895:	b329 5ab5 1261 2c00 5a4a 075a a522 5ab5     .)Z..a,.ZJ.Z."Z.
    48a5:	3261 4603 5aa1 2b63 5aa1 fd5a b121 635a     2aF.Z.+cZ..Z.!cZ
    48b5:	a1d4 6132 0b5a 4007 5ac0 085a a098 5ab0     ..a2.Z@.Z..Z..Z.
    48c5:	295a b101 5a41 805a a166 5ab1 325a b309     )Z..ZA.Z.fZ.2Z..
    48d5:	612d 005a b512 5a4a 055a a598 5ab5 3161     a-.Z..ZJ.Z..Z.1a
    48e5:	4503 5aa1 3763 5aa1 0a63 5aa1 e05a b131     E.Z.7cZ..cZ..Z.1
    48f5:	614f 045a a1bc 635a a198 635a b111 5ab5     aO.Z..cZ..cZ..Z.
    4905:	115a 4a07 5aa5 8a5a b532 6188 155a 41a2     .ZJ.Z..Z.2a..ZA.
    4915:	5aa1 e65a b125 5ab3 295a b512 5a4a 065a     Z..Z.%Z.)Z..ZJ.Z
    4925:	a581 5ab5 3163 5aa1 c163 5aa1 9d63 5aa1     ..Z.1cZ..cZ..cZ.
    4935:	7c61 4f04 5ab0 095a a15d 6146 035a a18a     |aO.Z..Z.]aF.Z..
    4945:	612c 005a b122 6146 035a 400a 612c 005a     a,.Z."aF.Z@.a,.Z
    4955:	c00a 5aa0 815a b029 5aa1 5a5a b309 5ab5     ..Z..Z.)Z.ZZ..Z.
    4965:	115a 4a08 5ac5 0b5a a5cb 5ab5 3161 4603     .ZJ.Z..Z..Z.1aF.
    4975:	5aa1 2b63 5aa1 fd5a b121 635a a1d4 6132     Z.+cZ..Z.!cZ..a2
    4985:	0b5a b101 5a41 805a a166 5ab1 3261 2c00     .Z..ZA.Z.fZ.2a,.
    4995:	5ab5 115a 4a06 5ac5 095a a522 5ab5 3261     Z..ZJ.Z..Z."Z.2a
    49a5:	4603 5aa1 3763 5aa1 0a63 5ab0 095a a1e0     F.Z.7cZ..cZ..Z..
    49b5:	5ab1 3161 4f04 5aa1 bc63 5aa1 9863 5ab1     Z.1aO.Z..cZ..cZ.
    49c5:	115a a166 5ab1 325a b329 5ab5 1261 2c00     .Z.fZ.2Z.)Z..a,.
    49d5:	5a4a 035a c507 5aa5 665a b532 6146 035a     ZJ.Z..Z.fZ.2aF.Z
    49e5:	a137 635a a10a 635a a1e0 5ab1 3161 4e04     .7cZ..cZ..Z.1aN.
    49f5:	5aa1 bc63 5aa1 9863 5ab1 115a 41a2 5aa1     Z..cZ..cZ..ZA.Z.
    4a05:	e65a b125 5ab3 095a b329 5ab4 2261 2c00     .Z.%Z..Z.)Z."a,.
    4a15:	5ab5 125a 4a07 5ac5 095a a5cb 5ab5 3161     Z..ZJ.Z..Z..Z.1a
    4a25:	4603 5aa1 c163 5aa1 9d63 5aa1 7c61 4f04     F.Z..cZ..cZ.|aO.
    4a35:	5aa1 5d63 5aa1 8a5a b122 635a a15a 5ab3     Z.]cZ..Z."cZ.ZZ.
    4a45:	095a b402 5ab5 115a a58a 5ab5 2e63 5aa1     .Z..Z..Z..Z..cZ.
    4a55:	2b63 5aa1 fd5a b121 635a a1d4 6132 0b5a     +cZ..Z.!cZ..a2.Z
    4a65:	b101 5ab4 225a b50e 5a4a 045a a522 5ab5     ..Z."Z..ZJ.Z."Z.
    4a75:	3261 5d15 5ab3 2961 2c00 5ab4 025a b512     2a].Z.)a,.Z..Z..
    4a85:	5a4a 065a a598 5ab5 3161 5c15 5a40 0e5a     ZJ.Z..Z.1a\.Z@.Z
    4a95:	a022 5ab0 265a a1e6 5ab1 2561 2c00 5ab3     ."Z.&Z..Z.%a,.Z.
    4aa5:	095a b511 5a4a 035a c507 5aa5 665a b52e     .Z..ZJ.Z..Z.fZ..
    4ab5:	6146 035a a1c1 635a a19d 614f 045a a17c     aF.Z..cZ..aO.Z.|
    4ac5:	635a a15d 635a a18a 5ab1 2263 5aa1 5a5a     cZ.]cZ..Z."cZ.ZZ
    4ad5:	b50e 5a4a 075a c509 5aa5 8a5a b52e 635a     ..ZJ.Z..Z..Z..cZ
    4ae5:	a12b 635a a1fd 5ab1 2161 4e04 5aa1 d463     .+cZ..Z.!aN.Z..c
    4af5:	5ab0 0663 635a b101 5a4b 055a b329 5ab5     Z..ccZ..ZK.Z.)Z.
    4b05:	0e5a 4a03 5ac5 075a a598 5ab5 3561 8915     .ZJ.Z..Z..Z.5a..
    4b15:	5a40 0f5a b026 5a41 805a a166 5ab1 325a     Z@.Z.&ZA.Z.fZ.2Z
    4b25:	b309 5ab5 155a 4a06 5ac5 095a a581 5ab5     ..Z..ZJ.Z..Z..Z.
    4b35:	3563 5aa1 3763 5aa1 0a61 4e04 5aa1 e05a     5cZ.7cZ..aN.Z..Z
    4b45:	b131 6146 035a a1bc 635a a198 635a b111     .1aF.Z..cZ..cZ..
    4b55:	5a41 a261 2c00 5aa1 e65a b125 5ab5 155a     ZA.a,.Z..Z.%Z..Z
    4b65:	a58a 5ab5 3261 4603 5aa1 c163 5ab0 065a     ..Z.2aF.Z..cZ..Z
    4b75:	a19d 614f 045a a17c 635a a15d 635a a18a     ..aO.Z.|cZ.]cZ..
    4b85:	5ab1 2263 5aa1 5a5a b329 5ab5 1261 2c00     Z."cZ.ZZ.)Z..a,.
    4b95:	5a4a 075a a522 5ab5 3261 4603 5aa1 2b63     ZJ.Z."Z.2aF.Z.+c
    4ba5:	5aa1 fd5a b121 614e 045a a1d4 6156 0a5a     Z..Z.!aN.Z..aV.Z
    4bb5:	400a 5aa0 985a b029 5ab1 015a 4180 5aa1     @.Z..Z.)Z..ZA.Z.
    4bc5:	665a b132 5ab3 0961 2c00 5ab5 125a 4a05     fZ.2Z..a,.Z..ZJ.
    4bd5:	5aa5 985a b531 6146 035a a137 635a a10a     Z..Z.1aF.Z.7cZ..
    4be5:	614f 045a a1e0 5ab1 3163 5aa1 bc63 5aa1     aO.Z..Z.1cZ..cZ.
    4bf5:	9863 5ab1 115a b511 5a4a 075a a58a 5ab5     .cZ..Z..ZJ.Z..Z.
    4c05:	3261 8815 5a41 a25a a1e6 5ab1 255a b329     2a..ZA.Z..Z.%Z.)
    4c15:	5ab5 125a 4a06 5aa5 815a b531 635a a1c1     Z..ZJ.Z..Z.1cZ..
    4c25:	635a a19d 614f 045a a17c 635a a15d 635a     cZ..aO.Z.|cZ.]cZ
    4c35:	a18a 5ab1 2261 4603 5aa1 5a61 2c00 5ab3     ..Z."aF.Z.Za,.Z.
    4c45:	095a b511 5a4a 085a c50b 5aa5 cb5a b531     .Z..ZJ.Z..Z..Z.1
    4c55:	6146 035a a12b 635a a1fd 5ab1 2161 4e04     aF.Z.+cZ..Z.!aN.
    4c65:	5ab0 095a a1d4 6156 0a5a 400e 5aa0 815a     Z..Z..aV.Z@.Z..Z
    4c75:	b029 612c 005a b101 5a41 805a a166 5ab1     .)a,.Z..ZA.Z.fZ.
    4c85:	325a b511 5a4a 065a c509 5aa5 225a b532     2Z..ZJ.Z..Z."Z.2
    4c95:	6146 035a a137 635a a10a 614f 045a a1e0     aF.Z.7cZ..aO.Z..
    4ca5:	5ab1 3163 5aa1 bc63 5aa1 9863 5ab1 115a     Z.1cZ..cZ..cZ..Z
    4cb5:	b329 5ab5 125a 4a03 5ac5 0761 2c00 5aa5     .)Z..ZJ.Z..a,.Z.
    4cc5:	665a b532 6178 0e5a b009 6363 5a40 125a     fZ.2ax.Z..ccZ@.Z
    4cd5:	c00c 5aa0 665a b026 5a41 a25a a1e6 5ab1     ..Z.fZ.&ZA.Z..Z.
    4ce5:	255a b309 5ab3 295a b512 612c 005a 4a07     %Z..Z.)Z..a,.ZJ.
    4cf5:	5ac5 095a a5cb 5ab5 3161 4603 5aa1 c163     Z..Z..Z.1aF.Z..c
    4d05:	5aa1 9d61 4f04 5aa1 7c63 5ab0 065a a15d     Z..aO.Z.|cZ..Z.]
    4d15:	635a a18a 5ab1 2263 5a40 0e5a c00a 5aa0     cZ..Z."cZ@.Z..Z.
    4d25:	8a5a b026 5aa1 5a5a b309 5ab4 225a b511     .Z.&Z.ZZ..Z."Z..
    4d35:	5aa5 8a5a b52e 635a a12b 635a a1fd 5ab1     Z..Z..cZ.+cZ..Z.
    4d45:	2161 4e04 5aa1 d461 560a 5ab1 015a b329     !aN.Z..aV.Z..Z.)
    4d55:	5ab4 025a b50e 5a4a 045a a522 5ab5 3261     Z..Z..ZJ.Z."Z.2a
    4d65:	060b 5ab0 0661 560a 5ab0 2661 2d00 5ab3     ..Z..aV.Z.&a-.Z.
    4d75:	095a b512 5a4a 065a a598 5ab5 3161 780e     .Z..ZJ.Z..Z.1ax.
    4d85:	5ab0 0663 635a 4013 5ac0 0c5a a022 5ab0     Z..ccZ@.Z..Z."Z.
    4d95:	265a a1e6 5ab1 2561 2c00 5ab5 115a 4a03     &Z..Z.%a,.Z..ZJ.
    4da5:	5ac5 075a a566 5ab5 2e61 4603 5aa1 c163     Z..Z.fZ..aF.Z..c
    4db5:	5aa1 9d61 4e04 5aa1 7c63 5aa1 5d63 5aa1     Z..aN.Z.|cZ.]cZ.
    4dc5:	8a5a b122 635a a15a 5ab5 0e5a 4a07 5ac5     .Z."cZ.ZZ..ZJ.Z.
    4dd5:	095a a58a 5ab5 2e63 5aa1 2b63 5aa1 fd5a     .Z..Z..cZ.+cZ..Z
    4de5:	b121 614f 045a a1d4 6156 0a5a b006 5ab1     .!aO.Z..aV.Z..Z.
    4df5:	015a b329 5ab5 0e5a 4a03 5ac5 075a a598     .Z.)Z..ZJ.Z..Z..
    4e05:	5ab5 3561 8815 5a40 115a b026 5a41 805a     Z.5a..Z@.Z.&ZA.Z
    4e15:	a166 5ab1 325a b309 5ab5 155a 4a06 5ac5     .fZ.2Z..Z..ZJ.Z.
    4e25:	095a a581 5ab5 3563 5aa1 3763 5aa1 0a61     .Z..Z.5cZ.7cZ..a
    4e35:	4f04 5aa1 e05a b131 6146 035a a1bc 635a     O.Z..Z.1aF.Z..cZ
    4e45:	a198 635a b111 612c 005a 41a2 5aa1 e65a     ..cZ..a,.ZA.Z..Z
    4e55:	b125 5ab5 155a a58a 5ab5 3261 4603 5aa1     .%Z..Z..Z.2aF.Z.
    4e65:	c163 5aa1 9d61 4e04 5aa1 7c63 5ab0 065a     .cZ..aN.Z.|cZ..Z
    4e75:	a15d 635a a18a 5ab1 2263 5aa1 5a5a b329     .]cZ..Z."cZ.ZZ.)
    4e85:	5ab5 1261 2c00 5a4a 075a a522 5ab5 3261     Z..a,.ZJ.Z."Z.2a
    4e95:	4603 5aa1 2b61 4f04 5aa1 fd5a b121 635a     F.Z.+aO.Z..Z.!cZ
    4ea5:	a1d4 6156 0a5a 400c 5ac0 0a5a a098 5ab0     ..aV.Z@.Z..Z..Z.
    4eb5:	295a b101 5a41 805a a166 5ab1 325a b309     )Z..ZA.Z.fZ.2Z..
    4ec5:	612c 005a b512 5a4a 055a a598 5ab5 3161     a,.Z..ZJ.Z..Z.1a
    4ed5:	4603 5aa1 3761 4e04 5aa1 0a63 5aa1 e05a     F.Z.7aN.Z..cZ..Z
    4ee5:	b131 635a a1bc 635a a198 635a b111 5ab5     .1cZ..cZ..cZ..Z.
    4ef5:	115a 4a07 5aa5 8a5a b532 6189 155a 41a2     .ZJ.Z..Z.2a..ZA.
    4f05:	5aa1 e65a b125 5ab3 295a b512 5a4a 065a     Z..Z.%Z.)Z..ZJ.Z
    4f15:	a581 5ab5 3163 5aa1 c161 4e04 5aa1 9d63     ..Z.1cZ..aN.Z..c
    4f25:	5aa1 7c63 5aa1 5d63 5aa1 8a5a b122 6146     Z.|cZ.]cZ..Z."aF
    4f35:	035a a15a 612c 005a b309 5ab5 115a 4a08     .Z.Za,.Z..Z..ZJ.
    4f45:	5ac5 0b5a a5cb 5ab5 3161 4603 5aa1 2b61     Z..Z..Z.1aF.Z.+a
    4f55:	4f04 5aa1 fd5a b121 635a a1d4 635a b009     O.Z..Z.!cZ..cZ..
    4f65:	6363 5aa0 815a b029 612c 005a b101 5a41     ccZ..Z.)a,.Z..ZA
    4f75:	805a a166 5ab1 325a b511 5a4a 065a c509     .Z.fZ.2Z..ZJ.Z..
    4f85:	5aa5 225a b532 6146 035a a137 614e 045a     Z."Z.2aF.Z.7aN.Z
    4f95:	a10a 635a a1e0 5ab1 3163 5aa1 bc63 5aa1     ..cZ..Z.1cZ..cZ.
    4fa5:	9863 5ab1 115a b329 5ab5 125a 4a03 5ac5     .cZ..Z.)Z..ZJ.Z.
    4fb5:	0761 2c00 5aa5 665a b532 615d 155a b009     .a,.Z.fZ.2a].Z..
    4fc5:	5a40 105a c00c 5aa0 665a b026 5a41 a25a     Z@.Z..Z.fZ.&ZA.Z
    4fd5:	a1e6 5ab1 255a b309 612c 005a b329 5ab5     ..Z.%Z..a,.Z.)Z.
    4fe5:	125a 4a07 5ac5 095a a5cb 5ab5 3161 4603     .ZJ.Z..Z..Z.1aF.
    4ff5:	5aa1 c161 4e04 5aa1 9d63 5aa1 7c63 5aa1     Z..aN.Z..cZ.|cZ.
    5005:	5d63 5ab0 065a a18a 5ab1 2263 5a40 0d5a     ]cZ..Z..Z."cZ@.Z
    5015:	c00a 5aa0 8a5a b026 5aa1 5a5a b309 5ab4     ..Z..Z.&Z.ZZ..Z.
    5025:	225a b511 5aa5 8a5a b52e 635a a12b 614f     "Z..Z..Z..cZ.+aO
    5035:	045a a1fd 5ab1 2163 5aa1 d461 560a 5ab1     .Z..Z.!cZ..aV.Z.
    5045:	015a b329 5ab4 025a b50e 5a4a 045a a522     .Z.)Z..Z..ZJ.Z."
    5055:	5ab5 3261 060b 5ab0 0661 560a 5ab0 2661     Z.2a..Z..aV.Z.&a
    5065:	2c00 5ab3 095a b512 5a4a 065a a598 5ab5     ,.Z..Z..ZJ.Z..Z.
    5075:	3161 790e 5ab0 0663 635a 400e 5aa0 225a     1ay.Z..ccZ@.Z."Z
    5085:	b026 5aa1 e65a b125 612c 005a b511 5a4a     .&Z..Z.%a,.Z..ZJ
    5095:	035a c507 5aa5 665a b52e 6146 035a a1c1     .Z..Z.fZ..aF.Z..
    50a5:	614e 045a a19d 635a a17c 635a a15d 635a     aN.Z..cZ.|cZ.]cZ
    50b5:	a18a 5ab1 2263 5aa1 5a5a b50e 5a4a 075a     ..Z."cZ.ZZ..ZJ.Z
    50c5:	c509 5aa5 8a5a b52e 635a a12b 614f 045a     ..Z..Z..cZ.+aO.Z
    50d5:	a1fd 5ab1 2163 5aa1 d463 5ab0 0663 635a     ..Z.!cZ..cZ..ccZ
    50e5:	b101 5a4b 065a b329 5ab5 0e5a 4a03 5ac5     ..ZK.Z.)Z..ZJ.Z.
    50f5:	075a a598 5ab5 3561 8815 5a40 0d5a b026     .Z..Z.5a..Z@.Z.&
    5105:	5a41 805a a166 5ab1 325a b309 5ab5 155a     ZA.Z.fZ.2Z..Z..Z
    5115:	4a06 5ac5 095a a581 5ab5 3563 5aa1 3761     J.Z..Z..Z.5cZ.7a
    5125:	4f04 5aa1 0a63 5aa1 e05a b131 6146 035a     O.Z..cZ..Z.1aF.Z
    5135:	a1bc 635a a198 635a b111 612c 005a 41a2     ..cZ..cZ..a,.ZA.
    5145:	5aa1 e65a b125 5ab5 155a a58a 5ab5 3261     Z..Z.%Z..Z..Z.2a
    5155:	4603 5aa1 c161 4e04 5aa1 9d63 5ab0 065a     F.Z..aN.Z..cZ..Z
    5165:	a17c 635a a15d 635a a18a 5ab1 2263 5aa1     .|cZ.]cZ..Z."cZ.
    5175:	5a5a b329 612c 005a b512 5a4a 075a a522     ZZ.)a,.Z..ZJ.Z."
    5185:	5ab5 3261 4603 5aa1 2b61 4f04 5aa1 fd5a     Z.2aF.Z.+aO.Z..Z
    5195:	b121 635a a1d4 6156 0a5a 4009 5aa0 985a     .!cZ..aV.Z@.Z..Z
    51a5:	b029 5ab1 015a 4180 5aa1 665a b132 5ab3     .)Z..ZA.Z.fZ.2Z.
    51b5:	0961 2c00 5ab5 125a 4a05 5aa5 985a b531     .a,.Z..ZJ.Z..Z.1
    51c5:	6146 035a a137 614e 045a a10a 635a a1e0     aF.Z.7aN.Z..cZ..
    51d5:	5ab1 3163 5aa1 bc63 5aa1 9863 5ab1 115a     Z.1cZ..cZ..cZ..Z
    51e5:	b511 5a4a 075a a58a 5ab5 3261 8915 5a41     ..ZJ.Z..Z.2a..ZA
    51f5:	a25a a1e6 5ab1 255a b329 5ab5 125a 4a06     .Z..Z.%Z.)Z..ZJ.
    5205:	5aa5 815a b531 635a a1c1 614e 045a a19d     Z..Z.1cZ..aN.Z..
    5215:	635a a17c 635a a15d 635a a18a 5ab1 2263     cZ.|cZ.]cZ..Z."c
    5225:	5aa1 5a5a b309 5ab5 115a 4a08 5ac5 0b5a     Z.ZZ..Z..ZJ.Z..Z
    5235:	a5cb 5ab5 3161 4603 5aa1 2b61 4e04 5aa1     ..Z.1aF.Z.+aN.Z.
    5245:	fd5a b121 635a a1d4 635a b009 6363 5a40     .Z.!cZ..cZ..ccZ@
    5255:	0d5a a081 5ab0 2961 2d00 5ab1 015a 4180     .Z..Z.)a-.Z..ZA.
    5265:	5aa1 665a b132 5ab5 115a 4a06 5ac5 095a     Z.fZ.2Z..ZJ.Z..Z
    5275:	a522 5ab5 3261 4503 5aa1 3761 4f04 5aa1     ."Z.2aE.Z.7aO.Z.
    5285:	0a63 5aa1 e05a b131 635a a1bc 635a a198     .cZ..Z.1cZ..cZ..
    5295:	635a b111 5ab3 295a b512 5a4a 035a c507     cZ..Z.)Z..ZJ.Z..
    52a5:	612c 005a a566 5ab5 3261 ea11 5ab0 0963     a,.Z.fZ.2a..Z..c
    52b5:	5a40 0f5a a066 5ab0 265a 41a2 5aa1 e65a     Z@.Z.fZ.&ZA.Z..Z
    52c5:	b125 5ab3 095a b329 612d 005a b512 5a4a     .%Z..Z.)a-.Z..ZJ
    52d5:	075a c509 5aa5 cb5a b531 6122 045a a1c1     .Z..Z..Z.1a".Z..
    52e5:	635a a19d 635a a17c 635a b006 5aa1 5d63     cZ..cZ.|cZ..Z.]c
    52f5:	5aa1 8a5a b122 635a 400c 5aa0 8a5a b026     Z..Z."cZ@.Z..Z.&
    5305:	5aa1 5a5a b309 5ab4 225a b511 5aa5 8a5a     Z.ZZ..Z."Z..Z..Z
    5315:	b52e 614e 045a a12b 635a a1fd 5ab1 2163     ..aN.Z.+cZ..Z.!c
    5325:	5aa1 d461 560a 5ab1 015a b329 5ab4 025a     Z..aV.Z..Z.)Z..Z
    5335:	b50e 5a4a 045a a522 5ab5 3261 070b 5ab0     ..ZJ.Z."Z.2a..Z.
    5345:	0661 560a 5a40 0d5a b026 612c 005a b309     .aV.Z@.Z.&a,.Z..
    5355:	5ab5 125a 4a06 5aa5 985a b531 615c 155a     Z..ZJ.Z..Z.1a\.Z
    5365:	b006 5aa0 225a b026 612c 005a a1e6 5ab1     ..Z."Z.&a,.Z..Z.
    5375:	255a b511 5a4a 035a c507 5aa5 665a b52e     %Z..ZJ.Z..Z.fZ..
    5385:	6123 045a a1c1 635a a19d 635a a17c 635a     a#.Z..cZ..cZ.|cZ
    5395:	a15d 635a a18a 5ab1 2263 5aa1 5a5a b50e     .]cZ..Z."cZ.ZZ..
    53a5:	5a4a 075a c509 5aa5 8a5a b52e 614e 045a     ZJ.Z..Z..Z..aN.Z
    53b5:	a12b 635a a1fd 5ab1 2163 5aa1 d463 635a     .+cZ..Z.!cZ..ccZ
    53c5:	b006 635a b101 5ab3 295a b50e 5a4a 035a     ..cZ..Z.)Z..ZJ.Z
    53d5:	c507 5aa5 985a b535 6189 155a 4011 5ac0     ..Z..Z.5a..Z@.Z.
    53e5:	0c5a b026 5a41 805a a166 5ab1 325a b309     .Z.&ZA.Z.fZ.2Z..
    53f5:	5ab5 155a 4a06 5ac5 095a a581 5ab5 3561     Z..ZJ.Z..Z..Z.5a
    5405:	4e04 5aa1 3763 5aa1 0a63 5aa1 e05a b131     N.Z.7cZ..cZ..Z.1
    5415:	635a a1bc 6146 035a a198 635a b111 612c     cZ..aF.Z..cZ..a,
    5425:	005a 41a2 5aa1 e65a b125 5ab5 155a a58a     .ZA.Z..Z.%Z..Z..
    5435:	5ab5 3261 2304 5aa1 c163 5aa1 9d63 5ab0     Z.2a#.Z..cZ..cZ.
    5445:	065a a17c 635a a15d 635a a18a 5ab1 2263     .Z.|cZ.]cZ..Z."c
    5455:	5aa1 5a5a b329 612c 005a b512 5a4a 075a     Z.ZZ.)a,.Z..ZJ.Z
    5465:	a522 5ab5 3261 2204 5aa1 2b63 5aa1 fd5a     ."Z.2a".Z.+cZ..Z
    5475:	b121 635a a1d4 6156 0a5a 4007 5ac0 085a     .!cZ..aV.Z@.Z..Z
    5485:	a098 5ab0 295a b101 5a41 805a a166 5ab1     ..Z.)Z..ZA.Z.fZ.
    5495:	3261 2c00 5ab3 095a b512 5a4a 055a a598     2a,.Z..Z..ZJ.Z..
    54a5:	5ab5 3161 2304 5aa1 3763 5aa1 0a63 5aa1     Z.1a#.Z.7cZ..cZ.
    54b5:	e05a b131 635a a1bc 635a a198 635a b111     .Z.1cZ..cZ..cZ..
    54c5:	5ab5 115a 4a07 5aa5 8a5a b532 6188 155a     Z..ZJ.Z..Z.2a..Z
    54d5:	41a2 5aa1 e65a b125 5ab3 295a b512 5a4a     A.Z..Z.%Z.)Z..ZJ
    54e5:	065a a581 5ab5 3161 4f04 5aa1 c163 5aa1     .Z..Z.1aO.Z..cZ.
    54f5:	9d63 5aa1 7c63 5ab0 095a a15d 635a a18a     .cZ.|cZ..Z.]cZ..
    5505:	5ab1 2263 5a40 0a5a c00a 5aa0 815a b029     Z."cZ@.Z..Z..Z.)
    5515:	5aa1 5a5a b309 5ab5 115a 4a08 5ac5 0b5a     Z.ZZ..Z..ZJ.Z..Z
    5525:	a5cb 5ab5 3161 2204 5aa1 2b63 5aa1 fd5a     ..Z.1a".Z.+cZ..Z
    5535:	b121 635a a1d4 6156 0a5a b101 5a41 805a     .!cZ..aV.Z..ZA.Z
    5545:	a166 5ab1 3261 2c00 5ab5 115a 4a06 5ac5     .fZ.2a,.Z..ZJ.Z.
    5555:	095a a522 5ab5 3261 2304 5aa1 3763 5aa1     .Z."Z.2a#.Z.7cZ.
    5565:	0a63 5ab0 095a a1e0 5ab1 3163 5aa1 bc63     .cZ..Z..Z.1cZ..c
    5575:	5aa1 9863 5ab1 115a a166 5ab1 325a b329     Z..cZ..Z.fZ.2Z.)
    5585:	612c 005a b512 5a4a 035a c507 5aa5 665a     a,.Z..ZJ.Z..Z.fZ
    5595:	b532 6122 045a a137 635a a10a 635a a1e0     .2a".Z.7cZ..cZ..
    55a5:	5ab1 3163 5aa1 bc63 5aa1 9863 5ab1 115a     Z.1cZ..cZ..cZ..Z
    55b5:	41a2 5aa1 e65a b125 5ab3 095a b329 5ab4     A.Z..Z.%Z..Z.)Z.
    55c5:	2261 2c00 5ab5 125a 4a07 5ac5 095a a5cb     "a,.Z..ZJ.Z..Z..
    55d5:	5ab5 3161 2304 5aa1 c163 5aa1 9d63 5aa1     Z.1a#.Z..cZ..cZ.
    55e5:	7c63 5aa1 5d63 5aa1 8a5a b122 635a a15a     |cZ.]cZ..Z."cZ.Z
    55f5:	5ab3 095a b402 5ab5 115a a58a 5ab5 2e61     Z..Z..Z..Z..Z..a
    5605:	4e04 5aa1 2b63 5aa1 fd5a b121 635a a1d4     N.Z.+cZ..Z.!cZ..
    5615:	6156 0a5a b101 5ab4 225a b50e 5a4a 045a     aV.Z..Z."Z..ZJ.Z
    5625:	a522 5ab5 3261 5d15 5ab3 2961 2c00 5ab4     ."Z.2a].Z.)a,.Z.
    5635:	025a b512 5a4a 065a a598 5ab5 3161 3916     .Z..ZJ.Z..Z.1a9.
    5645:	5a40 0e5a a022 5ab0 265a a1e6 5ab1 2561     Z@.Z."Z.&Z..Z.%a
    5655:	2c00 5ac2 0e5a e203 5a42 005a 62f4 5a82     ,.Z..Z..ZB.Zb.Z.
    5665:	375a 222d 5ae5 025a 4500 5a65 f55a 8599     7Z"-Z..ZE.Ze.Z..
    5675:	5a25 2e5a 4507 5aa2 435a b232 5ab3 095a     Z%.ZE.Z.CZ.2Z..Z
    5685:	b511 5a4a 035a c507 5aa5 665a b52e 612c     ..ZJ.Z..Z.fZ..a,
    5695:	005a c60e 5af0 035a 5047 5a70 f35a 90b7     .Z..Z..ZPGZp.Z..
    56a5:	5a30 425a f300 5a53 045a 73f2 5a93 f25a     Z0BZ..ZS.Zs.Z..Z
    56b5:	3301 5aa6 815a b635 5ac7 0e5a f103 5a51     3.Z..Z.5Z..Z..ZQ
    56c5:	905a 71f3 5a91 f75a 3182 5af4 0061 2c00     .Zq.Z..Z1.Z..a,.
    56d5:	5a54 045a 74f2 5a94 f35a 3401 5aa7 815a     ZT.Zt.Z..Z4.Z..Z
    56e5:	b735 5ac8 0c5a f202 5a52 0f5a 72f2 5a92     .5Z..Z..ZR.Zr.Z.
    56f5:	035a 3264 5af5 035a 5500 5a75 f15a 9566     .Z2dZ..ZU.Zu.Z.f
    5705:	5a35 295a a8b1 5ab8 3162 7e5a a1c1 5ab2     Z5)Z..Z.1b~Z..Z.
    5715:	125a a699 5aa7 8e61 2c00 5aa8 ab61 4603     .Z..Z..a,.Z..aF.
    5725:	5aa1 9d5a a79b 5aa8 a563 5aa1 7c5a a89f     Z..Z..Z..cZ.|Z..
    5735:	635a a15d 5aa8 9863 5aa1 8a5a b122 614e     cZ.]Z..cZ..Z."aN
    5745:	045a a15a 5ab5 0e5a 4a07 5ac5 095a a58a     .Z.ZZ..ZJ.Z..Z..
    5755:	5ab5 2e63 5aa1 2b63 5aa1 fd5a b121 635a     Z..cZ.+cZ..Z.!cZ
    5765:	a1d4 635a b006 61c1 075a b101 5a4b 055a     ..cZ..a..Z..ZK.Z
    5775:	b329 5a4c 095a a466 5ab4 265a b50e 5a4a     .)ZL.Z.fZ.&Z..ZJ
    5785:	035a c507 5aa5 985a b535 613a 115a b406     .Z..Z..Z.5a:.Z..
    5795:	614e 045a 400f 5ab0 265a 4180 5aa1 665a     aN.Z@.Z.&ZA.Z.fZ
    57a5:	b132 5ab3 095a 4c0e 5aa4 435a b422 5ab5     .2Z..ZL.Z.CZ."Z.
    57b5:	155a 4a06 5ac5 095a a581 5ab5 3563 5aa1     .ZJ.Z..Z..Z.5cZ.
    57c5:	3763 5aa1 0a63 5aa1 e05a b131 635a a1bc     7cZ..cZ..Z.1cZ..
    57d5:	6146 035a a198 614e 045a b111 612d 005a     aF.Z..aN.Z..a-.Z
    57e5:	41a2 5aa1 e65a b125 5a45 0d5a a28a 5ab2     A.Z..Z.%ZE.Z..Z.
    57f5:	325a b402 5ab5 155a a58a 5ab5 3261 4503     2Z..Z..Z..Z.2aE.
    5805:	5aa1 c163 5ab0 065a a19d 635a a17c 635a     Z..cZ..Z..cZ.|cZ
    5815:	a15d 635a a18a 5ab1 2261 4f04 5aa1 5a5a     .]cZ..Z."aO.Z.ZZ
    5825:	b329 612c 005a b512 5a4a 075a a522 5ab5     .)a,.Z..ZJ.Z."Z.
    5835:	3261 4603 5aa1 2b63 5aa1 fd5a b121 635a     2aF.Z.+cZ..Z.!cZ
    5845:	a1d4 6132 0b5a 400a 5aa0 985a b029 5ab1     ..a2.Z@.Z..Z.)Z.
    5855:	015a 4180 5aa1 665a b132 612d 005a b309     .ZA.Z.fZ.2a-.Z..
    5865:	5a4c 075a a466 5ab4 265a b512 5a4a 055a     ZL.Z.fZ.&Z..ZJ.Z
    5875:	a598 5ab5 3161 4503 5aa1 3763 5aa1 0a63     ..Z.1aE.Z.7cZ..c
    5885:	5aa1 e05a b131 635a a1bc 635a a198 614f     Z..Z.1cZ..cZ..aO
    5895:	045a b111 5ab5 115a 4a07 5aa5 8a5a b532     .Z..Z..ZJ.Z..Z.2
    58a5:	6188 155a 41a2 5aa1 e65a b125 5ab2 125a     a..ZA.Z..Z.%Z..Z
    58b5:	4507 5aa2 435a b232 5ab3 295a b406 5ab5     E.Z.CZ.2Z.)Z..Z.
    58c5:	125a 4a06 5aa5 815a b531 635a a1c1 5ab2     .ZJ.Z..Z.1cZ..Z.
    58d5:	1263 5aa1 9d63 5aa1 7c63 5aa1 5d63 5aa1     .cZ..cZ.|cZ.]cZ.
    58e5:	8a5a b122 614f 045a a15a 5ab3 095a b511     .Z."aO.Z.ZZ..Z..
    58f5:	5a4a 085a c50b 5aa5 cb5a b531 6146 035a     ZJ.Z..Z..Z.1aF.Z
    5905:	a12b 635a a1fd 5ab1 2163 5ab0 0961 2c00     .+cZ..Z.!cZ..a,.
    5915:	5aa1 d461 060b 5a40 0e5a a081 5ab0 2961     Z..a..Z@.Z..Z.)a
    5925:	2c00 5ab1 015a 4180 5aa1 665a b132 5a4c     ,.Z..ZA.Z.fZ.2ZL
    5935:	065a b426 5ab5 115a 4a06 5ac5 095a a522     .Z.&Z..ZJ.Z..Z."
    5945:	5ab5 3261 4603 5aa1 3763 5aa1 0a63 5aa1     Z.2aF.Z.7cZ..cZ.
    5955:	e05a b131 635a a1bc 5ab4 0663 5aa1 9861     .Z.1cZ..Z..cZ..a
    5965:	4f04 5ab1 115a b329 5a4c 0a5a a443 5ab4     O.Z..Z.)ZL.Z.CZ.
    5975:	2261 2c00 5ab5 125a 4a03 5ac5 075a a566     "a,.Z..ZJ.Z..Z.f
    5985:	5ab5 3261 9c0d 5ab0 095a b615 5ab7 155a     Z.2a..Z..Z..Z..Z
    5995:	b811 61c0 075a 4012 5ac0 0c5a a066 5ab0     ..a..Z@.Z..Z.fZ.
    59a5:	265a 41a2 5aa1 e65a b125 5a45 045a a28a     &ZA.Z..Z.%ZE.Z..
    59b5:	5ab2 325a b309 612c 005a b329 5ab5 125a     Z.2Z..a,.Z.)Z..Z
    59c5:	4a07 5ac5 095a a5cb 5ab5 315a 504b 5aa6     J.Z..Z..Z.1ZPKZ.
    59d5:	575a b635 5a51 945a a757 5ab7 355a 5211     WZ.5ZQ.Z.WZ.5ZR.
    59e5:	5a55 025a a881 5ab8 3161 4603 5aa1 c15a     ZU.Z..Z.1aF.Z..Z
    59f5:	a66d 5aa7 635a a87c 635a a19d 5ab4 025a     .mZ.cZ.|cZ..Z..Z
    5a05:	a76f 5aa8 7763 5aa1 7c5a a872 635a b006     .oZ.wcZ.|Z.rcZ..
    5a15:	5aa1 5d5a a86c 635a a18a 5ab1 2261 4f04     Z.]Z.lcZ..Z."aO.
    5a25:	5a40 0e5a c00a 5aa0 8a5a b026 5aa1 5a5a     Z@.Z..Z..Z.&Z.ZZ
    5a35:	b309 5a4c 065a b422 5ab5 115a a58a 5ab5     ..ZL.Z."Z..Z..Z.
    5a45:	2e63 5aa1 2b63 5aa1 fd5a b121 635a a1d4     .cZ.+cZ..Z.!cZ..
    5a55:	6132 0b5a b101 5ab3 295a b402 5a4c 045a     a2.Z..Z.)Z..ZL.Z
    5a65:	a466 5ab4 265a b50e 5a4a 045a a522 5ab5     .fZ.&Z..ZJ.Z."Z.
    5a75:	3261 560a 5ab0 0661 330b 5ab0 265a b309     2aV.Z..a3.Z.&Z..
    5a85:	5ab5 125a 4a06 5aa5 985a b531 612a 0a5a     Z..ZJ.Z..Z.1a*.Z
    5a95:	b615 5ab7 1561 2c00 5ab8 1161 4603 5ab0     ..Z..a,.Z..aF.Z.
    5aa5:	065a b406 61c0 075a 4013 5ac0 0c5a a022     .Z..a..Z@.Z..Z."
    5ab5:	5ab0 265a a1e6 5ab1 2561 2c00 5ab2 125a     Z.&Z..Z.%a,.Z..Z
    5ac5:	4507 5aa2 435a b232 5ab5 115a 4a03 5ac5     E.Z.CZ.2Z..ZJ.Z.
    5ad5:	075a a566 5ab5 2e5a 5049 5aa6 815a b635     .Z.fZ..ZPIZ..Z.5
    5ae5:	5a51 925a a781 5ab7 355a 5210 5a55 015a     ZQ.Z..Z.5ZR.ZU.Z
    5af5:	a8b1 5ab8 3161 4603 5aa1 c15a b212 5aa6     ..Z.1aF.Z..Z..Z.
    5b05:	995a a78e 612c 005a a8ab 6146 035a a19d     .Z..a,.Z..aF.Z..
    5b15:	5aa7 9b5a a8a5 635a a17c 5aa8 9f63 5aa1     Z..Z..cZ.|Z..cZ.
    5b25:	5d5a a898 635a a18a 5ab1 2261 4f04 5aa1     ]Z..cZ..Z."aO.Z.
    5b35:	5a5a b50e 5a4a 075a c509 5aa5 8a5a b52e     ZZ..ZJ.Z..Z..Z..
    5b45:	635a a12b 635a a1fd 5ab1 2163 5aa1 d461     cZ.+cZ..Z.!cZ..a
    5b55:	320b 5ab0 065a b101 5ab3 295a 4c07 5ab4     2.Z..Z..Z.)ZL.Z.
    5b65:	265a b50e 5a4a 035a c507 5aa5 9861 2c00     &Z..ZJ.Z..Z..a,.
    5b75:	5ab5 3561 0e11 5ab4 0661 4f04 5a40 115a     Z.5a..Z..aO.Z@.Z
    5b85:	b026 5a41 805a a166 5ab1 325a b309 5a4c     .&ZA.Z.fZ.2Z..ZL
    5b95:	0d5a a443 5ab4 225a b515 5a4a 065a c509     .Z.CZ."Z..ZJ.Z..
    5ba5:	5aa5 815a b535 635a a137 635a a10a 635a     Z..Z.5cZ.7cZ..cZ
    5bb5:	a1e0 5ab1 3163 5aa1 bc63 5aa1 9861 2204     ..Z.1cZ..cZ..a".
    5bc5:	5ab1 1161 2c00 5a41 a25a a1e6 5ab1 255a     Z..a,.ZA.Z..Z.%Z
    5bd5:	4506 5aa2 8a5a b232 5ab4 025a b515 5aa5     E.Z..Z.2Z..Z..Z.
    5be5:	8a5a b532 6146 035a a1c1 635a a19d 635a     .Z.2aF.Z..cZ..cZ
    5bf5:	a17c 635a b006 5aa1 5d63 5aa1 8a5a b122     .|cZ..Z.]cZ..Z."
    5c05:	614f 045a a15a 5ab3 2961 2c00 5ab5 125a     aO.Z.ZZ.)a,.Z..Z
    5c15:	4a07 5aa5 225a b532 6146 035a a12b 635a     J.Z."Z.2aF.Z.+cZ
    5c25:	a1fd 5ab1 2163 5aa1 d461 320b 5a40 0c5a     ..Z.!cZ..a2.Z@.Z
    5c35:	c00a 5aa0 985a b029 5ab1 015a 4180 5aa1     ..Z..Z.)Z..ZA.Z.
    5c45:	665a b132 612c 005a b309 5a4c 045a a466     fZ.2a,.Z..ZL.Z.f
    5c55:	5ab4 265a b512 5a4a 055a a598 5ab5 3161     Z.&Z..ZJ.Z..Z.1a
    5c65:	4603 5aa1 3763 5aa1 0a63 5aa1 e05a b131     F.Z.7cZ..cZ..Z.1
    5c75:	635a a1bc 614f 045a a198 635a b111 5ab5     cZ..aO.Z..cZ..Z.
    5c85:	115a 4a07 5aa5 8a5a b532 6156 0a5a b406     .ZJ.Z..Z.2aV.Z..
    5c95:	6132 0b5a 41a2 5aa1 e65a b125 5ab2 125a     a2.ZA.Z..Z.%Z..Z
    5ca5:	a243 5ab2 325a b329 5ab5 125a 4a06 5aa5     .CZ.2Z.)Z..ZJ.Z.
    5cb5:	815a b531 635a a1c1 5ab2 1263 5aa1 9d63     .Z.1cZ..Z..cZ..c
    5cc5:	5aa1 7c63 5aa1 5d61 4f04 5aa1 8a5a b122     Z.|cZ.]aO.Z..Z."
    5cd5:	635a a15a 5ab3 095a b511 5a4a 085a c50b     cZ.ZZ..Z..ZJ.Z..
    5ce5:	5aa5 cb5a b531 635a a12b 6146 035a a1fd     Z..Z.1cZ.+aF.Z..
    5cf5:	5ab1 2163 5aa1 d463 5ab0 0961 c007 5aa0     Z.!cZ..cZ..a..Z.
    5d05:	815a b029 612c 005a b101 5a41 805a a166     .Z.)a,.Z..ZA.Z.f
    5d15:	5ab1 325a 4c06 5ab4 265a b511 5a4a 065a     Z.2ZL.Z.&Z..ZJ.Z
    5d25:	c509 5aa5 225a b532 6146 035a a137 635a     ..Z."Z.2aF.Z.7cZ
    5d35:	a10a 635a a1e0 5ab1 3163 5aa1 bc61 4f04     ..cZ..Z.1cZ..aO.
    5d45:	5aa1 985a b406 635a b111 5ab3 295a 4c0c     Z..Z..cZ..Z.)ZL.
    5d55:	5aa4 435a b422 612c 005a b512 5a4a 035a     Z.CZ."a,.Z..ZJ.Z
    5d65:	c507 5aa5 665a b532 61ea 115a b615 5ab7     ..Z.fZ.2a..Z..Z.
    5d75:	155a b811 635a b009 5a40 105a c00c 5aa0     .Z..cZ..Z@.Z..Z.
    5d85:	665a b026 5a41 a25a a1e6 5ab1 255a 4504     fZ.&ZA.Z..Z.%ZE.
    5d95:	5aa2 8a5a b232 612c 005a b309 5ab3 295a     Z..Z.2a,.Z..Z.)Z
    5da5:	b402 5ab5 125a 4a07 5ac5 095a a5cb 5ab5     ..Z..ZJ.Z..Z..Z.
    5db5:	315a a6cb 5ab6 355a a7cb 5ab7 3561 2c00     1Z..Z.5Z..Z.5a,.
    5dc5:	5aa8 035a b832 611a 035a a1c1 5aa6 e75a     Z..Z.2a..Z..Z..Z
    5dd5:	a7db 5aa8 fc5a b831 635a a19d 5aa7 ea5a     ..Z..Z.1cZ..Z..Z
    5de5:	a8f5 635a a17c 5aa8 ee63 5aa1 5d5a a8e6     ..cZ.|Z..cZ.]Z..
    5df5:	614f 045a b006 5aa1 8a5a b122 635a 400d     aO.Z..Z..Z."cZ@.
    5e05:	5ac0 0a5a a08a 5ab0 265a a15a 5ab3 095a     Z..Z..Z.&Z.ZZ..Z
    5e15:	4c06 5ab4 225a b511 5aa5 8a61 2c00 5ab5     L.Z."Z..Z..a,.Z.
    5e25:	2e61 4603 5aa1 2b63 5aa1 fd5a b121 635a     .aF.Z.+cZ..Z.!cZ
    5e35:	a1d4 6132 0b5a b101 5ab3 295a b402 5a4c     ..a2.Z..Z.)Z..ZL
    5e45:	045a a466 5ab4 265a b50e 5a4a 045a a522     .Z.fZ.&Z..ZJ.Z."
    5e55:	5ab5 3261 560a 5ab0 0661 330b 5ab0 265a     Z.2aV.Z..a3.Z.&Z
    5e65:	b309 5ab5 125a 4a06 5aa5 985a b531 6145     ..Z..ZJ.Z..Z.1aE
    5e75:	035a b406 6156 0a5a b006 5ab6 1561 2d00     .Z..aV.Z..Z..a-.
    5e85:	5ab7 155a b811 6194 075a 400e 5aa0 225a     Z..Z..a..Z@.Z."Z
    5e95:	b026 5aa1 e65a b125 612c 005a b212 5a45     .&Z..Z.%a,.Z..ZE
    5ea5:	065a a243 5ab2 325a b511 5a4a 035a c507     .Z.CZ.2Z..ZJ.Z..
    5eb5:	5aa5 665a b52e 5a50 4d5a a681 5ab6 355a     Z.fZ..ZPMZ..Z.5Z
    5ec5:	5196 5aa7 815a b735 5a52 125a 5503 5aa8     Q.Z..Z.5ZR.ZU.Z.
    5ed5:	b161 2c00 5ab8 3161 1a03 5aa1 c15a b212     .a,.Z.1a..Z..Z..
    5ee5:	5aa6 995a a78e 612c 005a a8ab 6146 035a     Z..Z..a,.Z..aF.Z
    5ef5:	a19d 5aa7 9b5a a8a5 635a a17c 5aa8 9f63     ..Z..Z..cZ.|Z..c
    5f05:	5aa1 5d5a a898 614e 045a a18a 5ab1 2263     Z.]Z..aN.Z..Z."c
    5f15:	5aa1 5a5a b50e 5a4a 075a c509 5aa5 8a5a     Z.ZZ..ZJ.Z..Z..Z
    5f25:	b52e 635a a12b 635a a1fd 5ab1 2163 5aa1     ..cZ.+cZ..Z.!cZ.
    5f35:	d463 5ab0 0661 c107 5ab1 015a 4b06 5ab3     .cZ..a..Z..ZK.Z.
    5f45:	295a 4c06 5ab4 265a b50e 5a4a 035a c507     )ZL.Z.&Z..ZJ.Z..
    5f55:	5aa5 985a b535 61c8 0d5a b406 61c0 075a     Z..Z.5a..Z..a..Z
    5f65:	400d 5ab0 265a 4180 5aa1 665a b132 5ab3     @.Z.&ZA.Z.fZ.2Z.
    5f75:	095a 4c0c 5aa4 435a b422 5ab5 155a 4a06     .ZL.Z.CZ."Z..ZJ.
    5f85:	5ac5 095a a581 5ab5 3563 5aa1 3763 5aa1     Z..Z..Z.5cZ.7cZ.
    5f95:	0a63 5aa1 e05a b131 635a a1bc 614f 045a     .cZ..Z.1cZ..aO.Z
    5fa5:	a198 635a b111 5a41 a25a a1e6 5ab1 255a     ..cZ..ZA.Z..Z.%Z
    5fb5:	a28a 5ab2 325a b402 5ab5 155a a58a 5ab5     ..Z.2Z..Z..Z..Z.
    5fc5:	3261 4603 5aa1 c163 5aa1 9d63 5ab0 065a     2aF.Z..cZ..cZ..Z
    5fd5:	a17c 635a a15d 614e 045a a18a 5ab1 2263     .|cZ.]aN.Z..Z."c
    5fe5:	5aa1 5a5a b329 612c 005a b512 5a4a 075a     Z.ZZ.)a,.Z..ZJ.Z
    5ff5:	a522 5ab5 3261 4603 5aa1 2b63 5aa1 fd5a     ."Z.2aF.Z.+cZ..Z
    6005:	b121 635a a1d4 6133 0b5a 4009 5aa0 985a     .!cZ..a3.Z@.Z..Z
    6015:	b029 5ab1 015a 4180 5aa1 665a b132 612c     .)Z..ZA.Z.fZ.2a,
    6025:	005a b309 5a4c 025a a466 5ab4 265a b512     .Z..ZL.Z.fZ.&Z..
    6035:	5a4a 055a a598 5ab5 3161 4603 5aa1 3763     ZJ.Z..Z.1aF.Z.7c
    6045:	5aa1 0a63 5aa1 e05a b131 635a a1bc 614e     Z..cZ..Z.1cZ..aN
    6055:	045a a198 635a b111 5ab5 115a 4a07 5aa5     .Z..cZ..Z..ZJ.Z.
    6065:	8a5a b532 6363 5ab4 0661 a50e 5a41 a25a     .Z.2ccZ..a..ZA.Z
    6075:	a1e6 5ab1 255a b212 5a45 075a a243 5ab2     ..Z.%Z..ZE.Z.CZ.
    6085:	325a b329 5ab5 125a 4a06 5aa5 815a b531     2Z.)Z..ZJ.Z..Z.1
    6095:	635a a1c1 5ab2 1263 5aa1 9d63 5aa1 7c63     cZ..Z..cZ..cZ.|c
    60a5:	5aa1 5d61 4e04 5aa1 8a5a b122 635a a15a     Z.]aN.Z..Z."cZ.Z
    60b5:	5ab3 095a b511 5a4a 085a c50b 5aa5 cb5a     Z..Z..ZJ.Z..Z..Z
    60c5:	b531 635a a12b 6146 035a a1fd 612c 005a     .1cZ.+aF.Z..a,.Z
    60d5:	b121 6146 035a a1d4 635a b009 61c1 075a     .!aF.Z..cZ..a..Z
    60e5:	400d 5aa0 815a b029 612c 005a b101 5a41     @.Z..Z.)a,.Z..ZA
    60f5:	805a a166 5ab1 325a 4c06 5ab4 265a b511     .Z.fZ.2ZL.Z.&Z..
    6105:	5a4a 065a c509 5aa5 225a b532 6146 035a     ZJ.Z..Z."Z.2aF.Z
    6115:	a137 635a a10a 635a a1e0 5ab1 3161 4e04     .7cZ..cZ..Z.1aN.
    6125:	5aa1 bc63 5aa1 985a b406 635a b111 5ab3     Z..cZ..Z..cZ..Z.
    6135:	295a 4c0a 5aa4 435a b422 612c 005a b512     )ZL.Z.CZ."a,.Z..
    6145:	5a4a 035a c507 5aa5 665a b532 61eb 115a     ZJ.Z..Z.fZ.2a..Z
    6155:	b009 635a 400f 5aa0 665a b026 5a41 a25a     ..cZ@.Z.fZ.&ZA.Z
    6165:	a1e6 5ab1 255a 4506 5aa2 8a5a b232 5ab3     ..Z.%ZE.Z..Z.2Z.
    6175:	0961 2c00 5ab3 295a b402 5ab5 125a 4a07     .a,.Z.)Z..Z..ZJ.
    6185:	5ac5 095a a5cb 5ab5 315a a600 5ab6 005a     Z..Z..Z.1Z..Z..Z
    6195:	a603 5ab6 365a a700 5ab7 005a a703 5ab7     ..Z.6Z..Z..Z..Z.
    61a5:	3661 2c00 5aa8 005a b800 5aa8 435a b832     6a,.Z..Z..Z.CZ.2
    61b5:	611a 035a a1c1 635a a19d 5aa6 245a a715     a..Z..cZ..Z.$Z..
    61c5:	5aa8 3b63 5aa1 7c5a a727 5aa8 3361 4e04     Z.;cZ.|Z.'Z.3aN.
    61d5:	5ab0 065a a15d 5aa8 2b63 5aa1 8a5a b122     Z..Z.]Z.+cZ..Z."
    61e5:	5aa8 2263 5a40 0c5a a08a 5ab0 265a a15a     Z."cZ@.Z..Z.&Z.Z
    61f5:	5ab3 095a 4c06 5ab4 225a b511 5aa5 8a5a     Z..ZL.Z."Z..Z..Z
    6205:	b52e 635a a12b 635a a1fd 5ab1 2163 5aa1     ..cZ.+cZ..Z.!cZ.
    6215:	d461 330b 5ab1 015a b329 5ab4 025a 4c02     .a3.Z..Z.)Z..ZL.
    6225:	5aa4 665a b426 5ab5 0e5a 4a04 5aa5 225a     Z.fZ.&Z..ZJ.Z."Z
    6235:	b532 6156 0a5a b006 6106 0b5a 400d 612c     .2aV.Z..a..Z@.a,
    6245:	005a b026 5ab3 095a b512 5a4a 065a a598     .Z.&Z..Z..ZJ.Z..
    6255:	5ab5 3161 2a0a 5ab4 0661 330b 5ab0 065a     Z.1a*.Z..a3.Z..Z
    6265:	a022 5ab0 2661 2c00 5aa1 e65a b125 5ab2     ."Z.&a,.Z..Z.%Z.
    6275:	125a 4504 5aa2 435a b232 5ab5 115a 4a03     .ZE.Z.CZ.2Z..ZJ.
    6285:	5ac5 075a a566 5ab5 2e5a b616 5aa6 435a     Z..Z.fZ..Z..Z.CZ
    6295:	b636 5ab7 1661 2c00 5aa7 435a b736 5ab8     .6Z..a,.Z.CZ.6Z.
    62a5:	125a a88a 5ab8 3261 1a03 5aa1 c15a b212     .Z..Z.2a..Z..Z..
    62b5:	5aa6 685a a757 612c 005a a881 6146 035a     Z.hZ.Wa,.Z..aF.Z
    62c5:	a19d 5aa7 6b5a a878 635a a17c 5aa8 6f61     ..Z.kZ.xcZ.|Z.oa
    62d5:	4e04 5aa1 5d5a a866 635a a18a 5ab1 2263     N.Z.]Z.fcZ..Z."c
    62e5:	5aa1 5a5a b50e 5a4a 075a c509 5aa5 8a5a     Z.ZZ..ZJ.Z..Z..Z
    62f5:	b52e 635a a12b 635a a1fd 5ab1 2163 5aa1     ..cZ.+cZ..Z.!cZ.
    6305:	d461 c107 5ab0 0663 5ab1 015a b329 5a4c     .a..Z..cZ..Z.)ZL
    6315:	075a b426 5ab5 0e5a 4a03 5ac5 075a a598     .Z.&Z..ZJ.Z..Z..
    6325:	5ab5 3561 1612 5ab4 0663 5a40 115a c00c     Z.5a..Z..cZ@.Z..
    6335:	5ab0 265a 4180 5aa1 665a b132 5ab3 095a     Z.&ZA.Z.fZ.2Z..Z
    6345:	4c0a 5aa4 435a b422 5ab5 155a 4a06 5ac5     L.Z.CZ."Z..ZJ.Z.
    6355:	095a a581 5ab5 3563 5aa1 3763 5aa1 0a63     .Z..Z.5cZ.7cZ..c
    6365:	5aa1 e05a b131 614f 045a a1bc 635a a198     Z..Z.1aO.Z..cZ..
    6375:	635a b111 5a41 a25a a1e6 5ab1 255a 4507     cZ..ZA.Z..Z.%ZE.
    6385:	5aa2 8a5a b232 5ab4 025a b515 5aa5 8a5a     Z..Z.2Z..Z..Z..Z
    6395:	b532 6146 035a a1c1 635a a19d 635a b006     .2aF.Z..cZ..cZ..
    63a5:	5aa1 7c61 4e04 5aa1 5d63 5aa1 8a5a b122     Z.|aN.Z.]cZ..Z."
    63b5:	635a a15a 5ab3 2961 2c00 5ab5 125a 4a07     cZ.ZZ.)a,.Z..ZJ.
    63c5:	5aa5 225a b532 6146 035a a12b 635a a1fd     Z."Z.2aF.Z.+cZ..
    63d5:	5ab1 2163 5aa1 d461 330b 5a40 075a c008     Z.!cZ..a3.Z@.Z..
    63e5:	5aa0 985a b029 5ab1 015a 4180 5aa1 665a     Z..Z.)Z..ZA.Z.fZ
    63f5:	b132 612c 005a b309 5a4c 045a a466 5ab4     .2a,.Z..ZL.Z.fZ.
    6405:	265a b512 5a4a 055a a598 5ab5 315a b616     &Z..ZJ.Z..Z.1Z..
    6415:	5aa6 035a b636 5ab7 165a a703 5ab7 3661     Z..Z.6Z..Z..Z.6a
    6425:	2c00 5ab8 125a a843 5ab8 3261 1a03 5aa1     ,.Z..Z.CZ.2a..Z.
    6435:	375a a624 5aa7 155a a83b 635a a10a 5aa7     7Z.$Z..Z.;cZ..Z.
    6445:	275a a833 635a a1e0 5ab1 315a a82b 614e     'Z.3cZ..Z.1Z.+aN
    6455:	045a a1bc 5aa8 2263 5aa1 9863 5ab1 115a     .Z..Z."cZ..cZ..Z
    6465:	b511 5a4a 075a a58a 5ab5 3261 a50e 5ab4     ..ZJ.Z..Z.2a..Z.
    6475:	0663 635a 41a2 5aa1 e65a b125 5ab2 125a     .ccZA.Z..Z.%Z..Z
    6485:	4506 5aa2 435a b232 5ab3 295a b512 5a4a     E.Z.CZ.2Z.)Z..ZJ
    6495:	065a a581 5ab5 3163 5aa1 c15a b212 635a     .Z..Z.1cZ..Z..cZ
    64a5:	a19d 635a a17c 614e 045a b009 5aa1 5d63     ..cZ.|aN.Z..Z.]c
    64b5:	5aa1 8a5a b122 635a 400a 5ac0 0a5a a081     Z..Z."cZ@.Z..Z..
    64c5:	5ab0 295a a15a 5ab3 095a 4c02 5ab4 265a     Z.)Z.ZZ..ZL.Z.&Z
    64d5:	b511 5a4a 085a c50b 5aa5 cb5a b531 635a     ..ZJ.Z..Z..Z.1cZ
    64e5:	a12b 6146 035a a1fd 612c 005a b121 6146     .+aF.Z..a,.Z.!aF
    64f5:	035a a1d4 61c0 075a b406 635a b101 5a41     .Z..a..Z..cZ..ZA
    6505:	8061 2d00 5aa1 665a b132 5ab5 115a 4a06     .a-.Z.fZ.2Z..ZJ.
    6515:	5ac5 095a a522 5ab5 3261 4503 5aa1 3763     Z..Z."Z.2aE.Z.7c
    6525:	5aa1 0a63 5ab0 095a a1e0 5ab1 3161 4f04     Z..cZ..Z..Z.1aO.
    6535:	5aa1 bc63 5aa1 9863 5ab1 115a a166 5ab1     Z..cZ..cZ..Z.fZ.
    6545:	325a b329 612c 005a 4c07 5ab4 265a b512     2Z.)a,.ZL.Z.&Z..
    6555:	5a4a 035a c507 5aa5 665a b532 6146 035a     ZJ.Z..Z.fZ.2aF.Z
    6565:	a137 635a a10a 635a a1e0 5ab1 3161 4e04     .7cZ..cZ..Z.1aN.
    6575:	5aa1 bc63 5aa1 985a b406 635a b111 5a41     Z..cZ..Z..cZ..ZA
    6585:	a25a a1e6 5ab1 255a a28a 5ab2 325a b309     .Z..Z.%Z..Z.2Z..
    6595:	5ab3 2961 2d00 5a4c 065a a443 5ab4 225a     Z.)a-.ZL.Z.CZ."Z
    65a5:	b512 5a4a 075a c509 5aa5 cb5a b531 6145     ..ZJ.Z..Z..Z.1aE
    65b5:	035a a1c1 635a a19d 635a a17c 614f 045a     .Z..cZ..cZ.|aO.Z
    65c5:	a15d 635a a18a 5ab1 2263 5aa1 5a5a b309     .]cZ..Z."cZ.ZZ..
    65d5:	5ab4 025a b511 5aa5 8a5a b52e 635a a12b     Z..Z..Z..Z..cZ.+
    65e5:	635a a1fd 5ab1 2163 5aa1 d461 320b 5ab1     cZ..Z.!cZ..a2.Z.
    65f5:	015a 4c04 5aa4 665a b426 5ab5 0e5a 4a04     .ZL.Z.fZ.&Z..ZJ.
    6605:	5aa5 225a b532 6189 155a b329 5ab5 125a     Z."Z.2a..Z.)Z..Z
    6615:	4a06 5aa5 985a b531 6178 0e5a b406 5ab6     J.Z..Z.1ax.Z..Z.
    6625:	1661 2c00 5ab7 165a b812 61b8 065a 400e     .a,.Z..Z..a..Z@.
    6635:	5aa0 225a b026 5aa1 e661 2c00 5ab1 255a     Z."Z.&Z..a,.Z.%Z
    6645:	b212 5a45 025a a243 5ab2 325a b309 5ab5     ..ZE.Z.CZ.2Z..Z.
    6655:	115a 4a03 5ac5 075a a566 5ab5 2e5a a681     .ZJ.Z..Z.fZ..Z..
    6665:	5ab6 355a a781 5ab7 3561 2d00 5aa8 b15a     Z.5Z..Z.5a-.Z..Z
    6675:	b831 6119 035a a1c1 5ab2 125a a699 612c     .1a..Z..Z..Z..a,
    6685:	005a a78e 5aa8 ab61 4603 5aa1 9d5a a79b     .Z..Z..aF.Z..Z..
    6695:	5aa8 a561 4f04 5aa1 7c5a a89f 635a a15d     Z..aO.Z.|Z..cZ.]
    66a5:	5aa8 9863 5aa1 8a5a b122 635a a15a 5ab5     Z..cZ..Z."cZ.ZZ.
    66b5:	0e5a 4a07 5ac5 095a a58a 5ab5 2e63 5aa1     .ZJ.Z..Z..Z..cZ.
    66c5:	2b63 5aa1 fd5a b121 614e 045a a1d4 635a     +cZ..Z.!aN.Z..cZ
    66d5:	b006 6363 5ab1 015a 4b05 5ab3 295a b426     ..ccZ..ZK.Z.)Z.&
    66e5:	5ab5 0e5a 4a03 5ac5 075a a598 5ab5 3561     Z..ZJ.Z..Z..Z.5a
    66f5:	1712 5ab4 0663 5a40 0f5a b026 5a41 805a     ..Z..cZ@.Z.&ZA.Z
    6705:	a166 5ab1 325a b309 5a4c 0e5a a443 5ab4     .fZ.2Z..ZL.Z.CZ.
    6715:	225a b515 5a4a 065a c509 5aa5 815a b535     "Z..ZJ.Z..Z..Z.5
    6725:	635a a137 635a a10a 614e 045a a1e0 5ab1     cZ.7cZ..aN.Z..Z.
    6735:	3163 5aa1 bc63 5aa1 9863 5ab1 115a 41a2     1cZ..cZ..cZ..ZA.
    6745:	5aa1 e65a b125 5a45 065a a28a 5ab2 325a     Z..Z.%ZE.Z..Z.2Z
    6755:	b515 5aa5 8a5a b532 6146 035a a1c1 612c     ..Z..Z.2aF.Z..a,
    6765:	005a b402 6146 035a b006 612c 005a a19d     .Z..aF.Z..a,.Z..
    6775:	6123 045a a17c 635a a15d 635a a18a 5ab1     a#.Z.|cZ.]cZ..Z.
    6785:	2263 5aa1 5a5a b329 612c 005a b512 5a4a     "cZ.ZZ.)a,.Z..ZJ
    6795:	075a a522 5ab5 3261 4603 5aa1 2b63 5aa1     .Z."Z.2aF.Z.+cZ.
    67a5:	fd5a b121 614e 045a a1d4 6156 0a5a 400a     .Z.!aN.Z..aV.Z@.
    67b5:	5aa0 985a b029 5ab1 015a 4180 5aa1 665a     Z..Z.)Z..ZA.Z.fZ
    67c5:	b132 612c 005a b309 5a4c 045a a466 5ab4     .2a,.Z..ZL.Z.fZ.
    67d5:	265a b512 5a4a 055a a598 5ab5 3161 4603     &Z..ZJ.Z..Z.1aF.
    67e5:	5aa1 3763 5aa1 0a61 4f04 5aa1 e05a b131     Z.7cZ..aO.Z..Z.1
    67f5:	635a a1bc 635a a198 635a b111 5ab5 115a     cZ..cZ..cZ..Z..Z
    6805:	4a07 5aa5 8a5a b532 6132 0b5a b406 6156     J.Z..Z.2a2.Z..aV
    6815:	0a5a 41a2 5aa1 e65a b125 5ab2 125a a243     .ZA.Z..Z.%Z..Z.C
    6825:	5ab2 325a b329 5ab5 125a 4a06 5aa5 815a     Z.2Z.)Z..ZJ.Z..Z
    6835:	b531 635a a1c1 5ab2 1263 5aa1 9d61 4f04     .1cZ..Z..cZ..aO.
    6845:	5aa1 7c63 5aa1 5d63 5aa1 8a5a b122 635a     Z.|cZ.]cZ..Z."cZ
    6855:	a15a 5ab3 095a b511 5a4a 085a c50b 5aa5     .ZZ..Z..ZJ.Z..Z.
    6865:	cb5a b531 635a a12b 635a a1fd 5ab1 2161     .Z.1cZ.+cZ..Z.!a
    6875:	4e04 5ab0 095a a1d4 612a 0a5a 400e 5aa0     N.Z..Z..a*.Z@.Z.
    6885:	8161 2c00 5ab0 295a b101 5a41 805a a166     .a,.Z.)Z..ZA.Z.f
    6895:	5ab1 325a b426 5ab5 115a 4a06 5ac5 095a     Z.2Z.&Z..ZJ.Z..Z
    68a5:	a522 5ab5 3261 4603 5aa1 3763 5aa1 0a61     ."Z.2aF.Z.7cZ..a
    68b5:	4f04 5aa1 e05a b131 635a a1bc 635a a198     O.Z..Z.1cZ..cZ..
    68c5:	5ab4 0663 5ab1 115a b329 5a4c 0e5a a443     Z..cZ..Z.)ZL.Z.C
    68d5:	612c 005a b422 5ab5 125a 4a03 5ac5 075a     a,.Z."Z..ZJ.Z..Z
    68e5:	a566 5ab5 3261 780e 5ab0 0963 635a 4012     .fZ.2ax.Z..ccZ@.
    68f5:	5ac0 0c5a a066 5ab0 265a 41a2 5aa1 e65a     Z..Z.fZ.&ZA.Z..Z
    6905:	b125 5aa2 8a5a b232 612c 005a b309 5ab3     .%Z..Z.2a,.Z..Z.
    6915:	295a b512 5a4a 075a c509 5aa5 cb5a b531     )Z..ZJ.Z..Z..Z.1
    6925:	5a50 495a a600 5ab6 005a a657 5ab6 355a     ZPIZ..Z..Z.WZ.5Z
    6935:	5192 5aa7 005a b700 5aa7 575a b735 5a52     Q.Z..Z..Z.WZ.5ZR
    6945:	105a 5501 612c 005a a800 5ab8 005a a881     .ZU.a,.Z..Z..Z..
    6955:	5ab8 3161 1a03 5aa1 c15a b402 635a a19d     Z.1a..Z..Z..cZ..
    6965:	5aa6 6d5a a763 5aa8 7c61 4f04 5aa1 7c5a     Z.mZ.cZ.|aO.Z.|Z
    6975:	a76f 5aa8 7763 5ab0 065a a15d 5aa8 7263     .oZ.wcZ..Z.]Z.rc
    6985:	5aa1 8a5a b122 5aa8 6c63 5a40 0e5a c00a     Z..Z."Z.lcZ@.Z..
    6995:	5aa0 8a5a b026 5aa1 5a5a b309 5a4c 065a     Z..Z.&Z.ZZ..ZL.Z
    69a5:	b422 5ab5 1161 2c00 5aa5 8a5a b52e 6146     ."Z..a,.Z..Z..aF
    69b5:	035a a12b 635a a1fd 5ab1 2161 4e04 5aa1     .Z.+cZ..Z.!aN.Z.
    69c5:	d461 560a 5ab1 015a b329 5ab4 025a 4c04     .aV.Z..Z.)Z..ZL.
    69d5:	5aa4 665a b426 5ab5 0e5a 4a04 5aa5 225a     Z.fZ.&Z..ZJ.Z."Z
    69e5:	b532 6133 0b5a b006 6156 0a5a b026 5ab3     .2a3.Z..aV.Z.&Z.
    69f5:	095a b512 5a4a 065a a598 5ab5 3161 b806     .Z..ZJ.Z..Z.1a..
    6a05:	5ab4 0661 c007 5ab0 0663 635a 4013 5ac0     Z..a..Z..ccZ@.Z.
    6a15:	0c5a a022 5ab0 265a a1e6 612c 005a b125     .Z."Z.&Z..a,.Z.%
    6a25:	5ab2 125a a243 5ab2 325a b511 5a4a 035a     Z..Z.CZ.2Z..ZJ.Z
    6a35:	c507 5aa5 665a b52e 5ab6 155a 504d 5aa6     ..Z.fZ..Z..ZPMZ.
    6a45:	815a b635 5ab7 155a 5196 5aa7 8161 2c00     .Z.5Z..ZQ.Z..a,.
    6a55:	5ab7 355a b811 5a52 125a 5503 5aa8 b15a     Z.5Z..ZR.ZU.Z..Z
    6a65:	b831 611a 035a a1c1 5ab2 125a a699 5aa7     .1a..Z..Z..Z..Z.
    6a75:	8e61 2c00 5aa8 ab61 4603 5aa1 9d5a a79b     .a,.Z..aF.Z..Z..
    6a85:	5aa8 a561 4f04 5aa1 7c5a a89f 635a a15d     Z..aO.Z.|Z..cZ.]
    6a95:	5aa8 9863 5aa1 8a5a b122 635a a15a 5ab5     Z..cZ..Z."cZ.ZZ.
    6aa5:	0e5a 4a07 5ac5 095a a58a 5ab5 2e63 5aa1     .ZJ.Z..Z..Z..cZ.
    6ab5:	2b63 5aa1 fd5a b121 614e 045a a1d4 6156     +cZ..Z.!aN.Z..aV
    6ac5:	0a5a b006 5ab1 015a b329 5a4c 065a b426     .Z..Z..Z.)ZL.Z.&
    6ad5:	5ab5 0e5a 4a03 5ac5 0761 2c00 5aa5 985a     Z..ZJ.Z..a,.Z..Z
    6ae5:	b535 61eb 115a b406 635a 4011 5ab0 265a     .5a..Z..cZ@.Z.&Z
    6af5:	4180 5aa1 665a b132 5ab3 095a 4c0c 5aa4     A.Z.fZ.2Z..ZL.Z.
    6b05:	435a b422 5ab5 155a 4a06 5ac5 095a a581     CZ."Z..ZJ.Z..Z..
    6b15:	5ab5 3563 5aa1 3763 5aa1 0a61 4e04 5aa1     Z.5cZ.7cZ..aN.Z.
    6b25:	e05a b131 635a a1bc 635a a198 635a b111     .Z.1cZ..cZ..cZ..
    6b35:	5a41 a25a a1e6 5ab1 255a 4507 5aa2 8a5a     ZA.Z..Z.%ZE.Z..Z
    6b45:	b232 5ab5 155a a58a 5ab5 3261 4603 5aa1     .2Z..Z..Z.2aF.Z.
    6b55:	c161 2c00 5ab4 0261 4603 5aa1 9d61 4e04     .a,.Z..aF.Z..aN.
    6b65:	5aa1 7c63 5ab0 065a a15d 635a a18a 5ab1     Z.|cZ..Z.]cZ..Z.
    6b75:	2263 5aa1 5a5a b329 612d 005a b512 5a4a     "cZ.ZZ.)a-.Z..ZJ
    6b85:	075a a522 5ab5 3261 4503 5aa1 2b61 4f04     .Z."Z.2aE.Z.+aO.
    6b95:	5aa1 fd5a b121 635a a1d4 6156 0a5a 400c     Z..Z.!cZ..aV.Z@.
    6ba5:	5ac0 0a5a a098 5ab0 295a b101 5a41 805a     Z..Z..Z.)Z..ZA.Z
    6bb5:	a166 5ab1 3261 2c00 5ab3 095a 4c02 5aa4     .fZ.2a,.Z..ZL.Z.
    6bc5:	665a b426 5ab5 125a 4a05 5aa5 985a b531     fZ.&Z..ZJ.Z..Z.1
    6bd5:	6146 035a a137 614e 045a a10a 635a a1e0     aF.Z.7aN.Z..cZ..
    6be5:	5ab1 3163 5aa1 bc63 5aa1 9863 5ab1 115a     Z.1cZ..cZ..cZ..Z
    6bf5:	b511 5a4a 075a a58a 5ab5 3261 c107 5ab4     ..ZJ.Z..Z.2a..Z.
    6c05:	0661 c80d 5a41 a25a a1e6 5ab1 255a b212     .a..ZA.Z..Z.%Z..
    6c15:	5a45 045a a243 5ab2 325a b329 5ab5 125a     ZE.Z.CZ.2Z.)Z..Z
    6c25:	4a06 5aa5 815a b531 635a a1c1 5ab2 1261     J.Z..Z.1cZ..Z..a
    6c35:	4e04 5aa1 9d63 5aa1 7c63 5aa1 5d63 5aa1     N.Z..cZ.|cZ.]cZ.
    6c45:	8a5a b122 635a a15a 5ab3 095a b511 5a4a     .Z."cZ.ZZ..Z..ZJ
    6c55:	085a c50b 5aa5 cb5a b531 635a a12b 614f     .Z..Z..Z.1cZ.+aO
    6c65:	045a a1fd 5ab1 2161 4603 5aa1 d463 5ab0     .Z..Z.!aF.Z..cZ.
    6c75:	0963 635a a081 612c 005a b029 5ab1 015a     .ccZ..a,.Z.)Z..Z
    6c85:	4180 5aa1 665a b132 5a4c 065a b426 5ab5     A.Z.fZ.2ZL.Z.&Z.
    6c95:	115a 4a06 5ac5 095a a522 5ab5 3261 4603     .ZJ.Z..Z."Z.2aF.
    6ca5:	5aa1 3761 4e04 5aa1 0a63 5aa1 e05a b131     Z.7aN.Z..cZ..Z.1
    6cb5:	635a a1bc 635a a198 5ab4 0663 5ab1 115a     cZ..cZ..Z..cZ..Z
    6cc5:	b329 5a4c 095a a443 612c 005a b422 5ab5     .)ZL.Z.Ca,.Z."Z.
    6cd5:	125a 4a03 5ac5 075a a566 5ab5 3261 5d15     .ZJ.Z..Z.fZ.2a].
    6ce5:	5ab0 095a 4010 5ac0 0c5a a066 5ab0 265a     Z..Z@.Z..Z.fZ.&Z
    6cf5:	41a2 5aa1 e65a b125 5a45 065a a28a 612c     A.Z..Z.%ZE.Z..a,
    6d05:	005a b232 5ab3 095a b329 5ab5 125a 4a07     .Z.2Z..Z.)Z..ZJ.
    6d15:	5ac5 095a a5cb 5ab5 315a 504b 5aa6 005a     Z..Z..Z.1ZPKZ..Z
    6d25:	b600 5aa6 cb5a b635 5a51 945a a700 5ab7     ..Z..Z.5ZQ.Z..Z.
    6d35:	005a a7cb 5ab7 3561 2c00 5a52 115a 5502     .Z..Z.5a,.ZR.ZU.
    6d45:	5aa8 005a b800 5aa8 035a b832 611a 035a     Z..Z..Z..Z.2a..Z
    6d55:	a1c1 5ab4 0261 4e04 5aa1 9d5a a6e7 5aa7     ..Z..aN.Z..Z..Z.
    6d65:	db5a a8fc 5ab8 3163 5aa1 7c5a a7ea 5aa8     .Z..Z.1cZ.|Z..Z.
    6d75:	f563 5aa1 5d5a a8ee 635a b006 5aa1 8a5a     .cZ.]Z..cZ..Z..Z
    6d85:	b122 5aa8 e663 5a40 0d5a c00a 5aa0 8a5a     ."Z..cZ@.Z..Z..Z
    6d95:	b026 5aa1 5a5a b309 5a4c 065a b422 5ab5     .&Z.ZZ..ZL.Z."Z.
    6da5:	1161 2c00 5aa5 8a5a b52e 6146 035a a12b     .a,.Z..Z..aF.Z.+
    6db5:	614f 045a a1fd 5ab1 2163 5aa1 d461 560a     aO.Z..Z.!cZ..aV.
    6dc5:	5ab1 015a b329 5ab4 025a 4c04 5aa4 665a     Z..Z.)Z..ZL.Z.fZ
    6dd5:	b426 5ab5 0e5a 4a04 5aa5 225a b532 6132     .&Z..ZJ.Z."Z.2a2
    6de5:	0b5a b006 6156 0a5a b026 5ab3 095a b512     .Z..aV.Z.&Z..Z..
    6df5:	5a4a 065a a598 5ab5 3161 9507 5ab4 0663     ZJ.Z..Z.1a..Z..c
    6e05:	635a b006 635a b615 5ab7 1561 2c00 5ab8     cZ..cZ..Z..a,.Z.
    6e15:	1161 4603 5a40 0e5a a022 5ab0 2661 2c00     .aF.Z@.Z."Z.&a,.
    6e25:	5aa1 e65a b125 5ab2 125a a243 5ab2 325a     Z..Z.%Z..Z.CZ.2Z
    6e35:	b511 5a4a 035a c507 5aa5 665a b52e 5a50     ..ZJ.Z..Z.fZ..ZP
    6e45:	4e5a a681 5ab6 355a 5197 5aa7 815a b735     NZ..Z.5ZQ.Z..Z.5
    6e55:	5a52 1261 2c00 5a55 035a a8b1 5ab8 3161     ZR.a,.ZU.Z..Z.1a
    6e65:	1a03 5aa1 c15a b212 5aa6 9961 2c00 5aa7     ..Z..Z..Z..a,.Z.
    6e75:	8e5a a8ab 6122 045a a19d 5aa7 9b5a a8a5     .Z..a".Z..Z..Z..
    6e85:	635a a17c 5aa8 9f63 5aa1 5d5a a898 635a     cZ.|Z..cZ.]Z..cZ
    6e95:	a18a 5ab1 2263 5aa1 5a5a b50e 5a4a 075a     ..Z."cZ.ZZ..ZJ.Z
    6ea5:	c509 5aa5 8a5a b52e 635a a12b 614f 045a     ..Z..Z..cZ.+aO.Z
    6eb5:	a1fd 5ab1 2163 5aa1 d463 5ab0 0663 635a     ..Z.!cZ..cZ..ccZ
    6ec5:	b101 5a4b 065a b329 5a4c 065a b426 5ab5     ..ZK.Z.)ZL.Z.&Z.
    6ed5:	0e5a 4a03 5ac5 075a a598 5ab5 3561 1612     .ZJ.Z..Z..Z.5a..
    6ee5:	5ab4 0663 5a40 0d5a b026 5a41 805a a166     Z..cZ@.Z.&ZA.Z.f
    6ef5:	5ab1 325a b309 5a4c 0c5a a443 5ab4 225a     Z.2Z..ZL.Z.CZ."Z
    6f05:	b515 5a4a 065a c509 5aa5 815a b535 635a     ..ZJ.Z..Z..Z.5cZ
    6f15:	a137 614f 045a a10a 635a a1e0 5ab1 3163     .7aO.Z..cZ..Z.1c
    6f25:	5aa1 bc63 5aa1 9863 5ab1 115a 41a2 5aa1     Z..cZ..cZ..ZA.Z.
    6f35:	e65a b125 5aa2 8a5a b232 5ab4 025a b515     .Z.%Z..Z.2Z..Z..
    6f45:	5aa5 8a5a b532 635a a1c1 6122 045a a19d     Z..Z.2cZ..a".Z..
    6f55:	635a b006 612c 005a a17c 6146 035a a15d     cZ..a,.Z.|aF.Z.]
    6f65:	635a a18a 5ab1 2263 5aa1 5a61 2c00 5ab3     cZ..Z."cZ.Za,.Z.
    6f75:	295a b512 5a4a 075a a522 5ab5 3261 4603     )Z..ZJ.Z."Z.2aF.
    6f85:	5aa1 2b61 4f04 5aa1 fd5a b121 635a a1d4     Z.+aO.Z..Z.!cZ..
    6f95:	6363 5ab6 155a b715 5ab8 1163 5a40 095a     ccZ..Z..Z..cZ@.Z
    6fa5:	a098 5ab0 295a b101 5a41 805a a166 612c     ..Z.)Z..ZA.Z.fa,
    6fb5:	005a b132 5ab3 095a 4c02 5aa4 665a b426     .Z.2Z..ZL.Z.fZ.&
    6fc5:	5ab5 125a 4a05 5aa5 985a b531 5a50 4d5a     Z..ZJ.Z..Z.1ZPMZ
    6fd5:	a66c 5ab6 355a 5196 5aa7 6c5a b735 612c     .lZ.5ZQ.Z.lZ.5a,
    6fe5:	005a b831 611a 035a a137 5aa6 825a a778     .Z.1a..Z.7Z..Z.x
    6ff5:	5aa8 9361 4e04 5aa1 0a5a a784 5aa8 8d63     Z..aN.Z..Z..Z..c
    7005:	5aa1 e05a b131 5aa8 8763 5aa1 bc5a a881     Z..Z.1Z..cZ..Z..
    7015:	635a a198 635a b111 5ab5 115a 4a07 5aa5     cZ..cZ..Z..ZJ.Z.
    7025:	8a5a b532 61c1 075a b406 61c8 0d5a 41a2     .Z.2a..Z..a..ZA.
    7035:	5aa1 e65a b125 5ab2 125a a243 5ab2 325a     Z..Z.%Z..Z.CZ.2Z
    7045:	b329 5ab5 125a 4a06 5aa5 8161 2c00 5ab5     .)Z..ZJ.Z..a,.Z.
    7055:	3161 4603 5aa1 c15a b212 614e 045a a19d     1aF.Z..Z..aN.Z..
    7065:	635a a17c 635a a15d 635a a18a 5ab1 2263     cZ.|cZ.]cZ..Z."c
    7075:	5aa1 5a5a b309 5ab5 115a 4a08 5ac5 0b5a     Z.ZZ..Z..ZJ.Z..Z
    7085:	a5cb 5ab5 3163 5aa1 2b61 4f04 5aa1 fd5a     ..Z.1cZ.+aO.Z..Z
    7095:	b121 635a a1d4 6146 035a b009 6363 5a40     .!cZ..aF.Z..ccZ@
    70a5:	0d61 2c00 5aa0 815a b029 5ab1 015a 4180     .a,.Z..Z.)Z..ZA.
    70b5:	5aa1 665a b132 5a4c 075a b426 5ab5 115a     Z.fZ.2ZL.Z.&Z..Z
    70c5:	4a06 5ac5 095a a522 5ab5 3261 4603 5aa1     J.Z..Z."Z.2aF.Z.
    70d5:	3761 4e04 5aa1 0a63 5aa1 e05a b131 635a     7aN.Z..cZ..Z.1cZ
    70e5:	a1bc 635a a198 5ab4 0663 5ab1 115a b329     ..cZ..Z..cZ..Z.)
    70f5:	5a4c 0e61 2c00 5aa4 435a b422 5ab5 125a     ZL.a,.Z.CZ."Z..Z
    7105:	4a03 5ac5 075a a566 5ab5 3261 070b 5ab6     J.Z..Z.fZ.2a..Z.
    7115:	155a b715 5ab8 1163 635a b009 635a 400f     .Z..Z..ccZ..cZ@.
    7125:	5aa0 665a b026 5a41 a25a a1e6 5ab1 255a     Z.fZ.&ZA.Z..Z.%Z
    7135:	4509 5aa2 8a5a b232 612c 005a b309 5ab3     E.Z..Z.2a,.Z..Z.
    7145:	295a b402 5ab5 125a 4a07 5ac5 095a a5cb     )Z..Z..ZJ.Z..Z..
    7155:	5ab5 315a 5049 5aa6 665a b632 5a51 925a     Z.1ZPIZ.fZ.2ZQ.Z
    7165:	a766 5ab7 325a 5210 612c 005a 5501 5aa8     .fZ.2ZR.a,.ZU.Z.
    7175:	575a b831 61f6 035a a1c1 5aa6 8c5a a77b     WZ.1a..Z..Z..Z.{
    7185:	5aa8 5363 5aa1 9d5a a78f 5aa8 4e63 5aa1     Z.ScZ..Z..Z.NcZ.
    7195:	7c5a a849 635a b006 5aa1 5d5a a88a 5ab8     |Z.IcZ..Z.]Z..Z.
    71a5:	2e63 5aa1 8a5a b122 635a 400c 5aa0 8a5a     .cZ..Z."cZ@.Z..Z
    71b5:	b026 5aa1 5a5a b309 5a4c 065a a466 5ab4     .&Z.ZZ..ZL.Z.fZ.
    71c5:	265a b511 612c 005a a58a 5ab5 2e61 2304     &Z..a,.Z..Z..a#.
    71d5:	5aa1 2b63 5aa1 fd5a b121 635a a1d4 5ab4     Z.+cZ..Z.!cZ..Z.
    71e5:	0661 560a 5ab1 015a b329 5a4c 0d5a a443     .aV.Z..Z.)ZL.Z.C
    71f5:	5ab4 225a b50e 5a4a 045a a522 5ab5 3261     Z."Z..ZJ.Z."Z.2a
    7205:	320b 5ab0 0663 5ab4 0261 b806 5a40 0d61     2.Z..cZ..a..Z@.a
    7215:	2c00 5ab0 265a b309 5a4c 075a a466 5ab4     ,.Z.&Z..ZL.Z.fZ.
    7225:	265a b512 5a4a 065a a598 5ab5 3161 060b     &Z..ZJ.Z..Z.1a..
    7235:	5ab4 0663 635a b612 5ab7 1261 2d00 5ab8     Z..ccZ..Z..a-.Z.
    7245:	0e61 4503 5ab0 065a a022 612d 005a b026     .aE.Z..Z."a-.Z.&
    7255:	5aa1 e65a b125 5ab2 125a 4506 5aa2 435a     Z..Z.%Z..ZE.Z.CZ
    7265:	b232 5ab5 115a 4a03 5ac5 075a a566 5ab5     .2Z..ZJ.Z..Z.fZ.
    7275:	2e5a a603 5ab6 325a a703 612c 005a b732     .Z..Z.2Z..a,.Z.2
    7285:	5aa8 435a b82e 61f6 035a a1c1 5ab2 125a     Z.CZ..a..Z..Z..Z
    7295:	a624 612c 005a a715 5aa8 3b61 4603 5aa1     .$a,.Z..Z.;aF.Z.
    72a5:	9d5a a727 5aa8 3363 5aa1 7c5a a82b 635a     .Z.'Z.3cZ.|Z.+cZ
    72b5:	a15d 5aa8 2263 5aa1 8a5a b122 635a a15a     .]Z."cZ..Z."cZ.Z
    72c5:	5ab5 0e5a 4a07 5ac5 095a a58a 5ab5 2e61     Z..ZJ.Z..Z..Z..a
    72d5:	4e04 5aa1 2b63 5aa1 fd5a b121 635a a1d4     N.Z.+cZ..Z.!cZ..
    72e5:	6363 5ab0 0663 5ab1 015a b329 5a4c 065a     ccZ..cZ..Z.)ZL.Z
    72f5:	b426 5ab5 0e5a 4a03 5ac5 075a a598 612d     .&Z..ZJ.Z..Z..a-
    7305:	005a b535 6178 0e5a b406 6363 5a40 115a     .Z.5ax.Z..ccZ@.Z
    7315:	c00c 5ab0 265a 4180 5aa1 665a b132 5ab3     ..Z.&ZA.Z.fZ.2Z.
    7325:	095a 4c0d 5aa4 435a b422 5ab5 155a 4a06     .ZL.Z.CZ."Z..ZJ.
    7335:	5ac5 095a a581 5ab5 3561 4e04 5aa1 3763     Z..Z..Z.5aN.Z.7c
    7345:	5aa1 0a63 5aa1 e05a b131 635a a1bc 635a     Z..cZ..Z.1cZ..cZ
    7355:	a198 635a b111 5a41 a25a a1e6 5ab1 255a     ..cZ..ZA.Z..Z.%Z
    7365:	a28a 5ab2 325a b515 5aa5 8a5a b532 614f     ..Z.2Z..Z..Z.2aO
    7375:	045a a1c1 5ab4 0261 4603 5aa1 9d63 5ab0     .Z..Z..aF.Z..cZ.
    7385:	0661 2c00 5aa1 7c61 4603 5aa1 5d63 5aa1     .a,.Z.|aF.Z.]cZ.
    7395:	8a5a b122 635a a15a 612c 005a b329 5ab5     .Z."cZ.Za,.Z.)Z.
    73a5:	125a 4a07 5aa5 225a b532 6122 045a a12b     .ZJ.Z."Z.2a".Z.+
    73b5:	635a a1fd 5ab1 2163 5aa1 d461 560a 5a40     cZ..Z.!cZ..aV.Z@
    73c5:	075a c008 5aa0 985a b029 5ab1 015a 4180     .Z..Z..Z.)Z..ZA.
    73d5:	5aa1 6661 2c00 5ab1 325a b309 5a4c 025a     Z.fa,.Z.2Z..ZL.Z
    73e5:	a466 5ab4 265a b512 5a4a 055a a598 5ab5     .fZ.&Z..ZJ.Z..Z.
    73f5:	3161 2304 5aa1 3763 5aa1 0a63 5aa1 e05a     1a#.Z.7cZ..cZ..Z
    7405:	b131 635a a1bc 635a a198 635a b111 5ab5     .1cZ..cZ..cZ..Z.
    7415:	115a 4a07 5aa5 8a5a b532 614e 045a b406     .ZJ.Z..Z.2aN.Z..
    7425:	613a 115a 41a2 5aa1 e65a b125 5ab2 125a     a:.ZA.Z..Z.%Z..Z
    7435:	450a 5aa2 435a b232 5ab3 295a b512 5a4a     E.Z.CZ.2Z.)Z..ZJ
    7445:	065a a581 612c 005a b531 6123 045a a1c1     .Z..a,.Z.1a#.Z..
    7455:	5ab2 1263 5aa1 9d63 5aa1 7c63 5ab0 095a     Z..cZ..cZ.|cZ..Z
    7465:	a15d 635a a18a 5ab1 2263 5a40 0a5a c00a     .]cZ..Z."cZ@.Z..
    7475:	5aa0 815a b029 5aa1 5a5a b309 5ab4 265a     Z..Z.)Z.ZZ..Z.&Z
    7485:	b511 5a4a 085a c50b 5aa5 cb5a b531 614e     ..ZJ.Z..Z..Z.1aN
    7495:	045a a12b 635a a1fd 5ab1 2163 5aa1 d45a     .Z.+cZ..Z.!cZ..Z
    74a5:	b406 612a 0a5a b101 612c 005a 4180 5aa1     ..a*.Z..a,.ZA.Z.
    74b5:	665a b132 5ab5 115a 4a06 5ac5 095a a522     fZ.2Z..ZJ.Z..Z."
    74c5:	5ab5 3261 2304 5aa1 3763 5aa1 0a63 5ab0     Z.2a#.Z.7cZ..cZ.
    74d5:	095a a1e0 5ab1 3163 5aa1 bc63 5aa1 9863     .Z..Z.1cZ..cZ..c
    74e5:	5ab1 115a a166 5ab1 3261 2c00 5ab3 295a     Z..Z.fZ.2a,.Z.)Z
    74f5:	4c07 5ab4 265a b512 5a4a 035a c507 5aa5     L.Z.&Z..ZJ.Z..Z.
    7505:	665a b532 6122 045a a137 635a a10a 5ab4     fZ.2a".Z.7cZ..Z.
    7515:	0663 5aa1 e05a b131 635a a1bc 635a a198     .cZ..Z.1cZ..cZ..
    7525:	635a b111 5a41 a25a a1e6 5ab1 255a 4509     cZ..ZA.Z..Z.%ZE.
    7535:	5ab2 325a b309 612c 005a b329 5a4c 065a     Z.2Z..a,.Z.)ZL.Z
    7545:	a443 5ab4 225a b512 5a4a 075a c509 5aa5     .CZ."Z..ZJ.Z..Z.
    7555:	cb5a b531 6123 045a a1c1 5ab2 1263 5aa1     .Z.1a#.Z..Z..cZ.
    7565:	9d63 5aa1 7c63 5aa1 5d63 5aa1 8a5a b122     .cZ.|cZ.]cZ..Z."
    7575:	635a a15a 5ab3 095a b402 5ab5 115a a58a     cZ.ZZ..Z..Z..Z..
    7585:	5ab5 2e61 4e04 5aa1 2b63 5aa1 fd5a b121     Z..aN.Z.+cZ..Z.!
    7595:	635a a1d4 6156 0a5a b101 5a4c 025a a466     cZ..aV.Z..ZL.Z.f
    75a5:	5ab4 265a b50e 5a4a 045a a522 5ab5 3261     Z.&Z..ZJ.Z."Z.2a
    75b5:	c107 5ab4 0661 c80d 5ab3 295a b512 5a4a     ..Z..a..Z.)Z..ZJ
    75c5:	065a a598 5ab5 3161 9407 5ab6 1261 2c00     .Z..Z.1a..Z..a,.
    75d5:	5ab7 125a b80e 6179 0e5a 400e 5aa0 225a     Z..Z..ay.Z@.Z."Z
    75e5:	b026 612c 005a a1e6 5ab1 255a 450c 5ab2     .&a,.Z..Z.%ZE.Z.
    75f5:	325a b309 5ab5 115a c50c 5aea 025a 4a8a     2Z..Z..Z..Z..ZJ.
    7605:	5a6a f65a 8a6e 5a2a 215a 6df5 5a8d 065a     Zj.Z.nZ*!Zm.Z..Z
    7615:	2d01 5aa5 225a b526 612c 005a c60c 5af0     -.Z."Z.&a,.Z..Z.
    7625:	005a 5017 5a70 135a 9004 5a30 405a f303     .ZP.Zp.Z..Z0@Z..
    7635:	5a73 405a 93f3 5a33 705a 530c 5aa6 985a     Zs@Z..Z3pZS.Z..Z
    7645:	b635 5ac7 0c5a f100 5a51 165a 7143 5a91     .5Z..Z..ZQ.ZqCZ.
    7655:	c45a 3140 5af4 035a 74d0 612c 005a 94c3     .Z1@Z..Zt.a,.Z..
    7665:	5a34 705a 540a 5aa7 8a5a b732 5af2 005a     Z4pZT.Z..Z.2Z..Z
    7675:	5216 5a72 935a 92c4 5a32 005a 5504 5a75     R.Zr.Z..Z2.ZU.Zu
    7685:	605a 95f3 5a35 f05a 550a 5ab8 3262 7e5a     `Z..Z5.ZU.Z.2b~Z
    7695:	a1c1 5ab2 125a a78b 612c 005a a823 6146     ..Z..Z..a,.Z.#aF
    76a5:	035a a19d 635a a17c 635a a15d 635a a18a     .Z..cZ.|cZ.]cZ..
    76b5:	5ab1 2261 4e04 5aa1 5a5a b232 635a a12b     Z."aN.Z.ZZ.2cZ.+
    76c5:	5ab2 1263 5aa1 fd5a b121 635a a1d4 635a     Z..cZ..Z.!cZ..cZ
    76d5:	b006 61c1 075a b101 5ab2 325a 4b05 5ab3     ..a..Z..Z.2ZK.Z.
    76e5:	295a b506 5ab5 2a63 5ab2 1263 5ab5 0a61     )Z..Z.*cZ..cZ..a
    76f5:	a40e 5a40 0f5a b026 5a41 805a a166 5ab1     ..Z@.Z.&ZA.Z.fZ.
    7705:	325a b309 5aa5 985a b52d 635a a137 635a     2Z..Z..Z.-cZ.7cZ
    7715:	a10a 635a a1e0 5ab1 3163 5aa1 bc63 5aa1     ..cZ..Z.1cZ..cZ.
    7725:	985a b50d 614f 045a b111 5a41 a25a a1e6     .Z..aO.Z..ZA.Z..
    7735:	5ab1 255a b232 5aa5 225a b526 635a a1c1     Z.%Z.2Z."Z.&cZ..
    7745:	5ab2 1263 5ab0 065a a19d 6146 035a a17c     Z..cZ..Z..aF.Z.|
    7755:	635a a15d 635a a18a 5ab1 2261 4e04 5aa1     cZ.]cZ..Z."aN.Z.
    7765:	5a61 2c00 5ab2 325a b329 5aa5 005a b500     Za,.Z.2Z.)Z..Z..
    7775:	5aa5 225a b52a 6146 035a a12b 5ab2 1263     Z."Z.*aF.Z.+Z..c
    7785:	5aa1 fd5a b121 635a a1d4 5ab5 0a61 330b     Z..Z.!cZ..Z..a3.
    7795:	5a40 0a5a a098 5ab0 295a b101 5a41 805a     Z@.Z..Z.)Z..ZA.Z
    77a5:	a166 612c 005a b132 5a45 005a a28a 5ab2     .fa,.Z.2ZE.Z..Z.
    77b5:	325a b309 5aa5 6c5a b52d 6146 035a a137     2Z..Z.lZ.-aF.Z.7
    77c5:	635a a10a 635a a1e0 5ab1 3163 5aa1 bc63     cZ..cZ..Z.1cZ..c
    77d5:	5aa1 985a b50d 614e 045a b111 5aa5 8a5a     Z..Z..aN.Z..Z..Z
    77e5:	b52a 613a 115a b50a 614f 045a 41a2 5aa1     .*a:.Z..aO.ZA.Z.
    77f5:	e65a b125 5ab2 125a 450c 5aa2 435a b232     .Z.%Z..ZE.Z.CZ.2
    7805:	5ab3 295a a566 5ab5 2a63 5aa1 c15a b212     Z.)Z.fZ.*cZ..Z..
    7815:	635a a19d 635a a17c 635a a15d 635a a18a     cZ..cZ.|cZ.]cZ..
    7825:	5ab1 2261 4e04 5aa1 5a5a b232 5ab3 095a     Z."aN.Z.ZZ.2Z..Z
    7835:	b50a 5aa5 8a5a b52a 635a a12b 5ab2 1263     ..Z..Z.*cZ.+Z..c
    7845:	5aa1 fd5a b121 635a b009 5aa1 d45a b50a     Z..Z.!cZ..Z..Z..
    7855:	6106 0b5a 400e 612d 005a a081 5ab0 295a     a..Z@.a-.Z..Z.)Z
    7865:	b101 5a41 805a a166 5ab1 325a a522 5ab5     ..ZA.Z.fZ.2Z."Z.
    7875:	2e61 4503 5aa1 3763 5aa1 0a63 5aa1 e05a     .aE.Z.7cZ..cZ..Z
    7885:	b131 5ab5 0e63 5aa1 bc63 5aa1 9861 4f04     .1Z..cZ..cZ..aO.
    7895:	5ab1 115a b329 5aa5 8a61 2c00 5ab5 2a61     Z..Z.)Z..a,.Z.*a
    78a5:	b806 5ab5 0a63 635a b009 61c0 075a 4012     ..Z..ccZ..a..Z@.
    78b5:	5ac0 0c5a a066 5ab0 265a 41a2 5aa1 e65a     Z..Z.fZ.&ZA.Z..Z
    78c5:	b125 5ab2 3261 2d00 5ab3 095a b329 5aa5     .%Z.2a-.Z..Z.)Z.
    78d5:	225a b52e 6145 035a a1c1 5ab2 1263 5aa1     "Z..aE.Z..Z..cZ.
    78e5:	9d63 5aa1 7c63 5ab0 065a a15d 635a a18a     .cZ.|cZ..Z.]cZ..
    78f5:	5ab1 2261 4f04 5a40 0e5a c00a 5aa0 8a5a     Z."aO.Z@.Z..Z..Z
    7905:	b026 5aa1 5a5a b232 5ab3 095a 4c06 5aa4     .&Z.ZZ.2Z..ZL.Z.
    7915:	435a b422 612c 005a b50e 6146 035a a12b     CZ."a,.Z..aF.Z.+
    7925:	5ab2 1263 5aa1 fd5a b121 635a a1d4 6132     Z..cZ..Z.!cZ..a2
    7935:	0b5a b101 5ab3 295a b402 5aa5 e65a b52d     .Z..Z.)Z..Z..Z.-
    7945:	6156 0a5a b006 6363 5ab6 155a b712 5ab8     aV.Z..ccZ..Z..Z.
    7955:	1261 4f04 5ab0 265a b232 5ab3 0961 4603     .aO.Z.&Z.2Z..aF.
    7965:	5ab2 1261 560a 5ab0 0661 c007 5a40 135a     Z..aV.Z..a..Z@.Z
    7975:	c00c 5aa0 225a b026 612c 005a a1e6 5ab1     ..Z."Z.&a,.Z..Z.
    7985:	255a b232 5ab5 0d5a a522 5ab5 265a 530a     %Z.2Z..Z."Z.&ZS.
    7995:	5ab6 355a a766 5ab7 325a a8e6 5ab8 3161     Z.5Z.fZ.2Z..Z.1a
    79a5:	4603 5aa1 c15a b212 5aa7 6763 5aa1 9d63     F.Z..Z..Z.gcZ..c
    79b5:	5aa1 7c63 5aa1 5d63 5aa1 8a5a b122 614f     Z.|cZ.]cZ..Z."aO
    79c5:	045a a15a 5ab2 3263 5aa1 2b5a b212 635a     .Z.ZZ.2cZ.+Z..cZ
    79d5:	a1fd 5ab1 2163 5aa1 d461 320b 5ab0 065a     ..Z.!cZ..a2.Z..Z
    79e5:	b101 5ab2 325a b329 5aa5 005a b500 5aa5     ..Z.2Z.)Z..Z..Z.
    79f5:	2261 2c00 5ab5 2a61 4603 5ab2 1263 5ab5     "a,.Z.*aF.Z..cZ.
    7a05:	0a61 a50e 5a40 115a b026 5a41 805a a166     .a..Z@.Z.&ZA.Z.f
    7a15:	5ab1 325a b309 5aa5 985a b52d 635a a137     Z.2Z..Z..Z.-cZ.7
    7a25:	635a a10a 635a a1e0 5ab1 3163 5aa1 bc5a     cZ..cZ..Z.1cZ..Z
    7a35:	b50d 635a a198 614e 045a b111 5a41 a25a     ..cZ..aN.Z..ZA.Z
    7a45:	a1e6 5ab1 255a b232 5aa5 225a b526 635a     ..Z.%Z.2Z."Z.&cZ
    7a55:	a1c1 5ab2 1263 5aa1 9d61 4603 5aa1 7c63     ..Z..cZ..aF.Z.|c
    7a65:	5ab0 0661 2c00 5aa1 5d61 4603 5aa1 8a5a     Z..a,.Z.]aF.Z..Z
    7a75:	b122 614f 045a a15a 612c 005a b232 5ab3     ."aO.Z.Za,.Z.2Z.
    7a85:	295a b506 5ab5 2a61 4603 5aa1 2b5a b212     )Z..Z.*aF.Z.+Z..
    7a95:	635a a1fd 5ab1 2163 5aa1 d45a b50a 6132     cZ..Z.!cZ..Z..a2
    7aa5:	0b5a 400c 5ac0 0a5a a098 5ab0 295a b101     .Z@.Z..Z..Z.)Z..
    7ab5:	5a41 8061 2c00 5aa1 665a b132 5a45 005a     ZA.a,.Z.fZ.2ZE.Z
    7ac5:	a28a 5ab2 325a b309 5aa5 6c5a b52d 6146     ..Z.2Z..Z.lZ.-aF
    7ad5:	035a a137 635a a10a 635a a1e0 5ab1 3163     .Z.7cZ..cZ..Z.1c
    7ae5:	5aa1 bc61 4f04 5aa1 985a b50d 635a b111     Z..aO.Z..Z..cZ..
    7af5:	5aa5 8a5a b52a 61c8 0d5a b50a 61c0 075a     Z..Z.*a..Z..a..Z
    7b05:	41a2 5aa1 e65a b125 5ab2 125a 450c 5aa2     A.Z..Z.%Z..ZE.Z.
    7b15:	435a b232 5ab3 295a a566 5ab5 2a63 5aa1     CZ.2Z.)Z.fZ.*cZ.
    7b25:	c15a b212 635a a19d 635a a17c 635a a15d     .Z..cZ..cZ.|cZ.]
    7b35:	614f 045a a18a 5ab1 2263 5aa1 5a5a b232     aO.Z..Z."cZ.ZZ.2
    7b45:	5ab3 095a b50a 5aa5 8a5a b52a 635a a12b     Z..Z..Z..Z.*cZ.+
    7b55:	5ab2 1263 5aa1 fd5a b121 635a a1d4 635a     Z..cZ..Z.!cZ..cZ
    7b65:	b009 5ab5 0a61 c007 5aa0 815a b029 5ab1     ..Z..a..Z..Z.)Z.
    7b75:	015a 4180 5aa1 665a b132 5aa5 e65a b52d     .ZA.Z.fZ.2Z..Z.-
    7b85:	6146 035a a137 635a a10a 635a a1e0 5ab1     aF.Z.7cZ..cZ..Z.
    7b95:	3163 5aa1 bc5a b50d 614f 045a a198 635a     1cZ..Z..aO.Z..cZ
    7ba5:	b111 5ab3 295a a58a 612c 005a b52a 61b8     ..Z.)Z..a,.Z.*a.
    7bb5:	065a b50a 61a4 0e5a b009 5a40 105a c00c     .Z..a..Z..Z@.Z..
    7bc5:	5aa0 665a b026 5a41 a25a a1e6 5ab1 2561     Z.fZ.&ZA.Z..Z.%a
    7bd5:	2c00 5ab2 325a b309 5ab3 295a a522 5ab5     ,.Z.2Z..Z.)Z."Z.
    7be5:	2e61 4603 5aa1 c15a b212 635a a19d 635a     .aF.Z..Z..cZ..cZ
    7bf5:	a17c 5ab5 0e63 5aa1 5d61 4f04 5ab0 065a     .|Z..cZ.]aO.Z..Z
    7c05:	a18a 5ab1 2263 5a40 0d5a c00a 5aa0 8a5a     ..Z."cZ@.Z..Z..Z
    7c15:	b026 5aa1 5a5a b232 5ab3 095a b422 612c     .&Z.ZZ.2Z..Z."a,
    7c25:	005a a58a 5ab5 2a61 4603 5aa1 2b5a b212     .Z..Z.*aF.Z.+Z..
    7c35:	635a a1fd 5ab1 215a b50a 635a a1d4 6132     cZ..Z.!Z..cZ..a2
    7c45:	0b5a b101 5ab3 295a b402 5aa5 e65a b52d     .Z..Z.)Z..Z..Z.-
    7c55:	6156 0a5a b006 61c1 075a b615 5ab8 1163     aV.Z..a..Z..Z..c
    7c65:	5ab0 265a b309 5ab7 1261 9c0d 5ab0 0661     Z.&Z..Z..a..Z..a
    7c75:	c007 5a40 0e5a a022 5ab0 2661 2c00 5aa1     ..Z@.Z."Z.&a,.Z.
    7c85:	e65a b125 5ab2 325a a500 5ab5 005a a522     .Z.%Z.2Z..Z..Z."
    7c95:	5ab5 265a 5308 5aa6 6c5a b635 5aa7 225a     Z.&ZS.Z.lZ.5Z."Z
    7ca5:	b732 5a55 0b5a a8cb 5ab8 3161 4603 5aa1     .2ZU.Z..Z.1aF.Z.
    7cb5:	c15a b212 5aa7 2363 5aa1 9d63 5aa1 7c63     .Z..Z.#cZ..cZ.|c
    7cc5:	5aa1 5d61 4f04 5aa1 8a5a b122 635a a15a     Z.]aO.Z..Z."cZ.Z
    7cd5:	5ab2 3263 5aa1 2b5a b212 635a a1fd 5ab1     Z.2cZ.+Z..cZ..Z.
    7ce5:	2163 5aa1 d463 5ab0 0661 4e04 5ab5 0663     !cZ..cZ..aN.Z..c
    7cf5:	5ab1 015a b232 5a4b 065a b329 5ab5 2a63     Z..Z.2ZK.Z.)Z.*c
    7d05:	5ab2 1263 5ab5 0a61 a50e 5a40 0d5a b026     Z..cZ..a..Z@.Z.&
    7d15:	5a41 805a a166 5ab1 325a b309 5aa5 985a     ZA.Z.fZ.2Z..Z..Z
    7d25:	b52d 635a a137 635a a10a 635a a1e0 5ab1     .-cZ.7cZ..cZ..Z.
    7d35:	3163 5aa1 bc5a b50d 614e 045a a198 635a     1cZ..Z..aN.Z..cZ
    7d45:	b111 5a41 a25a a1e6 5ab1 255a b232 5aa5     ..ZA.Z..Z.%Z.2Z.
    7d55:	225a b526 635a a1c1 5ab2 1263 5aa1 9d63     "Z.&cZ..Z..cZ..c
    7d65:	5ab0 065a a17c 6146 035a a15d 614e 045a     Z..Z.|aF.Z.]aN.Z
    7d75:	a18a 5ab1 2263 5aa1 5a61 2d00 5ab2 325a     ..Z."cZ.Za-.Z.2Z
    7d85:	b329 5ab5 065a b52a 6145 035a a12b 5ab2     .)Z..Z.*aE.Z.+Z.
    7d95:	1263 5aa1 fd5a b121 635a a1d4 61c1 075a     .cZ..Z.!cZ..a..Z
    7da5:	b50a 635a 4009 5aa0 985a b029 5ab1 015a     ..cZ@.Z..Z.)Z..Z
    7db5:	4180 612c 005a a166 5ab1 325a 4500 5aa2     A.a,.Z.fZ.2ZE.Z.
    7dc5:	8a5a b232 5ab3 095a a56c 5ab5 2d61 4603     .Z.2Z..Z.lZ.-aF.
    7dd5:	5aa1 3763 5aa1 0a63 5aa1 e05a b131 635a     Z.7cZ..cZ..Z.1cZ
    7de5:	a1bc 614e 045a a198 5ab5 0d63 5ab1 115a     ..aN.Z..Z..cZ..Z
    7df5:	a58a 5ab5 2a61 c80d 5ab5 0a61 c107 5a41     ..Z.*a..Z..a..ZA
    7e05:	a25a a1e6 5ab1 255a b212 5a45 0c5a a243     .Z..Z.%Z..ZE.Z.C
    7e15:	5ab2 325a b329 5aa5 665a b52a 635a a1c1     Z.2Z.)Z.fZ.*cZ..
    7e25:	5ab2 1263 5aa1 9d63 5aa1 7c63 5aa1 5d61     Z..cZ..cZ.|cZ.]a
    7e35:	4e04 5aa1 8a5a b122 635a a15a 5ab2 325a     N.Z..Z."cZ.ZZ.2Z
    7e45:	b309 5ab5 0a5a a58a 5ab5 2a63 5aa1 2b5a     ..Z..Z..Z.*cZ.+Z
    7e55:	b212 635a a1fd 5ab1 2163 5aa1 d45a b50a     ..cZ..Z.!cZ..Z..
    7e65:	635a b009 6195 075a 400d 612c 005a a081     cZ..a..Z@.a,.Z..
    7e75:	5ab0 295a b101 5a41 805a a166 5ab1 325a     Z.)Z..ZA.Z.fZ.2Z
    7e85:	a5e6 5ab5 2d61 4603 5aa1 3763 5aa1 0a63     ..Z.-aF.Z.7cZ..c
    7e95:	5aa1 e05a b131 614e 045a a1bc 635a a198     Z..Z.1aN.Z..cZ..
    7ea5:	635a b111 5ab3 295a a500 612c 005a b500     cZ..Z.)Z..a,.Z..
    7eb5:	5aa5 8a5a b52a 61b8 065a b50a 6133 0b5a     Z..Z.*a..Z..a3.Z
    7ec5:	b009 635a 400f 5aa0 665a b026 5a41 a25a     ..cZ@.Z.fZ.&ZA.Z
    7ed5:	a1e6 5ab1 255a b232 612c 005a b309 5ab3     ..Z.%Z.2a,.Z..Z.
    7ee5:	295a a598 5ab5 2d61 4603 5aa1 c15a b212     )Z..Z.-aF.Z..Z..
    7ef5:	635a a19d 635a a17c 614e 045a b006 5aa1     cZ..cZ.|aN.Z..Z.
    7f05:	5d63 5aa1 8a5a b122 635a 400c 5aa0 8a5a     ]cZ..Z."cZ@.Z..Z
    7f15:	b026 5aa1 5a5a b232 5ab3 095a b422 635a     .&Z.ZZ.2Z..Z."cZ
    7f25:	a12b 5ab2 1263 5aa1 fd5a b121 5ab7 125a     .+Z..cZ..Z.!Z..Z
    7f35:	b811 635a a1d4 614f 045a b615 6363 5ab1     ..cZ..aO.Z..ccZ.
    7f45:	015a b329 5ab4 025a b50d 5aa5 6c5a b52d     .Z.)Z..Z..Z.lZ.-
    7f55:	6156 0a5a b006 6132 0b5a 400d 5ab0 265a     aV.Z..a2.Z@.Z.&Z
    7f65:	b232 5ab3 0963 5ab2 1261 eb11 5ab0 0661     .2Z..cZ..a..Z..a
    7f75:	2c00 5aa0 225a b026 5aa1 e65a b125 5ab2     ,.Z."Z.&Z..Z.%Z.
    7f85:	325a a500 5ab5 005a a522 5ab5 265a 5309     2Z..Z..Z."Z.&ZS.
    7f95:	5aa6 e65a b635 5aa7 6c5a b735 5aa8 225a     Z..Z.5Z.lZ.5Z."Z
    7fa5:	b832 6146 035a a1c1 5ab2 1261 2c00 5aa8     .2aF.Z..Z..a,.Z.
    7fb5:	2361 4603 5aa1 9d63 5aa1 7c61 4e04 5aa1     #aF.Z..cZ.|aN.Z.
    7fc5:	5d63 5aa1 8a5a b122 635a a15a 5ab2 3263     ]cZ..Z."cZ.ZZ.2c
    7fd5:	5aa1 2b5a b212 635a a1fd 5ab1 2163 5aa1     Z.+Z..cZ..Z.!cZ.
    7fe5:	d461 4f04 5ab5 0663 5ab0 0663 5ab1 015a     .aO.Z..cZ..cZ..Z
    7ff5:	b232 5ab3 295a b52a 635a b212 635a b50a     .2Z.)Z.*cZ..cZ..
    8005:	61a4 0e5a 4011 5ac0 0c5a b026 5a41 805a     a..Z@.Z..Z.&ZA.Z
    8015:	a166 5ab1 325a b309 5aa5 985a b52d 635a     .fZ.2Z..Z..Z.-cZ
    8025:	a137 635a a10a 635a a1e0 5ab1 3161 4f04     .7cZ..cZ..Z.1aO.
    8035:	5aa1 bc63 5aa1 985a b50d 635a b111 5a41     Z..cZ..Z..cZ..ZA
    8045:	a25a a1e6 5ab1 255a b232 5aa5 225a b526     .Z..Z.%Z.2Z."Z.&
    8055:	635a a1c1 5ab2 1263 5aa1 9d63 5ab0 065a     cZ..Z..cZ..cZ..Z
    8065:	a17c 6122 045a a15d 635a a18a 5ab1 2261     .|a".Z.]cZ..Z."a
    8075:	2c00 5ab5 0661 4603 5aa1 5a61 2c00 5ab2     ,.Z..aF.Z.Za,.Z.
    8085:	325a b329 5ab5 2a61 4603 5aa1 2b5a b212     2Z.)Z.*aF.Z.+Z..
    8095:	635a a1fd 5ab1 2163 5aa1 d45a b50a 6133     cZ..Z.!cZ..Z..a3
    80a5:	0b5a 4007 5ac0 085a a098 5ab0 295a b101     .Z@.Z..Z..Z.)Z..
    80b5:	5a41 8061 2c00 5aa1 665a b132 5a45 005a     ZA.a,.Z.fZ.2ZE.Z
    80c5:	a28a 5ab2 325a b309 5aa5 6c5a b52d 6146     ..Z.2Z..Z.lZ.-aF
    80d5:	035a a137 635a a10a 635a a1e0 5ab1 3161     .Z.7cZ..cZ..Z.1a
    80e5:	4e04 5aa1 bc5a b50d 635a a198 635a b111     N.Z..Z..cZ..cZ..
    80f5:	5aa5 8a5a b52a 61a5 0e5a b50a 6363 5a41     Z..Z.*a..Z..ccZA
    8105:	a25a a1e6 5ab1 255a b212 5a45 0c5a a243     .Z..Z.%Z..ZE.Z.C
    8115:	5ab2 325a b329 5aa5 665a b52a 635a a1c1     Z.2Z.)Z.fZ.*cZ..
    8125:	5ab2 1263 5aa1 9d63 5aa1 7c61 4e04 5ab0     Z..cZ..cZ.|aN.Z.
    8135:	095a a15d 635a a18a 5ab1 2263 5a40 0a5a     .Z.]cZ..Z."cZ@.Z
    8145:	c00a 5aa0 815a b029 5aa1 5a5a b232 5ab3     ..Z..Z.)Z.ZZ.2Z.
    8155:	095a b50a 5aa5 8a5a b52a 635a a12b 5ab2     .Z..Z..Z.*cZ.+Z.
    8165:	1263 5aa1 fd5a b121 635a a1d4 5ab5 0a61     .cZ..Z.!cZ..Z..a
    8175:	330b 5ab1 015a 4180 5aa1 665a b132 5aa5     3.Z..ZA.Z.fZ.2Z.
    8185:	6c5a b52d 6146 035a a137 635a a10a 635a     lZ.-aF.Z.7cZ..cZ
    8195:	b009 5aa1 e05a b131 612c 005a b50d 6122     ..Z..Z.1a,.Z..a"
    81a5:	045a a1bc 635a a198 635a b111 5aa1 665a     .Z..cZ..cZ..Z.fZ
    81b5:	b132 612c 005a b329 5aa5 8a5a b52a 5ab6     .2a,.Z.)Z..Z.*Z.
    81c5:	155a b715 5ab8 1261 4603 5aa1 3763 5aa1     .Z..Z..aF.Z.7cZ.
    81d5:	0a5a b50a 635a a1e0 5ab1 3161 4f04 5aa1     .Z..cZ..Z.1aO.Z.
    81e5:	bc63 5aa1 9863 5ab1 115a 41a2 5aa1 e65a     .cZ..cZ..ZA.Z..Z
    81f5:	b125 5ab2 325a b309 612c 005a b329 5ab4     .%Z.2Z..a,.Z.)Z.
    8205:	225a a598 5ab5 2d5a 530c 5aa6 cb5a b635     "Z..Z.-ZS.Z..Z.5
    8215:	5a54 0d5a b735 5a55 0d5a a822 5ab8 3261     ZT.Z.5ZU.Z."Z.2a
    8225:	4603 5aa1 c15a b212 5aa8 2363 5aa1 9d63     F.Z..Z..Z.#cZ..c
    8235:	5aa1 7c61 4e04 5aa1 5d63 5aa1 8a5a b122     Z.|aN.Z.]cZ..Z."
    8245:	635a a15a 5ab2 325a b309 5ab4 0263 5aa1     cZ.ZZ.2Z..Z..cZ.
    8255:	2b5a b212 635a a1fd 5ab1 2163 5aa1 d461     +Z..cZ..Z.!cZ..a
    8265:	c107 5ab5 0d63 5ab1 015a b232 5ab4 225a     ..Z..cZ..Z.2Z."Z
    8275:	a56c 5ab5 2d63 5ab2 1261 1612 5ab2 325a     .lZ.-cZ..a..Z.2Z
    8285:	b329 5ab4 0263 5ab2 1261 ea11 5a40 0e5a     .)Z..cZ..a..Z@.Z
    8295:	a022 5ab0 2661 2c00 5aa1 e65a b125 5ab2     ."Z.&a,.Z..Z.%Z.
    82a5:	325a b309 5aa5 005a b500 5aa5 225a b526     2Z..Z..Z..Z."Z.&
    82b5:	5a53 0a5a a600 5ab6 005a a698 5ab6 355a     ZS.Z..Z..Z..Z.5Z
    82c5:	540b 5aa7 005a b700 5aa7 8a5a b732 5ab8     T.Z..Z..Z..Z.2Z.
    82d5:	1261 2d00 5a55 0b5a a822 5ab8 3261 1903     .a-.ZU.Z."Z.2a..
    82e5:	5aa1 c15a b212 612c 005a a823 6146 035a     Z..Z..a,.Z.#aF.Z
    82f5:	a19d 5aa7 8b61 4f04 5aa1 7c63 5aa1 5d63     ..Z..aO.Z.|cZ.]c
    8305:	5aa1 8a5a b122 635a a15a 5ab2 3263 5aa1     Z..Z."cZ.ZZ.2cZ.
    8315:	2b5a b212 635a a1fd 5ab1 2161 4e04 5aa1     +Z..cZ..Z.!aN.Z.
    8325:	d463 5ab0 0663 5ab5 0663 5ab1 015a b232     .cZ..cZ..cZ..Z.2
    8335:	5a4b 055a b329 5ab5 2a63 5ab2 1263 5ab5     ZK.Z.)Z.*cZ..cZ.
    8345:	0a61 a50e 5a40 0f5a b026 5a41 805a a166     .a..Z@.Z.&ZA.Z.f
    8355:	5ab1 325a b309 5aa5 985a b52d 635a a137     Z.2Z..Z..Z.-cZ.7
    8365:	635a a10a 614e 045a a1e0 5ab1 3163 5aa1     cZ..aN.Z..Z.1cZ.
    8375:	bc5a b50d 635a a198 635a b111 5a41 a25a     .Z..cZ..cZ..ZA.Z
    8385:	a1e6 5ab1 255a b232 5aa5 225a b526 5ab8     ..Z.%Z.2Z."Z.&Z.
    8395:	1263 5aa1 c15a b212 635a b006 5aa1 9d61     .cZ..Z..cZ..Z..a
    83a5:	4f04 5aa1 7c61 4603 5aa1 5d63 5aa1 8a5a     O.Z.|aF.Z.]cZ..Z
    83b5:	b122 612c 005a b506 6146 035a a15a 612c     ."a,.Z..aF.Z.Za,
    83c5:	005a b232 5ab3 295a b52a 6146 035a a12b     .Z.2Z.)Z.*aF.Z.+
    83d5:	612c 005a b212 6146 035a a1fd 5ab1 2161     a,.Z..aF.Z..Z.!a
    83e5:	4e04 5aa1 d45a b50a 6156 0a5a 400a 5aa0     N.Z..Z..aV.Z@.Z.
    83f5:	985a b029 5ab1 0161 2c00 5a41 805a a166     .Z.)Z..a,.ZA.Z.f
    8405:	5ab1 325a 4500 5aa2 8a5a b232 5ab3 095a     Z.2ZE.Z..Z.2Z..Z
    8415:	a56c 5ab5 2d61 4603 5aa1 3763 5aa1 0a61     .lZ.-aF.Z.7cZ..a
    8425:	4f04 5aa1 e05a b131 635a a1bc 635a a198     O.Z..Z.1cZ..cZ..
    8435:	5ab5 0d63 5ab1 115a a58a 5ab5 2a61 a40e     Z..cZ..Z..Z.*a..
    8445:	5ab5 0a63 635a 41a2 5aa1 e65a b125 5ab2     Z..ccZA.Z..Z.%Z.
    8455:	125a 450c 5aa2 435a b232 5ab3 295a a566     .ZE.Z.CZ.2Z.)Z.f
    8465:	5ab5 2a63 5aa1 c15a b212 635a a19d 614f     Z.*cZ..Z..cZ..aO
    8475:	045a a17c 635a a15d 635a a18a 5ab1 2263     .Z.|cZ.]cZ..Z."c
    8485:	5aa1 5a5a b232 5ab3 095a a500 5ab5 005a     Z.ZZ.2Z..Z..Z..Z
    8495:	a58a 5ab5 2a63 5aa1 2b5a b212 635a a1fd     ..Z.*cZ.+Z..cZ..
    84a5:	5ab1 2161 4e04 5ab0 095a a1d4 635a b50a     Z.!aN.Z..Z..cZ..
    84b5:	61b8 065a 400e 612c 005a a081 5ab0 295a     a..Z@.a,.Z..Z.)Z
    84c5:	b101 5a41 805a a166 5ab1 325a a5e6 5ab5     ..ZA.Z.fZ.2Z..Z.
    84d5:	2d61 4603 5aa1 3763 5aa1 0a61 4f04 5aa1     -aF.Z.7cZ..aO.Z.
    84e5:	e05a b131 635a a1bc 5ab5 0d63 5aa1 9863     .Z.1cZ..Z..cZ..c
    84f5:	5ab1 115a b329 612c 005a a58a 5ab5 2a61     Z..Z.)a,.Z..Z.*a
    8505:	b806 5ab5 0a61 c007 5ab0 0963 635a 4012     ..Z..a..Z..ccZ@.
    8515:	5ac0 0c5a a066 5ab0 265a 41a2 5aa1 e65a     Z..Z.fZ.&ZA.Z..Z
    8525:	b125 5ab2 3261 2c00 5ab3 095a b329 5aa5     .%Z.2a,.Z..Z.)Z.
    8535:	225a b52e 6146 035a a1c1 5ab2 1263 5aa1     "Z..aF.Z..Z..cZ.
    8545:	9d61 4f04 5aa1 7c63 5ab0 065a a15d 635a     .aO.Z.|cZ..Z.]cZ
    8555:	a18a 5ab1 2263 5a40 0e5a c00a 5aa0 8a5a     ..Z."cZ@.Z..Z..Z
    8565:	b026 5aa1 5a5a b232 5ab3 095a b422 635a     .&Z.ZZ.2Z..Z."cZ
    8575:	a12b 5ab2 1263 5aa1 fd5a b121 614e 045a     .+Z..cZ..Z.!aN.Z
    8585:	a1d4 6156 0a5a b101 5ab3 295a b402 5ab5     ..aV.Z..Z.)Z..Z.
    8595:	0e5a a5e6 5ab5 2d61 330b 5ab0 0661 560a     .Z..Z.-a3.Z..aV.
    85a5:	5ab0 265a b232 5ab3 095a b615 5ab7 1263     Z.&Z.2Z..Z..Z..c
    85b5:	5ab2 1261 060b 5ab0 0663 635a 4013 5ac0     Z..a..Z..ccZ@.Z.
    85c5:	0c5a a022 5ab0 2661 2c00 5aa1 e65a b125     .Z."Z.&a,.Z..Z.%
    85d5:	5ab2 325a a500 5ab5 005a a522 5ab5 265a     Z.2Z..Z..Z."Z.&Z
    85e5:	5309 5ab6 355a a766 5ab7 325a 550a 5aa8     S.Z.5Z.fZ.2ZU.Z.
    85f5:	e65a b831 6146 035a a1c1 5ab2 1261 2c00     .Z.1aF.Z..Z..a,.
    8605:	5aa7 6761 4603 5aa1 9d61 4f04 5aa1 7c63     Z.gaF.Z..aO.Z.|c
    8615:	5aa1 5d63 5aa1 8a5a b122 635a a15a 5ab2     Z.]cZ..Z."cZ.ZZ.
    8625:	3263 5aa1 2b5a b212 635a a1fd 5ab1 2161     2cZ.+Z..cZ..Z.!a
    8635:	4e04 5aa1 d463 635a b506 635a b006 5ab1     N.Z..ccZ..cZ..Z.
    8645:	015a b232 5ab3 295a b52a 635a b212 5ab5     .Z.2Z.)Z.*cZ..Z.
    8655:	0a61 1712 5a40 115a b026 5a41 805a a166     .a..Z@.Z.&ZA.Z.f
    8665:	5ab1 325a b309 5aa5 985a b52d 635a a137     Z.2Z..Z..Z.-cZ.7
    8675:	635a a10a 614e 045a a1e0 5ab1 3163 5aa1     cZ..aN.Z..Z.1cZ.
    8685:	bc63 5aa1 985a b50d 635a b111 5a41 a25a     .cZ..Z..cZ..ZA.Z
    8695:	a1e6 5ab1 255a b232 5aa5 225a b526 635a     ..Z.%Z.2Z."Z.&cZ
    86a5:	a1c1 5ab2 1263 5aa1 9d61 4f04 5aa1 7c63     ..Z..cZ..aO.Z.|c
    86b5:	5ab0 065a a15d 6145 035a a18a 5ab1 2261     Z..Z.]aE.Z..Z."a
    86c5:	2d00 5ab5 0661 4503 5aa1 5a61 2d00 5ab2     -.Z..aE.Z.Za-.Z.
    86d5:	325a b329 5ab5 2a61 4503 5aa1 2b61 2d00     2Z.)Z.*aE.Z.+a-.
    86e5:	5ab2 1261 2204 5aa1 fd5a b121 635a a1d4     Z..a".Z..Z.!cZ..
    86f5:	5ab5 0a61 560a 5a40 0c5a c00a 5aa0 985a     Z..aV.Z@.Z..Z..Z
    8705:	b029 5ab1 0161 2c00 5a41 805a a166 5ab1     .)Z..a,.ZA.Z.fZ.
    8715:	325a 4500 5aa2 8a5a b232 5ab3 095a a56c     2ZE.Z..Z.2Z..Z.l
    8725:	5ab5 2d61 4603 5aa1 3761 4e04 5aa1 0a63     Z.-aF.Z.7aN.Z..c
    8735:	5aa1 e05a b131 635a a1bc 635a a198 635a     Z..Z.1cZ..cZ..cZ
    8745:	b111 5ab5 0d5a a58a 5ab5 2a61 a50e 5ab5     ..Z..Z..Z.*a..Z.
    8755:	0a63 635a 41a2 5aa1 e65a b125 5ab2 125a     .ccZA.Z..Z.%Z..Z
    8765:	450c 5aa2 435a b232 5ab3 295a a566 5ab5     E.Z.CZ.2Z.)Z.fZ.
    8775:	2a63 5aa1 c15a b212 614e 045a a19d 635a     *cZ..Z..aN.Z..cZ
    8785:	a17c 635a a15d 635a a18a 5ab1 2263 5aa1     .|cZ.]cZ..Z."cZ.
    8795:	5a5a b232 5ab3 095a b50a 5aa5 8a5a b52a     ZZ.2Z..Z..Z..Z.*
    87a5:	635a a12b 5ab2 1261 4f04 5aa1 fd5a b121     cZ.+Z..aO.Z..Z.!
    87b5:	635a a1d4 5ab5 0a63 5ab0 0963 635a a081     cZ..Z..cZ..ccZ..
    87c5:	5ab0 295a b101 5a41 805a a166 5ab1 325a     Z.)Z..ZA.Z.fZ.2Z
    87d5:	a598 5ab5 2d61 4603 5aa1 3761 4e04 5aa1     ..Z.-aF.Z.7aN.Z.
    87e5:	0a63 5aa1 e05a b131 635a a1bc 635a a198     .cZ..Z.1cZ..cZ..
    87f5:	635a b111 5ab3 2961 2c00 5aa5 005a b500     cZ..Z.)a,.Z..Z..
    8805:	5aa5 8a5a b52a 6195 075a b50a 61c8 0d5a     Z..Z.*a..Z..a..Z
    8815:	b009 5a40 105a c00c 5aa0 665a b026 5a41     ..Z@.Z..Z.fZ.&ZA
    8825:	a25a a1e6 5ab1 2561 2c00 5ab2 325a b309     .Z..Z.%a,.Z.2Z..
    8835:	5ab3 295a a56c 5ab5 2d61 4603 5aa1 c15a     Z.)Z.lZ.-aF.Z..Z
    8845:	b212 614e 045a a19d 635a a17c 635a a15d     ..aN.Z..cZ.|cZ.]
    8855:	635a b006 5aa1 8a5a b122 635a 400d 5ac0     cZ..Z..Z."cZ@.Z.
    8865:	0a5a a08a 5ab0 265a a15a 5ab2 325a b309     .Z..Z.&Z.ZZ.2Z..
    8875:	612c 005a b422 6146 035a a12b 5ab2 1261     a,.Z."aF.Z.+Z..a
    8885:	4f04 5aa1 fd5a b121 635a a1d4 6156 0a5a     O.Z..Z.!cZ..aV.Z
    8895:	b101 5ab3 295a b402 6132 0b5a b006 6363     ..Z.)Z..a2.Z..cc
    88a5:	5ab8 1163 5ab0 265a b309 5ab6 1563 5ab7     Z..cZ.&Z..Z..cZ.
    88b5:	1261 070b 5ab0 0663 5ab5 0d63 5a40 0e5a     .a..Z..cZ..cZ@.Z
    88c5:	a022 612c 005a b026 5aa1 e65a b125 5ab2     ."a,.Z.&Z..Z.%Z.
    88d5:	325a a522 5ab5 265a 530a 5aa6 6c5a b635     2Z."Z.&ZS.Z.lZ.5
    88e5:	5a54 0a5a a722 5ab7 325a 550c 5aa8 cb5a     ZT.Z."Z.2ZU.Z..Z
    88f5:	b831 6146 035a a1c1 5ab2 1261 2c00 5aa7     .1aF.Z..Z..a,.Z.
    8905:	2361 2204 5aa1 9d63 5aa1 7c63 5aa1 5d63     #a".Z..cZ.|cZ.]c
    8915:	5aa1 8a5a b122 635a a15a 5ab2 3263 5aa1     Z..Z."cZ.ZZ.2cZ.
    8925:	2b5a b212 614f 045a a1fd 5ab1 2163 5aa1     +Z..aO.Z..Z.!cZ.
    8935:	d463 5ab0 065a b506 6363 5ab1 015a b232     .cZ..Z..ccZ..Z.2
    8945:	5a4b 065a b329 5ab5 2a63 5ab2 125a b50a     ZK.Z.)Z.*cZ..Z..
    8955:	6116 125a 400d 5ab0 265a 4180 5aa1 665a     a..Z@.Z.&ZA.Z.fZ
    8965:	b132 5ab3 095a a598 5ab5 2d63 5aa1 3761     .2Z..Z..Z.-cZ.7a
    8975:	4f04 5aa1 0a63 5aa1 e05a b131 635a a1bc     O.Z..cZ..Z.1cZ..
    8985:	635a a198 5ab5 0d63 5ab1 115a 41a2 5aa1     cZ..Z..cZ..ZA.Z.
    8995:	e65a b125 5ab2 325a a522 5ab5 2663 5aa1     .Z.%Z.2Z."Z.&cZ.
    89a5:	c15a b212 614e 045a a19d 635a b006 5aa1     .Z..aN.Z..cZ..Z.
    89b5:	7c63 5aa1 5d61 4603 5aa1 8a5a b122 635a     |cZ.]aF.Z..Z."cZ
    89c5:	a15a 612c 005a b232 5ab3 295a b506 5ab5     .Za,.Z.2Z.)Z..Z.
    89d5:	2a61 4603 5aa1 2b61 2c00 5ab2 1261 2304     *aF.Z.+a,.Z..a#.
    89e5:	5aa1 fd5a b121 635a a1d4 5ab5 0a61 560a     Z..Z.!cZ..Z..aV.
    89f5:	5a40 095a a098 5ab0 295a b101 612c 005a     Z@.Z..Z.)Z..a,.Z
    8a05:	4180 5aa1 665a b132 5a45 005a a28a 5ab2     A.Z.fZ.2ZE.Z..Z.
    8a15:	325a b309 5aa5 6c5a b52d 6146 035a a137     2Z..Z.lZ.-aF.Z.7
    8a25:	614e 045a a10a 635a a1e0 5ab1 3163 5aa1     aN.Z..cZ..Z.1cZ.
    8a35:	bc5a b50d 635a a198 635a b111 5aa5 8a5a     .Z..cZ..cZ..Z..Z
    8a45:	b52a 6133 0b5a b50a 6156 0a5a 41a2 5aa1     .*a3.Z..aV.ZA.Z.
    8a55:	e65a b125 5ab2 125a 450c 5aa2 435a b232     .Z.%Z..ZE.Z.CZ.2
    8a65:	5ab3 295a a566 5ab5 2a63 5aa1 c15a b212     Z.)Z.fZ.*cZ..Z..
    8a75:	614e 045a a19d 635a a17c 635a a15d 635a     aN.Z..cZ.|cZ.]cZ
    8a85:	a18a 5ab1 225a b50a 635a a15a 5ab2 325a     ..Z."Z..cZ.ZZ.2Z
    8a95:	b309 5aa5 8a5a b52a 635a a12b 5ab2 1261     ..Z..Z.*cZ.+Z..a
    8aa5:	4f04 5aa1 fd5a b121 635a a1d4 5ab5 0a63     O.Z..Z.!cZ..Z..c
    8ab5:	5ab0 0963 635a 400d 5aa0 815a b029 5ab1     Z..ccZ@.Z..Z.)Z.
    8ac5:	015a 4180 5aa1 665a b132 5aa5 665a b52a     .ZA.Z.fZ.2Z.fZ.*
    8ad5:	6146 035a a137 614e 045a a10a 635a a1e0     aF.Z.7aN.Z..cZ..
    8ae5:	5ab1 3163 5aa1 bc63 5aa1 985a b50a 635a     Z.1cZ..cZ..Z..cZ
    8af5:	b111 5ab3 2961 2c00 5aa5 8a5a b52a 61eb     ..Z.)a,.Z..Z.*a.
    8b05:	115a b009 635a 400f 5aa0 665a b026 5a41     .Z..cZ@.Z.fZ.&ZA
    8b15:	a25a a1e6 5ab1 2561 2c00 5ab2 325a b309     .Z..Z.%a,.Z.2Z..
    8b25:	5ab3 295a b50a 5aa5 665a b52a 6122 045a     Z.)Z..Z.fZ.*a".Z
    8b35:	a1c1 5ab2 1263 5aa1 9d63 5aa1 7c63 5ab0     ..Z..cZ..cZ.|cZ.
    8b45:	065a a15d 635a a18a 5ab1 2263 5a40 0c5a     .Z.]cZ..Z."cZ@.Z
    8b55:	a08a 5ab0 265a a15a 5ab2 325a b309 612c     ..Z.&Z.ZZ.2Z..a,
    8b65:	005a b422 6123 045a a12b 5ab2 1263 5aa1     .Z."a#.Z.+Z..cZ.
    8b75:	fd5a b121 635a a1d4 635a b50a 6363 5ab1     .Z.!cZ..cZ..ccZ.
    8b85:	015a b329 5ab4 025a a58a 5ab5 2a61 c007     .Z.)Z..Z..Z.*a..
    8b95:	5ab7 125a b811 635a b006 635a b615 6363     Z..Z..cZ..cZ..cc
    8ba5:	5a40 0d5a b026 5ab2 325a b309 614f 045a     Z@.Z.&Z.2Z..aO.Z
    8bb5:	b212 610d 115a b006 612d 005a a022 5ab0     ..a..Z..a-.Z."Z.
    8bc5:	265a a1e6 5ab1 255a b232 5ab5 0a5a a522     &Z..Z.%Z.2Z..Z."
    8bd5:	5ab5 265a 530c 5aa6 985a b635 5aa7 8a5a     Z.&ZS.Z..Z.5Z..Z
    8be5:	b732 5a55 0a5a a822 5ab8 3261 2204 5aa1     .2ZU.Z."Z.2a".Z.
    8bf5:	c15a b212 612c 005a a78b 5aa8 2361 4603     .Z..a,.Z..Z.#aF.
    8c05:	5aa1 9d63 5aa1 7c63 5aa1 5d63 5aa1 8a5a     Z..cZ.|cZ.]cZ..Z
    8c15:	b122 635a a15a 5ab2 3261 4e04 5aa1 2b5a     ."cZ.ZZ.2aN.Z.+Z
    8c25:	b212 635a a1fd 5ab1 2163 5aa1 d463 635a     ..cZ..Z.!cZ..ccZ
    8c35:	b006 5ab5 0663 5ab1 015a b232 5ab3 295a     ..Z..cZ..Z.2Z.)Z
    8c45:	b52a 614f 045a b212 635a b50a 61c8 0d5a     .*aO.Z..cZ..a..Z
    8c55:	4011 5ac0 0c5a b026 5a41 805a a166 5ab1     @.Z..Z.&ZA.Z.fZ.
    8c65:	325a b309 5aa5 985a b52d 614e 045a a137     2Z..Z..Z.-aN.Z.7
    8c75:	635a a10a 635a a1e0 5ab1 3163 5aa1 bc63     cZ..cZ..Z.1cZ..c
    8c85:	5aa1 985a b50d 635a b111 5a41 a25a a1e6     Z..Z..cZ..ZA.Z..
    8c95:	5ab1 255a b232 5aa5 225a b526 614f 045a     Z.%Z.2Z."Z.&aO.Z
    8ca5:	a1c1 5ab2 1263 5aa1 9d63 5ab0 065a a17c     ..Z..cZ..cZ..Z.|
    8cb5:	635a a15d 6146 035a a18a 612c 005a b122     cZ.]aF.Z..a,.Z."
    8cc5:	6146 035a a15a 612c 005a b232 5ab3 295a     aF.Z.Za,.Z.2Z.)Z
    8cd5:	b506 5ab5 2a61 2204 5aa1 2b61 2c00 5ab2     ..Z.*a".Z.+a,.Z.
    8ce5:	1261 4603 5aa1 fd5a b121 612c 005a b50a     .aF.Z..Z.!a,.Z..
    8cf5:	6146 035a a1d4 6156 0a5a 4007 5ac0 085a     aF.Z..aV.Z@.Z..Z
    8d05:	a098 5ab0 295a b101 612c 005a 4180 5aa1     ..Z.)Z..a,.ZA.Z.
    8d15:	665a b132 5a45 005a a28a 5ab2 325a b309     fZ.2ZE.Z..Z.2Z..
    8d25:	5aa5 6c5a b52d 6123 045a a137 635a a10a     Z.lZ.-a#.Z.7cZ..
    8d35:	635a a1e0 5ab1 3163 5aa1 bc5a b50d 635a     cZ..Z.1cZ..Z..cZ
    8d45:	a198 635a b111 5aa5 985a b52d 61c0 075a     ..cZ..Z..Z.-a..Z
    8d55:	b50d 61c8 0d5a 41a2 5aa1 e65a b125 5ab2     ..a..ZA.Z..Z.%Z.
    8d65:	125a 450c 5aa2 435a b232 5ab3 295a b52d     .ZE.Z.CZ.2Z.)Z.-
    8d75:	614f 045a a1c1 5ab2 1263 5aa1 9d63 5aa1     aO.Z..Z..cZ..cZ.
    8d85:	7c5a b50d 635a b009 5aa1 5d63 5aa1 8a5a     |Z..cZ..Z.]cZ..Z
    8d95:	b122 635a 400a 5ac0 0a5a a081 5ab0 295a     ."cZ@.Z..Z..Z.)Z
    8da5:	a15a 5ab2 325a b309 5ab5 2d61 4e04 5aa1     .ZZ.2Z..Z.-aN.Z.
    8db5:	2b5a b212 635a a1fd 5ab1 215a b50d 635a     +Z..cZ..Z.!Z..cZ
    8dc5:	a1d4 6156 0a5a b101 5a41 805a a166 5ab1     ..aV.Z..ZA.Z.fZ.
    8dd5:	325a b52d 6123 045a a137 635a a10a 635a     2Z.-a#.Z.7cZ..cZ
    8de5:	b009 612c 005a a1e0 5ab1 3161 4603 5aa1     ..a,.Z..Z.1aF.Z.
    8df5:	bc61 2c00 5ab5 0d61 4603 5aa1 9863 5ab1     .a,.Z..aF.Z..cZ.
    8e05:	115a a166 612c 005a b132 5ab3 295a a522     .Z.fa,.Z.2Z.)Z."
    8e15:	5ab5 2a61 2204 5aa1 3763 5aa1 0a5a b50a     Z.*a".Z.7cZ..Z..
    8e25:	635a a1e0 5ab1 3163 5aa1 bc63 5aa1 9863     cZ..Z.1cZ..cZ..c
    8e35:	5ab1 115a 41a2 5aa1 e65a b125 5ab2 3261     Z..ZA.Z..Z.%Z.2a
    8e45:	2c00 5ab3 095a b329 5ab4 225a a56c 5ab5     ,.Z..Z.)Z."Z.lZ.
    8e55:	2d61 2304 5aa1 c15a b212 635a a19d 635a     -a#.Z..Z..cZ..cZ
    8e65:	a17c 5ab5 0d63 5aa1 5d63 5aa1 8a5a b122     .|Z..cZ.]cZ..Z."
    8e75:	635a a15a 5ab2 325a b309 5ab4 025a a522     cZ.ZZ.2Z..Z..Z."
    8e85:	5ab5 2a61 4e04 5aa1 2b5a b212 635a a1fd     Z.*aN.Z.+Z..cZ..
    8e95:	5ab1 215a b50a 635a a1d4 6156 0a5a b101     Z.!Z..cZ..aV.Z..
    8ea5:	5ab2 325a b422 5ab5 2a5a b615 5ab7 125a     Z.2Z."Z.*Z..Z..Z
    8eb5:	b812 614f 045a b212 6156 0a5a b50a 6363     ..aO.Z..aV.Z..cc
    8ec5:	5ab2 325a b329 5ab4 0261 4e04 5ab2 1261     Z.2Z.)Z..aN.Z..a
    8ed5:	eb11 5a40 0e5a a022 612c 005a b026 5aa1     ..Z@.Z."a,.Z.&Z.
    8ee5:	e65a b125 5ab2 325a b309 5ac5 015a ea00     .Z.%Z.2Z..Z..Z..
    8ef5:	5a4a 005a 6af8 5a8a b25a 2a0c 5a6d d65a     ZJ.Zj.Z..Z*.Zm.Z
    8f05:	8d44 5a2d 005a b532 612c 005a b635 5aa7     .DZ-.Z.2a,.Z.5Z.
    8f15:	8a5a b732 5aa8 225a b832 611a 035a a1c1     .Z.2Z."Z.2a..Z..
    8f25:	5ab2 1261 2c00 5aa7 8b5a a823 6146 035a     Z..a,.Z..Z.#aF.Z
    8f35:	a19d 635a a17c 635a a15d 635a a18a 5ab1     ..cZ.|cZ.]cZ..Z.
    8f45:	2261 4e04 5aa1 5a5a b232 5ab5 1263 5aa1     "aN.Z.ZZ.2Z..cZ.
    8f55:	2b5a b212 635a a1fd 5ab1 2163 5aa1 d463     +Z..cZ..Z.!cZ..c
    8f65:	5ab0 0661 c107 5ab1 015a b232 5a4b 055a     Z..a..Z..Z.2ZK.Z
    8f75:	b329 5aa5 665a b532 635a b212 6116 125a     .)Z.fZ.2cZ..a..Z
    8f85:	400f 5ab0 265a 4180 5aa1 665a b132 5ab3     @.Z.&ZA.Z.fZ.2Z.
    8f95:	095a b512 635a a137 635a a10a 635a a1e0     .Z..cZ.7cZ..cZ..
    8fa5:	5ab1 3163 5aa1 bc63 5aa1 9861 4f04 5ab1     Z.1cZ..cZ..aO.Z.
    8fb5:	115a 41a2 5aa1 e65a b125 5ab2 325a a58a     .ZA.Z..Z.%Z.2Z..
    8fc5:	5ab5 3263 5aa1 c15a b212 635a b006 5aa1     Z.2cZ..Z..cZ..Z.
    8fd5:	9d63 5aa1 7c63 5aa1 5d61 4603 5aa1 8a61     .cZ.|cZ.]aF.Z..a
    8fe5:	2c00 5ab1 2261 2204 5aa1 5a61 2c00 5ab2     ,.Z."a".Z.Za,.Z.
    8ff5:	325a b329 5ab5 1261 4603 5aa1 2b61 2c00     2Z.)Z..aF.Z.+a,.
    9005:	5ab2 1261 4603 5aa1 fd5a b121 635a a1d4     Z..aF.Z..Z.!cZ..
    9015:	6133 0b5a 400a 5aa0 985a b029 5ab1 0161     a3.Z@.Z..Z.)Z..a
    9025:	2c00 5a41 805a a166 5ab1 325a 4500 5aa2     ,.ZA.Z.fZ.2ZE.Z.
    9035:	8a5a b232 5ab3 095a a522 5ab5 3661 4603     .Z.2Z..Z."Z.6aF.
    9045:	5aa1 3763 5aa1 0a63 5aa1 e05a b131 635a     Z.7cZ..cZ..Z.1cZ
    9055:	a1bc 635a a198 614e 045a b111 5ab5 1661     ..cZ..aN.Z..Z..a
    9065:	8915 5a41 a25a a1e6 5ab1 255a b212 5a45     ..ZA.Z..Z.%Z..ZE
    9075:	0c5a a243 5ab2 325a b329 5aa5 815a b535     .Z.CZ.2Z.)Z..Z.5
    9085:	635a a1c1 5ab2 1263 5aa1 9d63 5aa1 7c63     cZ..Z..cZ..cZ.|c
    9095:	5aa1 5d63 5aa1 8a5a b122 614e 045a a15a     Z.]cZ..Z."aN.Z.Z
    90a5:	5ab2 325a b309 5ab5 1563 5aa1 2b5a b212     Z.2Z..Z..cZ.+Z..
    90b5:	635a a1fd 5ab1 2163 5ab0 095a a1d4 6133     cZ..Z.!cZ..Z..a3
    90c5:	0b5a 400e 5aa0 815a b029 5ab1 015a 4180     .Z@.Z..Z.)Z..ZA.
    90d5:	5aa1 665a b132 5aa5 8a5a b532 6145 035a     Z.fZ.2Z..Z.2aE.Z
    90e5:	a137 635a a10a 635a a1e0 5ab1 3163 5aa1     .7cZ..cZ..Z.1cZ.
    90f5:	bc63 5aa1 9861 4f04 5ab1 1161 2c00 5ab3     .cZ..aO.Z..a,.Z.
    9105:	295a b512 619c 0d5a b009 61c0 075a 4012     )Z..a..Z..a..Z@.
    9115:	5ac0 0c5a a066 5ab0 265a 41a2 5aa1 e65a     Z..Z.fZ.&ZA.Z..Z
    9125:	b125 612d 005a b232 5ab3 095a b329 5aa5     .%a-.Z.2Z..Z.)Z.
    9135:	985a b535 6145 035a a1c1 5ab2 1263 5aa1     .Z.5aE.Z..Z..cZ.
    9145:	9d63 5aa1 7c63 5ab0 065a a15d 635a a18a     .cZ.|cZ..Z.]cZ..
    9155:	5ab1 2261 4f04 5a40 0e5a c00a 5aa0 8a5a     Z."aO.Z@.Z..Z..Z
    9165:	b026 5aa1 5a5a b232 5ab3 0961 2c00 5ab4     .&Z.ZZ.2Z..a,.Z.
    9175:	225a b515 6146 035a a12b 5ab2 1263 5aa1     "Z..aF.Z.+Z..cZ.
    9185:	fd5a b121 635a a1d4 6132 0b5a b101 5ab3     .Z.!cZ..a2.Z..Z.
    9195:	295a b402 5aa5 e65a b535 6156 0a5a b006     )Z..Z..Z.5aV.Z..
    91a5:	6363 5ab6 155a b712 5ab8 1261 4f04 5ab0     ccZ..Z..Z..aO.Z.
    91b5:	265a b232 5ab3 095a b515 635a b212 6156     &Z.2Z..Z..cZ..aV
    91c5:	0a5a b006 6194 075a 4013 5ac0 0c61 2c00     .Z..a..Z@.Z..a,.
    91d5:	5aa0 225a b026 5aa1 e65a b125 5ab2 325a     Z."Z.&Z..Z.%Z.2Z
    91e5:	a522 5ab5 325a 530a 5ab6 355a a766 5ab7     ."Z.2ZS.Z.5Z.fZ.
    91f5:	325a a8e6 5ab8 3161 4603 5aa1 c161 2c00     2Z..Z.1aF.Z..a,.
    9205:	5ab2 125a a767 6146 035a a19d 635a a17c     Z..Z.gaF.Z..cZ.|
    9215:	635a a15d 635a a18a 5ab1 2261 4f04 5aa1     cZ.]cZ..Z."aO.Z.
    9225:	5a5a b232 5ab5 1263 5aa1 2b5a b212 635a     ZZ.2Z..cZ.+Z..cZ
    9235:	a1fd 5ab1 2163 5aa1 d461 320b 5ab0 065a     ..Z.!cZ..a2.Z..Z
    9245:	b101 5ab2 325a b329 5aa5 6661 2c00 5ab5     ..Z.2Z.)Z.fa,.Z.
    9255:	3261 4603 5ab2 1261 1712 5a40 115a b026     2aF.Z..a..Z@.Z.&
    9265:	5a41 805a a166 5ab1 325a b309 5ab5 1263     ZA.Z.fZ.2Z..Z..c
    9275:	5aa1 3763 5aa1 0a63 5aa1 e05a b131 635a     Z.7cZ..cZ..Z.1cZ
    9285:	a1bc 635a a198 614e 045a b111 5a41 a25a     ..cZ..aN.Z..ZA.Z
    9295:	a1e6 5ab1 255a b232 5aa5 8a5a b532 635a     ..Z.%Z.2Z..Z.2cZ
    92a5:	a1c1 5ab2 1263 5aa1 9d63 5aa1 7c63 5ab0     ..Z..cZ..cZ.|cZ.
    92b5:	065a a15d 635a a18a 5ab1 2261 2304 5aa1     .Z.]cZ..Z."a#.Z.
    92c5:	5a61 2c00 5ab2 325a b329 5ab5 1261 4603     Za,.Z.2Z.)Z..aF.
    92d5:	5aa1 2b61 2c00 5ab2 1261 4603 5aa1 fd5a     Z.+a,.Z..aF.Z..Z
    92e5:	b121 635a a1d4 6132 0b5a 400c 5ac0 0a5a     .!cZ..a2.Z@.Z..Z
    92f5:	a098 5ab0 2961 2c00 5ab1 015a 4180 5aa1     ..Z.)a,.Z..ZA.Z.
    9305:	665a b132 5a45 005a a28a 5ab2 325a b309     fZ.2ZE.Z..Z.2Z..
    9315:	5aa5 225a b536 6146 035a a137 635a a10a     Z."Z.6aF.Z.7cZ..
    9325:	635a a1e0 5ab1 3163 5aa1 bc61 4f04 5aa1     cZ..Z.1cZ..aO.Z.
    9335:	9863 5ab1 115a b516 6188 155a 41a2 5aa1     .cZ..Z..a..ZA.Z.
    9345:	e65a b125 5ab2 125a 450c 5aa2 435a b232     .Z.%Z..ZE.Z.CZ.2
    9355:	5ab3 295a a581 5ab5 3563 5aa1 c15a b212     Z.)Z..Z.5cZ..Z..
    9365:	635a a19d 635a a17c 635a a15d 614f 045a     cZ..cZ.|cZ.]aO.Z
    9375:	a18a 5ab1 2263 5aa1 5a5a b232 5ab3 095a     ..Z."cZ.ZZ.2Z..Z
    9385:	b515 635a a12b 5ab2 1263 5aa1 fd5a b121     ..cZ.+Z..cZ..Z.!
    9395:	635a a1d4 635a b009 61c0 075a a081 5ab0     cZ..cZ..a..Z..Z.
    93a5:	295a b101 5a41 805a a166 5ab1 325a a58a     )Z..ZA.Z.fZ.2Z..
    93b5:	5ab5 3263 5aa1 3761 4603 5aa1 0a63 5aa1     Z.2cZ.7aF.Z..cZ.
    93c5:	e05a b131 635a a1bc 614f 045a a198 635a     .Z.1cZ..aO.Z..cZ
    93d5:	b111 612c 005a b329 5ab5 1261 5c15 5ab0     ..a,.Z.)Z..a\.Z.
    93e5:	095a 4010 5ac0 0c5a a066 5ab0 265a 41a2     .Z@.Z..Z.fZ.&ZA.
    93f5:	5aa1 e661 2c00 5ab1 255a b232 5ab3 095a     Z..a,.Z.%Z.2Z..Z
    9405:	b329 5aa5 985a b535 6146 035a a1c1 5ab2     .)Z..Z.5aF.Z..Z.
    9415:	1263 5aa1 9d63 5aa1 7c63 5aa1 5d61 4f04     .cZ..cZ.|cZ.]aO.
    9425:	5ab0 065a a18a 5ab1 2263 5a40 0d5a c00a     Z..Z..Z."cZ@.Z..
    9435:	5aa0 8a5a b026 5aa1 5a5a b232 5ab3 0961     Z..Z.&Z.ZZ.2Z..a
    9445:	2c00 5ab4 225a b515 6146 035a a12b 5ab2     ,.Z."Z..aF.Z.+Z.
    9455:	1263 5aa1 fd5a b121 635a a1d4 6132 0b5a     .cZ..Z.!cZ..a2.Z
    9465:	b101 5ab3 295a b402 5aa5 e65a b535 6156     ..Z.)Z..Z..Z.5aV
    9475:	0a5a b006 61c1 075a b615 5ab8 1163 5ab0     .Z..a..Z..Z..cZ.
    9485:	265a b309 5ab5 155a b712 61c8 0d5a b006     &Z..Z..Z..a..Z..
    9495:	6194 075a 400e 612c 005a a022 5ab0 265a     a..Z@.a,.Z."Z.&Z
    94a5:	a1e6 5ab1 255a b232 5aa5 225a b532 5a53     ..Z.%Z.2Z."Z.2ZS
    94b5:	085a a66c 5ab6 355a a722 5ab7 325a 550b     .Z.lZ.5Z."Z.2ZU.
    94c5:	5aa8 cb5a b831 6146 035a a1c1 612c 005a     Z..Z.1aF.Z..a,.Z
    94d5:	b212 5aa7 2361 4603 5aa1 9d63 5aa1 7c63     ..Z.#aF.Z..cZ.|c
    94e5:	5aa1 5d61 4f04 5aa1 8a5a b122 635a a15a     Z.]aO.Z..Z."cZ.Z
    94f5:	5ab2 325a b512 635a a12b 5ab2 1263 5aa1     Z.2Z..cZ.+Z..cZ.
    9505:	fd5a b121 635a a1d4 635a b006 61c0 075a     .Z.!cZ..cZ..a..Z
    9515:	b101 5ab2 325a 4b06 5ab3 295a a566 5ab5     ..Z.2ZK.Z.)Z.fZ.
    9525:	3263 5ab2 1261 1712 5a40 0d5a b026 5a41     2cZ..a..Z@.Z.&ZA
    9535:	805a a166 5ab1 325a b309 5ab5 1263 5aa1     .Z.fZ.2Z..Z..cZ.
    9545:	3763 5aa1 0a63 5aa1 e05a b131 635a a1bc     7cZ..cZ..Z.1cZ..
    9555:	614e 045a a198 635a b111 5a41 a25a a1e6     aN.Z..cZ..ZA.Z..
    9565:	5ab1 255a b232 5aa5 8a5a b532 635a a1c1     Z.%Z.2Z..Z.2cZ..
    9575:	5ab2 1263 5aa1 9d63 5ab0 065a a17c 635a     Z..cZ..cZ..Z.|cZ
    9585:	a15d 614f 045a a18a 5ab1 2261 4503 5aa1     .]aO.Z..Z."aE.Z.
    9595:	5a61 2d00 5ab2 325a b329 5ab5 1261 4503     Za-.Z.2Z.)Z..aE.
    95a5:	5aa1 2b61 2d00 5ab2 1261 4503 5aa1 fd5a     Z.+a-.Z..aE.Z..Z
    95b5:	b121 635a a1d4 6133 0b5a 4009 5aa0 985a     .!cZ..a3.Z@.Z..Z
    95c5:	b029 612c 005a b101 5a41 805a a166 5ab1     .)a,.Z..ZA.Z.fZ.
    95d5:	325a 4500 5aa2 8a5a b232 5ab3 095a a522     2ZE.Z..Z.2Z..Z."
    95e5:	5ab5 3661 4603 5aa1 3763 5aa1 0a63 5aa1     Z.6aF.Z.7cZ..cZ.
    95f5:	e05a b131 635a a1bc 614e 045a a198 635a     .Z.1cZ..aN.Z..cZ
    9605:	b111 5ab5 1661 8915 5a41 a25a a1e6 5ab1     ..Z..a..ZA.Z..Z.
    9615:	255a b212 5a45 0c5a a243 5ab2 325a b329     %Z..ZE.Z.CZ.2Z.)
    9625:	5aa5 815a b535 635a a1c1 5ab2 1263 5aa1     Z..Z.5cZ..Z..cZ.
    9635:	9d63 5aa1 7c63 5aa1 5d61 4e04 5aa1 8a5a     .cZ.|cZ.]aN.Z..Z
    9645:	b122 635a a15a 5ab2 325a b309 5ab5 1563     ."cZ.ZZ.2Z..Z..c
    9655:	5aa1 2b5a b212 635a a1fd 5ab1 2163 5aa1     Z.+Z..cZ..Z.!cZ.
    9665:	d463 5ab0 0961 c107 5a40 0d5a a081 5ab0     .cZ..a..Z@.Z..Z.
    9675:	295a b101 5a41 805a a166 5ab1 325a a58a     )Z..ZA.Z.fZ.2Z..
    9685:	5ab5 3263 5aa1 3761 4603 5aa1 0a63 5aa1     Z.2cZ.7aF.Z..cZ.
    9695:	e05a b131 614e 045a a1bc 635a a198 635a     .Z.1aN.Z..cZ..cZ
    96a5:	b111 612c 005a b329 5ab5 1261 eb11 5ab0     ..a,.Z.)Z..a..Z.
    96b5:	0963 5a40 0f5a a066 5ab0 265a 41a2 5aa1     .cZ@.Z.fZ.&ZA.Z.
    96c5:	e65a b125 612c 005a b232 5ab3 095a b329     .Z.%a,.Z.2Z..Z.)
    96d5:	5aa5 985a b535 6146 035a a1c1 5ab2 1263     Z..Z.5aF.Z..Z..c
    96e5:	5aa1 9d63 5aa1 7c61 4e04 5ab0 065a a15d     Z..cZ.|aN.Z..Z.]
    96f5:	635a a18a 5ab1 2263 5a40 0c5a a08a 5ab0     cZ..Z."cZ@.Z..Z.
    9705:	265a a15a 5ab2 325a b309 612c 005a b422     &Z.ZZ.2Z..a,.Z."
    9715:	5ab5 1561 4603 5aa1 2b5a b212 635a a1fd     Z..aF.Z.+Z..cZ..
    9725:	5ab1 215a b712 5ab8 1163 5aa1 d461 4f04     Z.!Z..Z..cZ..aO.
    9735:	5ab6 1563 635a b101 5ab3 295a b402 5aa5     Z..ccZ..Z.)Z..Z.
    9745:	e65a b535 6156 0a5a b006 6132 0b5a 400d     .Z.5aV.Z..a2.Z@.
    9755:	5ab0 265a b232 5ab3 095a b515 635a b212     Z.&Z.2Z..Z..cZ..
    9765:	61eb 115a b006 612c 005a a022 5ab0 265a     a..Z..a,.Z."Z.&Z
    9775:	a1e6 5ab1 255a b232 5aa5 225a b532 5a53     ..Z.%Z.2Z."Z.2ZS
    9785:	095a a6e6 5ab6 355a a76c 5ab7 355a a822     .Z..Z.5Z.lZ.5Z."
    9795:	5ab8 3261 4603 5aa1 c161 2c00 5ab2 125a     Z.2aF.Z..a,.Z..Z
    97a5:	a823 6146 035a a19d 635a a17c 614e 045a     .#aF.Z..cZ.|aN.Z
    97b5:	a15d 635a a18a 5ab1 2263 5aa1 5a5a b232     .]cZ..Z."cZ.ZZ.2
    97c5:	612c 005a b512 6146 035a a12b 5ab2 1263     a,.Z..aF.Z.+Z..c
    97d5:	5aa1 fd5a b121 635a a1d4 61c1 075a b006     Z..Z.!cZ..a..Z..
    97e5:	635a b101 5ab2 325a b329 5aa5 665a b532     cZ..Z.2Z.)Z.fZ.2
    97f5:	635a b212 6116 125a 4011 5ac0 0c5a b026     cZ..a..Z@.Z..Z.&
    9805:	5a41 805a a166 5ab1 325a b309 5ab5 1263     ZA.Z.fZ.2Z..Z..c
    9815:	5aa1 3763 5aa1 0a63 5aa1 e05a b131 614f     Z.7cZ..cZ..Z.1aO
    9825:	045a a1bc 635a a198 635a b111 5a41 a25a     .Z..cZ..cZ..ZA.Z
    9835:	a1e6 5ab1 255a b232 5aa5 8a5a b532 635a     ..Z.%Z.2Z..Z.2cZ
    9845:	a1c1 5ab2 1263 5aa1 9d63 5ab0 065a a17c     ..Z..cZ..cZ..Z.|
    9855:	614e 045a a15d 635a a18a 5ab1 2263 5aa1     aN.Z.]cZ..Z."cZ.
    9865:	5a5a b232 5ab3 295a b512 6146 035a a12b     ZZ.2Z.)Z..aF.Z.+
    9875:	612c 005a b212 6146 035a a1fd 5ab1 2163     a,.Z..aF.Z..Z.!c
    9885:	5aa1 d461 330b 5a40 075a c008 5aa0 985a     Z..a3.Z@.Z..Z..Z
    9895:	b029 612c 005a b101 5a41 805a a166 5ab1     .)a,.Z..ZA.Z.fZ.
    98a5:	325a 4500 5aa2 8a5a b232 5ab3 095a a522     2ZE.Z..Z.2Z..Z."
    98b5:	5ab5 3661 4603 5aa1 3763 5aa1 0a63 5aa1     Z.6aF.Z.7cZ..cZ.
    98c5:	e05a b131 614e 045a a1bc 635a a198 635a     .Z.1aN.Z..cZ..cZ
    98d5:	b111 5ab5 1661 8915 5a41 a25a a1e6 5ab1     ..Z..a..ZA.Z..Z.
    98e5:	255a b212 5a45 0c5a a243 5ab2 325a b329     %Z..ZE.Z.CZ.2Z.)
    98f5:	5aa5 815a b535 635a a1c1 5ab2 1263 5aa1     Z..Z.5cZ..Z..cZ.
    9905:	9d63 5aa1 7c61 4e04 5ab0 095a a15d 635a     .cZ.|aN.Z..Z.]cZ
    9915:	a18a 5ab1 2263 5a40 0a5a c00a 5aa0 815a     ..Z."cZ@.Z..Z..Z
    9925:	b029 5aa1 5a5a b232 5ab3 095a b515 635a     .)Z.ZZ.2Z..Z..cZ
    9935:	a12b 5ab2 1263 5aa1 fd5a b121 635a a1d4     .+Z..cZ..Z.!cZ..
    9945:	6133 0b5a b101 5a41 805a a166 5ab1 325a     a3.Z..ZA.Z.fZ.2Z
    9955:	a58a 5ab5 3263 5aa1 3763 5aa1 0a63 5ab0     ..Z.2cZ.7cZ..cZ.
    9965:	095a a1e0 5ab1 3161 2204 5aa1 bc63 5aa1     .Z..Z.1a".Z..cZ.
    9975:	9863 5ab1 1161 2c00 5aa1 665a b132 5ab3     .cZ..a,.Z.fZ.2Z.
    9985:	295a b512 5ab6 155a b715 5ab8 1261 4603     )Z..Z..Z..Z..aF.
    9995:	5aa1 3763 5aa1 0a63 5aa1 e05a b131 614f     Z.7cZ..cZ..Z.1aO
    99a5:	045a a1bc 635a a198 635a b111 5a41 a25a     .Z..cZ..cZ..ZA.Z
    99b5:	a1e6 5ab1 255a b232 612c 005a b309 5ab3     ..Z.%Z.2a,.Z..Z.
    99c5:	295a b422 5aa5 665a b536 5a53 0c5a a6cb     )Z."Z.fZ.6ZS.Z..
    99d5:	5ab6 355a 540d 5ab7 355a 550d 5aa8 225a     Z.5ZT.Z.5ZU.Z."Z
    99e5:	b832 6146 035a a1c1 5ab2 125a a823 635a     .2aF.Z..Z..Z.#cZ
    99f5:	a19d 635a a17c 614e 045a a15d 635a a18a     ..cZ.|aN.Z.]cZ..
    9a05:	5ab1 2263 5aa1 5a5a b232 5ab3 095a b402     Z."cZ.ZZ.2Z..Z..
    9a15:	5ab5 1663 5aa1 2b5a b212 635a a1fd 5ab1     Z..cZ.+Z..cZ..Z.
    9a25:	2163 5aa1 d461 330b 5ab1 015a b232 5ab4     !cZ..a3.Z..Z.2Z.
    9a35:	225a a522 5ab5 3663 5ab2 1261 1612 5ab2     "Z."Z.6cZ..a..Z.
    9a45:	325a b329 5ab4 025a b516 635a b212 61ea     2Z.)Z..Z..cZ..a.
    9a55:	115a 400e 612d 005a a022 5ab0 265a a1e6     .Z@.a-.Z."Z.&Z..
    9a65:	5ab1 255a b232 5ab3 095a b532 5a53 0a5a     Z.%Z.2Z..Z.2ZS.Z
    9a75:	a600 5ab6 005a a698 5ab6 355a 540b 5aa7     ..Z..Z..Z.5ZT.Z.
    9a85:	005a b700 5aa7 8a5a b732 612c 005a b812     .Z..Z..Z.2a,.Z..
    9a95:	5a55 0b5a a822 5ab8 3261 1903 5aa1 c161     ZU.Z."Z.2a..Z..a
    9aa5:	2d00 5ab2 125a a823 6145 035a a19d 5aa7     -.Z..Z.#aE.Z..Z.
    9ab5:	8b61 4f04 5aa1 7c63 5aa1 5d63 5aa1 8a5a     .aO.Z.|cZ.]cZ..Z
    9ac5:	b122 635a a15a 5ab2 3261 2c00 5ab5 1261     ."cZ.ZZ.2a,.Z..a
    9ad5:	4603 5aa1 2b5a b212 635a a1fd 5ab1 2161     F.Z.+Z..cZ..Z.!a
    9ae5:	4e04 5aa1 d463 5ab0 0663 635a b101 5ab2     N.Z..cZ..ccZ..Z.
    9af5:	325a 4b05 5ab3 295a a566 5ab5 3263 5ab2     2ZK.Z.)Z.fZ.2cZ.
    9b05:	1261 1712 5a40 0f5a b026 5a41 805a a166     .a..Z@.Z.&ZA.Z.f
    9b15:	5ab1 325a b309 5ab5 1263 5aa1 3763 5aa1     Z.2Z..Z..cZ.7cZ.
    9b25:	0a61 4e04 5aa1 e05a b131 635a a1bc 635a     .aN.Z..Z.1cZ..cZ
    9b35:	a198 635a b111 5a41 a25a a1e6 5ab1 255a     ..cZ..ZA.Z..Z.%Z
    9b45:	b232 5aa5 8a5a b532 5ab8 1263 5aa1 c15a     .2Z..Z.2Z..cZ..Z
    9b55:	b212 635a b006 5aa1 9d61 4f04 5aa1 7c63     ..cZ..Z..aO.Z.|c
    9b65:	5aa1 5d63 5aa1 8a5a b122 635a a15a 5ab2     Z.]cZ..Z."cZ.ZZ.
    9b75:	325a b329 5ab5 1261 4603 5aa1 2b61 2c00     2Z.)Z..aF.Z.+a,.
    9b85:	5ab2 1261 4603 5aa1 fd5a b121 614e 045a     Z..aF.Z..Z.!aN.Z
    9b95:	a1d4 6156 0a5a 400a 5aa0 985a b029 612c     ..aV.Z@.Z..Z.)a,
    9ba5:	005a b101 5a41 805a a166 5ab1 325a 4500     .Z..ZA.Z.fZ.2ZE.
    9bb5:	5aa2 8a5a b232 5ab3 095a a522 5ab5 3661     Z..Z.2Z..Z."Z.6a
    9bc5:	4603 5aa1 3763 5aa1 0a61 4f04 5aa1 e05a     F.Z.7cZ..aO.Z..Z
    9bd5:	b131 635a a1bc 635a a198 635a b111 5ab5     .1cZ..cZ..cZ..Z.
    9be5:	1661 8815 5a41 a25a a1e6 5ab1 255a b212     .a..ZA.Z..Z.%Z..
    9bf5:	5a45 0c5a a243 5ab2 325a b329 5aa5 8161     ZE.Z.CZ.2Z.)Z..a
    9c05:	2c00 5ab5 3561 4603 5aa1 c15a b212 635a     ,.Z.5aF.Z..Z..cZ
    9c15:	a19d 614f 045a a17c 635a a15d 635a a18a     ..aO.Z.|cZ.]cZ..
    9c25:	5ab1 2263 5aa1 5a5a b232 5ab3 095a b515     Z."cZ.ZZ.2Z..Z..
    9c35:	635a a12b 5ab2 1263 5aa1 fd5a b121 614e     cZ.+Z..cZ..Z.!aN
    9c45:	045a b009 5aa1 d461 560a 5a40 0e5a a081     .Z..Z..aV.Z@.Z..
    9c55:	5ab0 295a b101 5a41 805a a166 5ab1 325a     Z.)Z..ZA.Z.fZ.2Z
    9c65:	a58a 5ab5 3263 5aa1 3763 5aa1 0a61 2304     ..Z.2cZ.7cZ..a#.
    9c75:	5aa1 e061 2c00 5ab1 3161 4603 5aa1 bc63     Z..a,.Z.1aF.Z..c
    9c85:	5aa1 9863 5ab1 1161 2c00 5ab3 295a b512     Z..cZ..a,.Z.)Z..
    9c95:	6178 0e5a b009 6363 5a40 125a c00c 5aa0     ax.Z..ccZ@.Z..Z.
    9ca5:	665a b026 5a41 a25a a1e6 5ab1 2561 2c00     fZ.&ZA.Z..Z.%a,.
    9cb5:	5ab2 325a b309 5ab3 295a a598 5ab5 3561     Z.2Z..Z.)Z..Z.5a
    9cc5:	4603 5aa1 c15a b212 635a a19d 614f 045a     F.Z..Z..cZ..aO.Z
    9cd5:	a17c 635a b006 5aa1 5d63 5aa1 8a5a b122     .|cZ..Z.]cZ..Z."
    9ce5:	635a 400e 5ac0 0a5a a08a 5ab0 265a a15a     cZ@.Z..Z..Z.&Z.Z
    9cf5:	5ab2 325a b309 612c 005a b515 6146 035a     Z.2Z..a,.Z..aF.Z
    9d05:	a12b 5ab2 1263 5aa1 fd5a b121 614e 045a     .+Z..cZ..Z.!aN.Z
    9d15:	a1d4 6156 0a5a b101 5ab3 295a a5e6 5ab5     ..aV.Z..Z.)Z..Z.
    9d25:	3561 330b 5ab0 0661 560a 5ab0 265a b232     5a3.Z..aV.Z.&Z.2
    9d35:	5ab3 095a b515 5ab6 155a b712 635a b212     Z..Z..Z..Z..cZ..
    9d45:	6132 0b5a b006 61b8 065a 4013 612c 005a     a2.Z..a..Z@.a,.Z
    9d55:	c00c 5aa0 225a b026 5aa1 e65a b125 5ab2     ..Z."Z.&Z..Z.%Z.
    9d65:	325a a522 5ab5 325a 5309 5ab6 355a a766     2Z."Z.2ZS.Z.5Z.f
    9d75:	5ab7 325a 550a 5aa8 e65a b831 6146 035a     Z.2ZU.Z..Z.1aF.Z
    9d85:	a1c1 612c 005a b212 5aa7 6761 4603 5aa1     ..a,.Z..Z.gaF.Z.
    9d95:	9d61 4f04 5aa1 7c63 5aa1 5d63 5aa1 8a5a     .aO.Z.|cZ.]cZ..Z
    9da5:	b122 635a a15a 5ab2 3261 2c00 5ab5 1261     ."cZ.ZZ.2a,.Z..a
    9db5:	4603 5aa1 2b5a b212 635a a1fd 5ab1 2161     F.Z.+Z..cZ..Z.!a
    9dc5:	4e04 5aa1 d461 560a 5ab0 065a b101 5ab2     N.Z..aV.Z..Z..Z.
    9dd5:	325a b329 612c 005a a566 5ab5 3261 4603     2Z.)a,.Z.fZ.2aF.
    9de5:	5ab2 1261 1712 5a40 115a b026 5a41 805a     Z..a..Z@.Z.&ZA.Z
    9df5:	a166 5ab1 325a b309 5ab5 1263 5aa1 3763     .fZ.2Z..Z..cZ.7c
    9e05:	5aa1 0a61 4e04 5aa1 e05a b131 635a a1bc     Z..aN.Z..Z.1cZ..
    9e15:	635a a198 635a b111 5a41 a25a a1e6 5ab1     cZ..cZ..ZA.Z..Z.
    9e25:	255a b232 5aa5 8a5a b532 635a a1c1 5ab2     %Z.2Z..Z.2cZ..Z.
    9e35:	1263 5aa1 9d61 4f04 5aa1 7c63 5ab0 065a     .cZ..aO.Z.|cZ..Z
    9e45:	a15d 635a a18a 5ab1 2263 5aa1 5a5a b232     .]cZ..Z."cZ.ZZ.2
    9e55:	5ab3 295a b512 6146 035a a12b 612c 005a     Z.)Z..aF.Z.+a,.Z
    9e65:	b212 6122 045a a1fd 5ab1 2163 5aa1 d461     ..a".Z..Z.!cZ..a
    9e75:	560a 5a40 0c5a c00a 5aa0 985a b029 612c     V.Z@.Z..Z..Z.)a,
    9e85:	005a b101 5a41 805a a166 5ab1 325a 4500     .Z..ZA.Z.fZ.2ZE.
    9e95:	5aa2 8a5a b232 5ab3 095a a522 5ab5 3661     Z..Z.2Z..Z."Z.6a
    9ea5:	4603 5aa1 3761 4f04 5aa1 0a63 5aa1 e05a     F.Z.7aO.Z..cZ..Z
    9eb5:	b131 635a a1bc 635a a198 635a b111 5ab5     .1cZ..cZ..cZ..Z.
    9ec5:	1661 8815 5a41 a25a a1e6 5ab1 255a b212     .a..ZA.Z..Z.%Z..
    9ed5:	5a45 0c5a a243 5ab2 325a b329 5aa5 8161     ZE.Z.CZ.2Z.)Z..a
    9ee5:	2c00 5ab5 3561 4603 5aa1 c15a b212 614f     ,.Z.5aF.Z..Z..aO
    9ef5:	045a a19d 635a a17c 635a a15d 635a a18a     .Z..cZ.|cZ.]cZ..
    9f05:	5ab1 2263 5aa1 5a5a b232 5ab3 095a b515     Z."cZ.ZZ.2Z..Z..
    9f15:	635a a12b 5ab2 1261 4e04 5aa1 fd5a b121     cZ.+Z..aN.Z..Z.!
    9f25:	635a a1d4 635a b009 6363 5aa0 815a b029     cZ..cZ..ccZ..Z.)
    9f35:	5ab1 015a 4180 5aa1 665a b132 5aa5 8a5a     Z..ZA.Z.fZ.2Z..Z
    9f45:	b532 635a a137 614f 045a a10a 6145 035a     .2cZ.7aO.Z..aE.Z
    9f55:	a1e0 612d 005a b131 6145 035a a1bc 635a     ..a-.Z.1aE.Z..cZ
    9f65:	a198 635a b111 612d 005a b329 5ab5 1261     ..cZ..a-.Z.)Z..a
    9f75:	5c15 5ab0 095a 4010 5ac0 0c5a a066 5ab0     \.Z..Z@.Z..Z.fZ.
    9f85:	265a 41a2 5aa1 e661 2c00 5ab1 255a b232     &ZA.Z..a,.Z.%Z.2
    9f95:	5ab3 095a b329 5aa5 985a b535 6146 035a     Z..Z.)Z..Z.5aF.Z
    9fa5:	a1c1 5ab2 1261 4e04 5aa1 9d63 5aa1 7c63     ..Z..aN.Z..cZ.|c
    9fb5:	5aa1 5d63 5ab0 065a a18a 5ab1 2263 5a40     Z.]cZ..Z..Z."cZ@
    9fc5:	0d5a c00a 5aa0 8a5a b026 5aa1 5a5a b232     .Z..Z..Z.&Z.ZZ.2
    9fd5:	5ab3 0961 2d00 5ab5 1561 4503 5aa1 2b5a     Z..a-.Z..aE.Z.+Z
    9fe5:	b212 614f 045a a1fd 5ab1 2163 5aa1 d461     ..aO.Z..Z.!cZ..a
    9ff5:	560a 5ab1 015a b329 5aa5 e65a b535 6132     V.Z..Z.)Z..Z.5a2
    a005:	0b5a b006 6363 5ab8 1163 5ab0 265a b309     .Z..ccZ..cZ.&Z..
    a015:	5ab5 155a b615 635a b712 6133 0b5a b006     Z..Z..cZ..a3.Z..
    a025:	61b8 065a 400e 612c 005a a022 5ab0 265a     a..Z@.a,.Z."Z.&Z
    a035:	a1e6 5ab1 255a b232 5aa5 225a b532 5a53     ..Z.%Z.2Z."Z.2ZS
    a045:	0a5a a66c 5ab6 355a 540a 5aa7 225a b732     .Z.lZ.5ZT.Z."Z.2
    a055:	5a55 0c5a a8cb 5ab8 3161 4603 5aa1 c161     ZU.Z..Z.1aF.Z..a
    a065:	2c00 5ab2 125a a723 6122 045a a19d 635a     ,.Z..Z.#a".Z..cZ
    a075:	a17c 635a a15d 635a a18a 5ab1 2263 5aa1     .|cZ.]cZ..Z."cZ.
    a085:	5a5a b232 612c 005a b512 6146 035a a12b     ZZ.2a,.Z..aF.Z.+
    a095:	5ab2 1261 4f04 5aa1 fd5a b121 635a a1d4     Z..aO.Z..Z.!cZ..
    a0a5:	635a b006 6363 5ab1 015a b232 5a4b 065a     cZ..ccZ..Z.2ZK.Z
    a0b5:	b329 5aa5 665a b532 635a b212 6116 125a     .)Z.fZ.2cZ..a..Z
    a0c5:	400d 5ab0 265a 4180 5aa1 665a b132 5ab3     @.Z.&ZA.Z.fZ.2Z.
    a0d5:	095a b512 635a a137 614f 045a a10a 635a     .Z..cZ.7aO.Z..cZ
    a0e5:	a1e0 5ab1 3163 5aa1 bc63 5aa1 9863 5ab1     ..Z.1cZ..cZ..cZ.
    a0f5:	115a 41a2 5aa1 e65a b125 5ab2 325a a58a     .ZA.Z..Z.%Z.2Z..
    a105:	5ab5 3263 5aa1 c15a b212 614e 045a a19d     Z.2cZ..Z..aN.Z..
    a115:	635a b006 5aa1 7c63 5aa1 5d63 5aa1 8a5a     cZ..Z.|cZ.]cZ..Z
    a125:	b122 635a a15a 5ab2 325a b329 5ab5 1263     ."cZ.ZZ.2Z.)Z..c
    a135:	5aa1 2b5a b212 6123 045a a1fd 612c 005a     Z.+Z..a#.Z..a,.Z
    a145:	b121 6146 035a a1d4 6156 0a5a 4009 5aa0     .!aF.Z..aV.Z@.Z.
    a155:	985a b029 612c 005a b101 5a41 805a a166     .Z.)a,.Z..ZA.Z.f
    a165:	5ab1 325a 4500 5aa2 8a5a b232 5ab3 095a     Z.2ZE.Z..Z.2Z..Z
    a175:	a522 5ab5 3661 4603 5aa1 3761 4e04 5aa1     ."Z.6aF.Z.7aN.Z.
    a185:	0a63 5aa1 e05a b131 635a a1bc 635a a198     .cZ..Z.1cZ..cZ..
    a195:	635a b111 5ab5 1661 8915 5a41 a25a a1e6     cZ..Z..a..ZA.Z..
    a1a5:	5ab1 255a b212 5a45 0c5a a243 5ab2 325a     Z.%Z..ZE.Z.CZ.2Z
    a1b5:	b329 5aa5 815a b535 635a a1c1 5ab2 1261     .)Z..Z.5cZ..Z..a
    a1c5:	4e04 5aa1 9d63 5aa1 7c63 5aa1 5d63 5aa1     N.Z..cZ.|cZ.]cZ.
    a1d5:	8a5a b122 635a a15a 5ab2 325a b309 5ab5     .Z."cZ.ZZ.2Z..Z.
    a1e5:	1563 5aa1 2b5a b212 614f 045a a1fd 5ab1     .cZ.+Z..aO.Z..Z.
    a1f5:	2163 5aa1 d463 5ab0 0963 635a 400d 5aa0     !cZ..cZ..ccZ@.Z.
    a205:	815a b029 5ab1 015a 4180 5aa1 665a b132     .Z.)Z..ZA.Z.fZ.2
    a215:	5aa5 8a5a b532 635a a137 614e 045a a10a     Z..Z.2cZ.7aN.Z..
    a225:	635a a1e0 5ab1 3161 4603 5aa1 bc63 5aa1     cZ..Z.1aF.Z..cZ.
    a235:	9863 5ab1 1161 2c00 5ab3 295a b512 61eb     .cZ..a,.Z.)Z..a.
    a245:	115a b009 635a 400f 5aa0 665a b026 5a41     .Z..cZ@.Z.fZ.&ZA
    a255:	a25a a1e6 5ab1 2561 2c00 5ab2 325a b309     .Z..Z.%a,.Z.2Z..
    a265:	5ab3 295a a598 5ab5 3561 2204 5aa1 c15a     Z.)Z..Z.5a".Z..Z
    a275:	b212 635a a19d 635a a17c 635a b006 5aa1     ..cZ..cZ.|cZ..Z.
    a285:	5d63 5aa1 8a5a b122 635a 400c 5aa0 8a5a     ]cZ..Z."cZ@.Z..Z
    a295:	b026 5aa1 5a5a b232 5ab3 0961 2c00 5ab5     .&Z.ZZ.2Z..a,.Z.
    a2a5:	1561 2304 5aa1 2b5a b212 635a a1fd 5ab1     .a#.Z.+Z..cZ..Z.
    a2b5:	2163 5aa1 d461 560a 5ab1 015a b329 5aa5     !cZ..aV.Z..Z.)Z.
    a2c5:	e65a b535 61c0 075a b712 5ab8 1163 5ab0     .Z.5a..Z..Z..cZ.
    a2d5:	0663 5ab6 1563 635a 400d 5ab0 265a b232     .cZ..ccZ@.Z.&Z.2
    a2e5:	5ab3 095a b515 614f 045a b212 613a 115a     Z..Z..aO.Z..a:.Z
    a2f5:	b006 5aa0 225a b026 5aa1 e65a b125 5ab2     ..Z."Z.&Z..Z.%Z.
    a305:	325a a522 5ab5 325a 530c 5aa6 985a b635     2Z."Z.2ZS.Z..Z.5
    a315:	5aa7 8a5a b732 6122 045a a1c1 612c 005a     Z..Z.2a".Z..a,.Z
    a325:	b212 5aa7 8b61 4603 5aa1 9d63 5aa1 7c63     ..Z..aF.Z..cZ.|c
    a335:	5aa1 5d63 5aa1 8a5a b122 635a a15a 5ab2     Z.]cZ..Z."cZ.ZZ.
    a345:	3261 2c00 5ab5 1261 2304 5aa1 2b5a b212     2a,.Z..a#.Z.+Z..
    a355:	635a a1fd 5ab1 2163 5aa1 d463 635a b006     cZ..Z.!cZ..ccZ..
    a365:	635a b101 5ab2 325a b329 5aa5 6661 2c00     cZ..Z.2Z.)Z.fa,.
    a375:	5ab5 3261 2204 5ab2 1261 3a11 5a40 115a     Z.2a".Z..a:.Z@.Z
    a385:	c00c 5ab0 265a 4180 5aa1 665a b132 5ab3     ..Z.&ZA.Z.fZ.2Z.
    a395:	095a b512 614f 045a a137 635a a10a 635a     .Z..aO.Z.7cZ..cZ
    a3a5:	a1e0 5ab1 3163 5aa1 bc63 5aa1 9863 5ab1     ..Z.1cZ..cZ..cZ.
    a3b5:	115a 41a2 5aa1 e65a b125 5ab2 325a a58a     .ZA.Z..Z.%Z.2Z..
    a3c5:	5ab5 3261 4e04 5aa1 c15a b212 635a a19d     Z.2aN.Z..Z..cZ..
    a3d5:	635a b006 5aa1 7c63 5aa1 5d63 5aa1 8a5a     cZ..Z.|cZ.]cZ..Z
    a3e5:	b122 635a a15a 5ab2 325a b329 5ab5 1261     ."cZ.ZZ.2Z.)Z..a
    a3f5:	4f04 5aa1 2b5a b212 6145 035a a1fd 612d     O.Z.+Z..aE.Z..a-
    a405:	005a b121 6145 035a a1d4 6156 0a5a 4007     .Z.!aE.Z..aV.Z@.
    a415:	5ac0 085a a098 5ab0 2961 2d00 5ab1 015a     Z..Z..Z.)a-.Z..Z
    a425:	4180 5aa1 665a b132 5a45 005a a28a 5ab2     A.Z.fZ.2ZE.Z..Z.
    a435:	325a b309 5aa5 225a b536 6122 045a a137     2Z..Z."Z.6a".Z.7
    a445:	635a a10a 635a a1e0 5ab1 3163 5aa1 bc63     cZ..cZ..Z.1cZ..c
    a455:	5aa1 9863 5ab1 115a b516 6188 155a 41a2     Z..cZ..Z..a..ZA.
    a465:	5aa1 e65a b125 5ab2 125a 450c 5aa2 435a     Z..Z.%Z..ZE.Z.CZ
    a475:	b232 5ab3 2961 2d00 5aa5 815a b535 6122     .2Z.)a-.Z..Z.5a"
    a485:	045a a1c1 5ab2 1263 5aa1 9d63 5aa1 7c63     .Z..Z..cZ..cZ.|c
    a495:	5ab0 095a a15d 635a a18a 5ab1 2263 5a40     Z..Z.]cZ..Z."cZ@
    a4a5:	0a5a c00a 5aa0 815a b029 5aa1 5a5a b232     .Z..Z..Z.)Z.ZZ.2
    a4b5:	5ab3 095a b515 614e 045a a12b 5ab2 1263     Z..Z..aN.Z.+Z..c
    a4c5:	5aa1 fd5a b121 635a a1d4 6156 0a5a b101     Z..Z.!cZ..aV.Z..
    a4d5:	5a41 805a a166 5ab1 325a a58a 5ab5 3261     ZA.Z.fZ.2Z..Z.2a
    a4e5:	4f04 5aa1 3763 5aa1 0a63 5ab0 095a a1e0     O.Z.7cZ..cZ..Z..
    a4f5:	5ab1 3161 4603 5aa1 bc63 5aa1 9863 5ab1     Z.1aF.Z..cZ..cZ.
    a505:	1161 2c00 5aa1 665a b132 5ab3 295a b512     .a,.Z.fZ.2Z.)Z..
    a515:	6122 045a a137 635a a10a 635a a1e0 5ab1     a".Z.7cZ..cZ..Z.
    a525:	3163 5aa1 bc63 5aa1 9863 5ab1 115a 41a2     1cZ..cZ..cZ..ZA.
    a535:	5aa1 e65a b125 612c 005a b232 5ab3 095a     Z..Z.%a,.Z.2Z..Z
    a545:	b329 5aa5 665a b536 6123 045a a1c1 5ab2     .)Z.fZ.6a#.Z..Z.
    a555:	1263 5aa1 9d63 5aa1 7c63 5aa1 5d63 5aa1     .cZ..cZ.|cZ.]cZ.
    a565:	8a5a b122 635a a15a 5ab2 325a b309 5ab5     .Z."cZ.ZZ.2Z..Z.
    a575:	1661 4e04 5aa1 2b5a b212 635a a1fd 5ab1     .aN.Z.+Z..cZ..Z.
    a585:	2163 5aa1 d461 560a 5ab1 015a b232 5aa5     !cZ..aV.Z..Z.2Z.
    a595:	225a b536 5ab6 155a b712 614f 045a b212     "Z.6Z..Z..aO.Z..
    a5a5:	613a 115a b232 5ab3 295a b516 614e 045a     a:.Z.2Z.)Z..aN.Z
    a5b5:	b212 61eb 115a 400e 612c 005a a022 5ab0     ..a..Z@.a,.Z."Z.
    a5c5:	265a b309 5ac5 0e5a ea02 5a6a 835a 8a08     &Z..Z..Z..Zj.Z..
    a5d5:	5a2a d45a ed02 5a6d 785a 8da7 5a2d c25a     Z*.Z..ZmxZ..Z-.Z
    a5e5:	4a03 5aa5 665a b52e 615c 155a b50e 5a4a     J.Z.fZ..a\.Z..ZJ
    a5f5:	075a a58a 5ab5 2e61 c80d 5ab0 0661 c107     .Z..Z..a..Z..a..
    a605:	5ab5 0e5a 4a03 5aa5 985a b535 6188 155a     Z..ZJ.Z..Z.5a..Z
    a615:	400f 5ab0 265a b515 5a4a 065a a581 5ab5     @.Z.&Z..ZJ.Z..Z.
    a625:	3561 8915 5ab5 155a a58a 5ab5 3263 635a     5a..Z..Z..Z.2ccZ
    a635:	b006 61a4 0e5a b512 5a4a 075a a522 5ab5     ..a..Z..ZJ.Z."Z.
    a645:	3261 5d15 5a40 0a5a a098 5ab0 2961 2c00     2a].Z@.Z..Z.)a,.
    a655:	5ab5 125a 4a05 5aa5 985a b531 615c 155a     Z..ZJ.Z..Z.1a\.Z
    a665:	b511 5a4a 075a a58a 5ab5 3261 8915 5ab5     ..ZJ.Z..Z.2a..Z.
    a675:	125a 4a06 5aa5 815a b531 6188 155a b511     .ZJ.Z..Z.1a..Z..
    a685:	5a4a 085a a5cb 5ab5 3161 560a 5ab0 0961     ZJ.Z..Z.1aV.Z..a
    a695:	330b 5a40 0e5a a081 5ab0 295a b511 5a4a     3.Z@.Z..Z.)Z..ZJ
    a6a5:	065a a522 5ab5 3261 5c15 5ab5 1261 2c00     .Z."Z.2a\.Z..a,.
    a6b5:	5a4a 035a a566 5ab5 3261 9c0d 5ab0 0961     ZJ.Z.fZ.2a..Z..a
    a6c5:	c107 5a40 125a c00c 5aa0 665a b026 5ab5     ..Z@.Z..Z.fZ.&Z.
    a6d5:	1261 2c00 5a4a 075a a5cb 5ab5 3161 9c0d     .a,.ZJ.Z..Z.1a..
    a6e5:	5ab0 0661 c007 5a40 0e5a c00a 5aa0 8a5a     Z..a..Z@.Z..Z..Z
    a6f5:	b026 5ab5 115a a58a 5ab5 2e61 8915 5ab5     .&Z..Z..Z..a..Z.
    a705:	0e5a 4a04 5aa5 225a b532 6156 0a5a b006     .ZJ.Z."Z.2aV.Z..
    a715:	6132 0b5a b026 5ab5 125a 4a06 5aa5 985a     a2.Z.&Z..ZJ.Z..Z
    a725:	b531 61c8 0d5a b006 61c1 075a 4013 5ac0     .1a..Z..a..Z@.Z.
    a735:	0c5a a022 5ab0 265a b511 5a4a 035a a566     .Z."Z.&Z..ZJ.Z.f
    a745:	5ab5 2e61 5c15 5ab5 0e5a 4a07 5aa5 8a5a     Z..a\.Z..ZJ.Z..Z
    a755:	b52e 6188 155a b006 5ab5 0e5a 4a03 5aa5     ..a..Z..Z..ZJ.Z.
    a765:	985a b535 6189 155a 4011 5ab0 265a b515     .Z.5a..Z@.Z.&Z..
    a775:	5a4a 065a a581 5ab5 3561 8815 5ab5 155a     ZJ.Z..Z.5a..Z..Z
    a785:	a58a 5ab5 3261 c80d 5ab0 0661 c107 5ab5     ..Z.2a..Z..a..Z.
    a795:	125a 4a07 5aa5 225a b532 615c 155a 400c     .ZJ.Z."Z.2a\.Z@.
    a7a5:	5ac0 0a5a a098 612c 005a b029 5ab5 125a     Z..Z..a,.Z.)Z..Z
    a7b5:	4a05 5aa5 985a b531 615d 155a b511 5a4a     J.Z..Z.1a].Z..ZJ
    a7c5:	075a a58a 5ab5 3261 8815 5ab5 125a 4a06     .Z..Z.2a..Z..ZJ.
    a7d5:	5aa5 815a b531 6189 155a b511 5a4a 085a     Z..Z.1a..Z..ZJ.Z
    a7e5:	a5cb 5ab5 3161 c80d 5ab0 0961 c007 5aa0     ..Z.1a..Z..a..Z.
    a7f5:	815a b029 5ab5 115a 4a06 5aa5 225a b532     .Z.)Z..ZJ.Z."Z.2
    a805:	615d 155a b512 612c 005a 4a03 5aa5 665a     a].Z..a,.ZJ.Z.fZ
    a815:	b532 615c 155a b009 5a40 105a c00c 5aa0     .2a\.Z..Z@.Z..Z.
    a825:	665a b026 612c 005a b512 5a4a 075a a5cb     fZ.&a,.Z..ZJ.Z..
    a835:	5ab5 3161 eb11 5ab0 0663 5a40 0d5a c00a     Z.1a..Z..cZ@.Z..
    a845:	5aa0 8a5a b026 5ab5 115a a58a 5ab5 2e61     Z..Z.&Z..Z..Z..a
    a855:	8815 5ab5 0e5a 4a04 5aa5 225a b532 6156     ..Z..ZJ.Z."Z.2aV
    a865:	0a5a b006 6133 0b5a b026 5ab5 125a 4a06     .Z..a3.Z.&Z..ZJ.
    a875:	5aa5 985a b531 61c8 0d5a b006 61c0 075a     Z..Z.1a..Z..a..Z
    a885:	400e 5aa0 225a b026 5ab5 115a 4a03 5aa5     @.Z."Z.&Z..ZJ.Z.
    a895:	665a b52e 615d 155a b50e 5a4a 075a a58a     fZ..a].Z..ZJ.Z..
    a8a5:	612c 005a b52e 619c 0d5a b006 61c0 075a     a,.Z..a..Z..a..Z
    a8b5:	b50e 5a4a 035a a598 5ab5 3561 8915 5a40     ..ZJ.Z..Z.5a..Z@
    a8c5:	0d5a b026 5ab5 155a 4a06 5aa5 815a b535     .Z.&Z..ZJ.Z..Z.5
    a8d5:	6188 155a b515 5aa5 8a5a b532 6156 0a5a     a..Z..Z..Z.2aV.Z
    a8e5:	b006 6133 0b5a b512 5a4a 075a a522 5ab5     ..a3.Z..ZJ.Z."Z.
    a8f5:	3261 5c15 5a40 095a a098 612c 005a b029     2a\.Z@.Z..a,.Z.)
    a905:	5ab5 125a 4a05 5aa5 985a b531 615d 155a     Z..ZJ.Z..Z.1a].Z
    a915:	b511 5a4a 075a a58a 5ab5 3261 8815 5ab5     ..ZJ.Z..Z.2a..Z.
    a925:	125a 4a06 5aa5 815a b531 6189 155a b511     .ZJ.Z..Z.1a..Z..
    a935:	5a4a 085a a5cb 5ab5 3161 c80d 5ab0 0961     ZJ.Z..Z.1a..Z..a
    a945:	c007 5a40 0d5a a081 5ab0 295a b511 5a4a     ..Z@.Z..Z.)Z..ZJ
    a955:	065a a522 5ab5 3261 5c15 5ab5 1261 2d00     .Z."Z.2a\.Z..a-.
    a965:	5a4a 035a a566 5ab5 3261 ea11 5ab0 0963     ZJ.Z.fZ.2a..Z..c
    a975:	5a40 0f5a a066 5ab0 265a b512 612c 005a     Z@.Z.fZ.&Z..a,.Z
    a985:	4a07 5aa5 cb5a b531 6178 0e5a b006 6363     J.Z..Z.1ax.Z..cc
    a995:	5a40 0c5a a08a 5ab0 265a b511 5aa5 8a5a     Z@.Z..Z.&Z..Z..Z
    a9a5:	b52e 6189 155a b50e 5a4a 045a a522 5ab5     ..a..Z..ZJ.Z."Z.
    a9b5:	3261 560a 5ab0 0661 320b 5a40 0d5a b026     2aV.Z..a2.Z@.Z.&
    a9c5:	5ab5 125a 4a06 5aa5 985a b531 6189 155a     Z..ZJ.Z..Z.1a..Z
    a9d5:	b006 5aa0 225a b026 5ab5 115a 4a03 5aa5     ..Z."Z.&Z..ZJ.Z.
    a9e5:	665a b52e 615c 155a b50e 5a4a 075a a58a     fZ..a\.Z..ZJ.Z..
    a9f5:	612c 005a b52e 61eb 115a b006 635a b50e     a,.Z..a..Z..cZ..
    aa05:	5a4a 035a a598 5ab5 3561 8815 5a40 115a     ZJ.Z..Z.5a..Z@.Z
    aa15:	c00c 5ab0 265a b515 5a4a 065a a581 5ab5     ..Z.&Z..ZJ.Z..Z.
    aa25:	3561 8915 5ab5 155a a58a 5ab5 3261 560a     5a..Z..Z..Z.2aV.
    aa35:	5ab0 0661 320b 5ab5 125a 4a07 5aa5 225a     Z..a2.Z..ZJ.Z."Z
    aa45:	b532 615d 155a 4007 5ac0 0861 2c00 5aa0     .2a].Z@.Z..a,.Z.
    aa55:	985a b029 5ab5 125a 4a05 5aa5 985a b531     .Z.)Z..ZJ.Z..Z.1
    aa65:	615c 155a b511 5a4a 075a a58a 5ab5 3261     a\.Z..ZJ.Z..Z.2a
    aa75:	8915 5ab5 125a 4a06 5aa5 815a b531 61a4     ..Z..ZJ.Z..Z.1a.
    aa85:	0e5a b009 6363 5a40 0a5a c00a 5aa0 815a     .Z..ccZ@.Z..Z..Z
    aa95:	b029 5ab5 115a 4a08 5aa5 cb5a b531 6189     .)Z..ZJ.Z..Z.1a.
    aaa5:	155a b511 5a4a 065a a522 5ab5 3261 560a     .Z..ZJ.Z."Z.2aV.
    aab5:	5ab0 0961 320b 5ab5 125a 4a03 5aa5 665a     Z..a2.Z..ZJ.Z.fZ
    aac5:	b532 615d 155a b512 5a4a 075a a5cb 5ab5     .2a].Z..ZJ.Z..Z.
    aad5:	3161 8815 5ab5 115a a58a 5ab5 2e61 8915     1a..Z..Z..Z..a..
    aae5:	5ab5 0e5a 4a04 5aa5 225a b532 6188 155a     Z..ZJ.Z."Z.2a..Z
    aaf5:	b512 5a4a 065a a598 5ab5 3161 8915 5a40     ..ZJ.Z..Z.1a..Z@
    ab05:	0e5a a022 5ab0 265a a1e6 5ab1 255a b232     .Z."Z.&Z..Z.%Z.2
    ab15:	5ab5 115a 4a03 5aa5 665a b52e 635a a1c1     Z..ZJ.Z.fZ..cZ..
    ab25:	5ab2 1261 4603 5aa1 9d61 4e04 5aa1 7c63     Z..aF.Z..aN.Z.|c
    ab35:	5aa1 5d63 5aa1 8a5a b122 635a a15a 612c     Z.]cZ..Z."cZ.Za,
    ab45:	005a b232 5ab5 0e5a 4a07 5aa5 8a5a b52e     .Z.2Z..ZJ.Z..Z..
    ab55:	6146 035a a12b 5ab2 1263 5aa1 fd5a b121     aF.Z.+Z..cZ..Z.!
    ab65:	614f 045a a1d4 635a b006 6363 5ab1 015a     aO.Z..cZ..ccZ..Z
    ab75:	b232 5a4b 055a b329 612c 005a b50e 5a4a     .2ZK.Z.)a,.Z..ZJ
    ab85:	035a a598 5ab5 3561 4603 5ab2 1261 1612     .Z..Z.5aF.Z..a..
    ab95:	5a40 0f5a b026 5a41 805a a166 5ab1 325a     Z@.Z.&ZA.Z.fZ.2Z
    aba5:	b309 5ab5 155a 4a06 612c 005a a581 5ab5     ..Z..ZJ.a,.Z..Z.
    abb5:	3561 4603 5aa1 3763 5aa1 0a61 4f04 5aa1     5aF.Z.7cZ..aO.Z.
    abc5:	e05a b131 635a a1bc 635a a198 635a b111     .Z.1cZ..cZ..cZ..
    abd5:	5a41 a25a a1e6 5ab1 255a b232 5ab5 155a     ZA.Z..Z.%Z.2Z..Z
    abe5:	a58a 5ab5 3263 5aa1 c15a b212 635a b006     ..Z.2cZ..Z..cZ..
    abf5:	5aa1 9d61 4e04 5aa1 7c63 5aa1 5d63 5aa1     Z..aN.Z.|cZ.]cZ.
    ac05:	8a5a b122 635a a15a 5ab2 325a b329 5ab5     .Z."cZ.ZZ.2Z.)Z.
    ac15:	125a 4a07 5aa5 225a b532 635a a12b 5ab2     .ZJ.Z."Z.2cZ.+Z.
    ac25:	1263 5aa1 fd5a b121 614f 045a a1d4 6129     .cZ..Z.!aO.Z..a)
    ac35:	0a5a 400a 612d 005a a098 5ab0 295a b101     .Z@.a-.Z..Z.)Z..
    ac45:	5a41 805a a166 5ab1 325a 4500 5aa2 8a5a     ZA.Z.fZ.2ZE.Z..Z
    ac55:	b232 5ab3 095a b512 5a4a 055a a598 5ab5     .2Z..Z..ZJ.Z..Z.
    ac65:	3161 4503 5aa1 3763 5aa1 0a61 4f04 5aa1     1aE.Z.7cZ..aO.Z.
    ac75:	e05a b131 635a a1bc 635a a198 635a b111     .Z.1cZ..cZ..cZ..
    ac85:	5ab5 115a 4a07 5aa5 8a5a b532 6188 155a     Z..ZJ.Z..Z.2a..Z
    ac95:	41a2 5aa1 e65a b125 5ab2 125a 450c 5aa2     A.Z..Z.%Z..ZE.Z.
    aca5:	435a b232 5ab3 2961 2d00 5ab5 125a 4a06     CZ.2Z.)a-.Z..ZJ.
    acb5:	5aa5 815a b531 6145 035a a1c1 5ab2 1263     Z..Z.1aE.Z..Z..c
    acc5:	5aa1 9d61 4f04 5aa1 7c63 5aa1 5d63 5aa1     Z..aO.Z.|cZ.]cZ.
    acd5:	8a5a b122 635a a15a 5ab2 325a b309 5ab5     .Z."cZ.ZZ.2Z..Z.
    ace5:	115a 4a08 5aa5 cb5a b531 635a a12b 5ab2     .ZJ.Z..Z.1cZ.+Z.
    acf5:	1263 5aa1 fd5a b121 614e 045a b009 5aa1     .cZ..Z.!aN.Z..Z.
    ad05:	d461 560a 5a40 0e5a a081 5ab0 295a b101     .aV.Z@.Z..Z.)Z..
    ad15:	5a41 805a a166 5ab1 325a b511 5a4a 065a     ZA.Z.fZ.2Z..ZJ.Z
    ad25:	a522 5ab5 3263 5aa1 3763 5aa1 0a61 4f04     ."Z.2cZ.7cZ..aO.
    ad35:	5aa1 e05a b131 635a a1bc 635a a198 635a     Z..Z.1cZ..cZ..cZ
    ad45:	b111 5ab3 295a b512 5a4a 035a a566 5ab5     ..Z.)Z..ZJ.Z.fZ.
    ad55:	3261 780e 5ab0 0963 635a 4012 5ac0 0c5a     2ax.Z..ccZ@.Z..Z
    ad65:	a066 5ab0 265a 41a2 612c 005a a1e6 5ab1     .fZ.&ZA.a,.Z..Z.
    ad75:	255a b232 5ab3 095a b329 5ab5 125a 4a07     %Z.2Z..Z.)Z..ZJ.
    ad85:	5aa5 cb5a b531 6146 035a a1c1 5ab2 1263     Z..Z.1aF.Z..Z..c
    ad95:	5aa1 9d61 4f04 5aa1 7c63 5ab0 065a a15d     Z..aO.Z.|cZ..Z.]
    ada5:	635a a18a 5ab1 2263 5a40 0e5a c00a 5aa0     cZ..Z."cZ@.Z..Z.
    adb5:	8a5a b026 5aa1 5a5a b232 612c 005a b309     .Z.&Z.ZZ.2a,.Z..
    adc5:	5ab5 115a a58a 5ab5 2e61 4603 5aa1 2b5a     Z..Z..Z..aF.Z.+Z
    add5:	b212 635a a1fd 5ab1 2161 4e04 5aa1 d461     ..cZ..Z.!aN.Z..a
    ade5:	560a 5ab1 015a b329 5ab5 0e5a 4a04 5aa5     V.Z..Z.)Z..ZJ.Z.
    adf5:	225a b532 6133 0b5a b006 6156 0a5a b026     "Z.2a3.Z..aV.Z.&
    ae05:	5ab2 325a b309 5ab5 125a 4a06 5aa5 985a     Z.2Z..Z..ZJ.Z..Z
    ae15:	b531 635a b212 6132 0b5a b006 6363 5a40     .1cZ..a2.Z..ccZ@
    ae25:	135a c00c 5aa0 225a b026 5aa1 e65a b125     .Z..Z."Z.&Z..Z.%
    ae35:	5ab2 325a b511 5a4a 035a a566 5ab5 2e63     Z.2Z..ZJ.Z.fZ..c
    ae45:	5aa1 c15a b212 6146 035a a19d 614f 045a     Z..Z..aF.Z..aO.Z
    ae55:	a17c 635a a15d 635a a18a 5ab1 2263 5aa1     .|cZ.]cZ..Z."cZ.
    ae65:	5a61 2c00 5ab2 325a b50e 5a4a 075a a58a     Za,.Z.2Z..ZJ.Z..
    ae75:	5ab5 2e61 4603 5aa1 2b5a b212 635a a1fd     Z..aF.Z.+Z..cZ..
    ae85:	5ab1 2161 4e04 5aa1 d461 560a 5ab0 065a     Z.!aN.Z..aV.Z..Z
    ae95:	b101 5ab2 3261 2c00 5ab3 295a b50e 5a4a     ..Z.2a,.Z.)Z..ZJ
    aea5:	035a a598 5ab5 3561 4603 5ab2 1261 1712     .Z..Z.5aF.Z..a..
    aeb5:	5a40 115a b026 5a41 805a a166 5ab1 325a     Z@.Z.&ZA.Z.fZ.2Z
    aec5:	b309 5ab5 1561 2c00 5a4a 065a a581 5ab5     ..Z..a,.ZJ.Z..Z.
    aed5:	3561 4603 5aa1 3763 5aa1 0a61 4e04 5aa1     5aF.Z.7cZ..aN.Z.
    aee5:	e05a b131 635a a1bc 635a a198 635a b111     .Z.1cZ..cZ..cZ..
    aef5:	5a41 a25a a1e6 5ab1 255a b232 5ab5 155a     ZA.Z..Z.%Z.2Z..Z
    af05:	a58a 5ab5 3263 5aa1 c15a b212 635a a19d     ..Z.2cZ..Z..cZ..
    af15:	614f 045a a17c 635a b006 5aa1 5d63 5aa1     aO.Z.|cZ..Z.]cZ.
    af25:	8a5a b122 635a a15a 5ab2 325a b329 5ab5     .Z."cZ.ZZ.2Z.)Z.
    af35:	125a 4a07 5aa5 225a b532 635a a12b 5ab2     .ZJ.Z."Z.2cZ.+Z.
    af45:	1261 4e04 5aa1 fd5a b121 635a a1d4 612a     .aN.Z..Z.!cZ..a*
    af55:	0a5a 400c 5ac0 0a61 2c00 5aa0 985a b029     .Z@.Z..a,.Z..Z.)
    af65:	5ab1 015a 4180 5aa1 665a b132 5a45 005a     Z..ZA.Z.fZ.2ZE.Z
    af75:	a28a 5ab2 325a b309 5ab5 125a 4a05 5aa5     ..Z.2Z..Z..ZJ.Z.
    af85:	985a b531 6146 035a a137 614f 045a a10a     .Z.1aF.Z.7aO.Z..
    af95:	635a a1e0 5ab1 3163 5aa1 bc63 5aa1 9863     cZ..Z.1cZ..cZ..c
    afa5:	5ab1 115a b511 5a4a 075a a58a 612c 005a     Z..Z..ZJ.Z..a,.Z
    afb5:	b532 615c 155a 41a2 5aa1 e65a b125 5ab2     .2a\.ZA.Z..Z.%Z.
    afc5:	125a 450c 5aa2 435a b232 5ab3 2961 2c00     .ZE.Z.CZ.2Z.)a,.
    afd5:	5ab5 125a 4a06 5aa5 815a b531 6146 035a     Z..ZJ.Z..Z.1aF.Z
    afe5:	a1c1 5ab2 1261 4f04 5aa1 9d63 5aa1 7c63     ..Z..aO.Z..cZ.|c
    aff5:	5aa1 5d63 5aa1 8a5a b122 635a a15a 5ab2     Z.]cZ..Z."cZ.ZZ.
    b005:	325a b309 5ab5 115a 4a08 5aa5 cb5a b531     2Z..Z..ZJ.Z..Z.1
    b015:	635a a12b 5ab2 1261 4e04 5aa1 fd5a b121     cZ.+Z..aN.Z..Z.!
    b025:	635a a1d4 635a b009 6363 5aa0 815a b029     cZ..cZ..ccZ..Z.)
    b035:	5ab1 015a 4180 5aa1 665a b132 5ab5 115a     Z..ZA.Z.fZ.2Z..Z
    b045:	4a06 5aa5 225a b532 635a a137 614f 045a     J.Z."Z.2cZ.7aO.Z
    b055:	a10a 635a a1e0 5ab1 3163 5aa1 bc63 5aa1     ..cZ..Z.1cZ..cZ.
    b065:	9863 5ab1 115a b329 5ab5 125a 4a03 5aa5     .cZ..Z.)Z..ZJ.Z.
    b075:	665a b532 615c 155a b009 5a40 105a c00c     fZ.2a\.Z..Z@.Z..
    b085:	5aa0 6661 2c00 5ab0 265a 41a2 5aa1 e65a     Z.fa,.Z.&ZA.Z..Z
    b095:	b125 5ab2 325a b309 5ab3 295a b512 5a4a     .%Z.2Z..Z.)Z..ZJ
    b0a5:	075a a5cb 5ab5 3161 4603 5aa1 c15a b212     .Z..Z.1aF.Z..Z..
    b0b5:	614f 045a a19d 635a a17c 635a a15d 635a     aO.Z..cZ.|cZ.]cZ
    b0c5:	b006 5aa1 8a5a b122 635a 400d 5ac0 0a5a     ..Z..Z."cZ@.Z..Z
    b0d5:	a08a 5ab0 265a a15a 5ab2 3261 2c00 5ab3     ..Z.&Z.ZZ.2a,.Z.
    b0e5:	095a b511 5aa5 8a5a b52e 6146 035a a12b     .Z..Z..Z..aF.Z.+
    b0f5:	5ab2 1261 4e04 5aa1 fd5a b121 635a a1d4     Z..aN.Z..Z.!cZ..
    b105:	6156 0a5a b101 5ab3 295a b50e 5a4a 045a     aV.Z..Z.)Z..ZJ.Z
    b115:	a522 5ab5 3261 330b 5ab0 0661 560a 5ab0     ."Z.2a3.Z..aV.Z.
    b125:	265a b309 5ab5 125a 4a06 5aa5 985a b531     &Z..Z..ZJ.Z..Z.1
    b135:	61a4 0e5a b006 6363 5a40 0e5a a022 5ab0     a..Z..ccZ@.Z."Z.
    b145:	265a a1e6 5ab1 255a b232 5ab5 115a 4a03     &Z..Z.%Z.2Z..ZJ.
    b155:	5aa5 665a b52e 635a a1c1 5ab2 1261 4f04     Z.fZ..cZ..Z..aO.
    b165:	5aa1 9d61 4503 5aa1 7c63 5aa1 5d63 5aa1     Z..aE.Z.|cZ.]cZ.
    b175:	8a5a b122 635a a15a 612d 005a b232 5ab5     .Z."cZ.Za-.Z.2Z.
    b185:	0e5a 4a07 5aa5 8a5a b52e 6145 035a a12b     .ZJ.Z..Z..aE.Z.+
    b195:	5ab2 1261 4f04 5aa1 fd5a b121 635a a1d4     Z..aO.Z..Z.!cZ..
    b1a5:	635a b006 6363 5ab1 015a b232 5a4b 0661     cZ..ccZ..Z.2ZK.a
    b1b5:	2c00 5ab3 295a b50e 5a4a 035a a598 5ab5     ,.Z.)Z..ZJ.Z..Z.
    b1c5:	3561 4603 5ab2 1261 1612 5a40 0d5a b026     5aF.Z..a..Z@.Z.&
    b1d5:	5a41 805a a166 5ab1 325a b309 5ab5 155a     ZA.Z.fZ.2Z..Z..Z
    b1e5:	4a06 612d 005a a581 5ab5 3561 4503 5aa1     J.a-.Z..Z.5aE.Z.
    b1f5:	3761 4f04 5aa1 0a63 5aa1 e05a b131 635a     7aO.Z..cZ..Z.1cZ
    b205:	a1bc 635a a198 635a b111 5a41 a25a a1e6     ..cZ..cZ..ZA.Z..
    b215:	5ab1 255a b232 5ab5 155a a58a 5ab5 3263     Z.%Z.2Z..Z..Z.2c
    b225:	5aa1 c15a b212 614e 045a a19d 635a b006     Z..Z..aN.Z..cZ..
    b235:	5aa1 7c63 5aa1 5d63 5aa1 8a5a b122 635a     Z.|cZ.]cZ..Z."cZ
    b245:	a15a 5ab2 325a b329 5ab5 125a 4a07 5aa5     .ZZ.2Z.)Z..ZJ.Z.
    b255:	225a b532 635a a12b 5ab2 1261 4f04 5aa1     "Z.2cZ.+Z..aO.Z.
    b265:	fd5a b121 635a a1d4 612a 0a5a 4009 612c     .Z.!cZ..a*.Z@.a,
    b275:	005a a098 5ab0 295a b101 5a41 805a a166     .Z..Z.)Z..ZA.Z.f
    b285:	5ab1 325a 4500 5aa2 8a5a b232 5ab3 095a     Z.2ZE.Z..Z.2Z..Z
    b295:	b512 5a4a 055a a598 5ab5 3161 4603 5aa1     ..ZJ.Z..Z.1aF.Z.
    b2a5:	3761 4e04 5aa1 0a63 5aa1 e05a b131 635a     7aN.Z..cZ..Z.1cZ
    b2b5:	a1bc 635a a198 635a b111 5ab5 115a 4a07     ..cZ..cZ..Z..ZJ.
    b2c5:	5aa5 8a61 2c00 5ab5 3261 5d15 5a41 a25a     Z..a,.Z.2a].ZA.Z
    b2d5:	a1e6 5ab1 255a b212 5a45 0c5a a243 5ab2     ..Z.%Z..ZE.Z.CZ.
    b2e5:	3261 2c00 5ab3 295a b512 5a4a 065a a581     2a,.Z.)Z..ZJ.Z..
    b2f5:	5ab5 3161 4603 5aa1 c15a b212 614e 045a     Z.1aF.Z..Z..aN.Z
    b305:	a19d 635a a17c 635a a15d 635a a18a 5ab1     ..cZ.|cZ.]cZ..Z.
    b315:	2263 5aa1 5a5a b232 5ab3 095a b511 5a4a     "cZ.ZZ.2Z..Z..ZJ
    b325:	085a a5cb 5ab5 3163 5aa1 2b5a b212 614f     .Z..Z.1cZ.+Z..aO
    b335:	045a a1fd 5ab1 2163 5aa1 d463 5ab0 0963     .Z..Z.!cZ..cZ..c
    b345:	635a 400d 5aa0 815a b029 5ab1 015a 4180     cZ@.Z..Z.)Z..ZA.
    b355:	5aa1 665a b132 5ab5 115a 4a06 5aa5 225a     Z.fZ.2Z..ZJ.Z."Z
    b365:	b532 635a a137 614e 045a a10a 635a a1e0     .2cZ.7aN.Z..cZ..
    b375:	5ab1 3163 5aa1 bc63 5aa1 9863 5ab1 115a     Z.1cZ..cZ..cZ..Z
    b385:	b329 5ab5 125a 4a03 5aa5 665a b532 61eb     .)Z..ZJ.Z.fZ.2a.
    b395:	115a b009 635a 400f 5aa0 665a b026 612c     .Z..cZ@.Z.fZ.&a,
    b3a5:	005a 41a2 5aa1 e65a b125 5ab2 325a b309     .ZA.Z..Z.%Z.2Z..
    b3b5:	5ab3 295a b512 5a4a 075a a5cb 5ab5 3161     Z.)Z..ZJ.Z..Z.1a
    b3c5:	2204 5aa1 c15a b212 635a a19d 635a a17c     ".Z..Z..cZ..cZ.|
    b3d5:	635a b006 5aa1 5d63 5aa1 8a5a b122 635a     cZ..Z.]cZ..Z."cZ
    b3e5:	400c 5aa0 8a5a b026 5aa1 5a61 2c00 5ab2     @.Z..Z.&Z.Za,.Z.
    b3f5:	325a b309 5ab5 115a a58a 5ab5 2e61 2304     2Z..Z..Z..Z..a#.
    b405:	5aa1 2b5a b212 635a a1fd 5ab1 2163 5aa1     Z.+Z..cZ..Z.!cZ.
    b415:	d461 560a 5ab1 015a b329 5ab5 0e5a 4a04     .aV.Z..Z.)Z..ZJ.
    b425:	5aa5 225a b532 6132 0b5a b006 6156 0a5a     Z."Z.2a2.Z..aV.Z
    b435:	400d 5ab0 265a b232 5ab3 095a b512 5a4a     @.Z.&Z.2Z..Z..ZJ
    b445:	065a a598 5ab5 3161 4f04 5ab2 1261 3a11     .Z..Z.1aO.Z..a:.
    b455:	5ab0 065a a022 5ab0 265a a1e6 5ab1 255a     Z..Z."Z.&Z..Z.%Z
    b465:	b232 5ab5 115a 4a03 5aa5 665a b52e 614e     .2Z..ZJ.Z.fZ..aN
    b475:	045a a1c1 5ab2 1263 5aa1 9d61 4603 5aa1     .Z..Z..cZ..aF.Z.
    b485:	7c63 5aa1 5d63 5aa1 8a5a b122 635a a15a     |cZ.]cZ..Z."cZ.Z
    b495:	612c 005a b232 5ab5 0e5a 4a07 5aa5 8a5a     a,.Z.2Z..ZJ.Z..Z
    b4a5:	b52e 6123 045a a12b 5ab2 1263 5aa1 fd5a     ..a#.Z.+Z..cZ..Z
    b4b5:	b121 635a a1d4 6363 5ab0 0663 5ab1 015a     .!cZ..ccZ..cZ..Z
    b4c5:	b232 612c 005a b329 5ab5 0e5a 4a03 5aa5     .2a,.Z.)Z..ZJ.Z.
    b4d5:	985a b535 6122 045a b212 613a 115a 4011     .Z.5a".Z..a:.Z@.
    b4e5:	5ac0 0c5a b026 5a41 805a a166 5ab1 325a     Z..Z.&ZA.Z.fZ.2Z
    b4f5:	b309 5ab5 1561 2c00 5a4a 065a a581 5ab5     ..Z..a,.ZJ.Z..Z.
    b505:	3561 2304 5aa1 3763 5aa1 0a63 5aa1 e05a     5a#.Z.7cZ..cZ..Z
    b515:	b131 635a a1bc 635a a198 635a b111 5a41     .1cZ..cZ..cZ..ZA
    b525:	a25a a1e6 5ab1 255a b232 5ab5 155a a58a     .Z..Z.%Z.2Z..Z..
    b535:	5ab5 3261 4e04 5aa1 c15a b212 635a a19d     Z.2aN.Z..Z..cZ..
    b545:	635a b006 5aa1 7c63 5aa1 5d63 5aa1 8a5a     cZ..Z.|cZ.]cZ..Z
    b555:	b122 635a a15a 5ab2 325a b329 5ab5 125a     ."cZ.ZZ.2Z.)Z..Z
    b565:	4a07 5aa5 225a b532 614f 045a a12b 5ab2     J.Z."Z.2aO.Z.+Z.
    b575:	1263 5aa1 fd5a b121 635a a1d4 612a 0a5a     .cZ..Z.!cZ..a*.Z
    b585:	4007 612c 005a c008 5aa0 985a b029 5ab1     @.a,.Z..Z..Z.)Z.
    b595:	015a 4180 5aa1 665a b132 5a45 005a a28a     .ZA.Z.fZ.2ZE.Z..
    b5a5:	5ab2 325a b309 5ab5 125a 4a05 5aa5 985a     Z.2Z..Z..ZJ.Z..Z
    b5b5:	b531 6122 045a a137 635a a10a 635a a1e0     .1a".Z.7cZ..cZ..
    b5c5:	5ab1 3163 5aa1 bc63 5aa1 9863 5ab1 115a     Z.1cZ..cZ..cZ..Z
    b5d5:	b511 5a4a 0761 2c00 5aa5 8a5a b532 615d     ..ZJ.a,.Z..Z.2a]
    b5e5:	155a 41a2 5aa1 e65a b125 5ab2 125a 450c     .ZA.Z..Z.%Z..ZE.
    b5f5:	5aa2 435a b232 5ab3 2961 2c00 5ab5 125a     Z.CZ.2Z.)a,.Z..Z
    b605:	4a06 5aa5 815a b531 6122 045a a1c1 5ab2     J.Z..Z.1a".Z..Z.
    b615:	1263 5aa1 9d63 5aa1 7c63 5ab0 095a a15d     .cZ..cZ.|cZ..Z.]
    b625:	635a a18a 5ab1 2263 5a40 0a5a c00a 5aa0     cZ..Z."cZ@.Z..Z.
    b635:	815a b029 5aa1 5a5a b232 5ab3 095a b511     .Z.)Z.ZZ.2Z..Z..
    b645:	5a4a 0861 2c00 5aa5 cb5a b531 6123 045a     ZJ.a,.Z..Z.1a#.Z
    b655:	a12b 5ab2 1263 5aa1 fd5a b121 635a a1d4     .+Z..cZ..Z.!cZ..
    b665:	6156 0a5a b101 5a41 805a a166 5ab1 325a     aV.Z..ZA.Z.fZ.2Z
    b675:	b511 5a4a 065a a522 5ab5 3261 4e04 5aa1     ..ZJ.Z."Z.2aN.Z.
    b685:	3763 5aa1 0a63 5ab0 095a a1e0 5ab1 3163     7cZ..cZ..Z..Z.1c
    b695:	5aa1 bc63 5aa1 9863 5ab1 115a a166 5ab1     Z..cZ..cZ..Z.fZ.
    b6a5:	325a b329 5ab5 125a 4a03 5aa5 665a b532     2Z.)Z..ZJ.Z.fZ.2
    b6b5:	6122 045a a137 635a a10a 635a a1e0 5ab1     a".Z.7cZ..cZ..Z.
    b6c5:	3163 5aa1 bc63 5aa1 9863 5ab1 115a 41a2     1cZ..cZ..cZ..ZA.
    b6d5:	5aa1 e661 2d00 5ab1 255a b232 5ab3 095a     Z..a-.Z.%Z.2Z..Z
    b6e5:	b329 5ab5 125a 4a07 5aa5 cb5a b531 6122     .)Z..ZJ.Z..Z.1a"
    b6f5:	045a a1c1 5ab2 1263 5aa1 9d63 5aa1 7c63     .Z..Z..cZ..cZ.|c
    b705:	5aa1 5d63 5aa1 8a5a b122 635a a15a 5ab2     Z.]cZ..Z."cZ.ZZ.
    b715:	325a b309 5ab5 1161 2c00 5aa5 8a5a b52e     2Z..Z..a,.Z..Z..
    b725:	6122 045a a12b 5ab2 1263 5aa1 fd5a b121     a".Z.+Z..cZ..Z.!
    b735:	635a a1d4 6156 0a5a b101 5ab2 325a b50e     cZ..aV.Z..Z.2Z..
    b745:	5a4a 045a a522 5ab5 3261 4f04 5ab2 1261     ZJ.Z."Z.2aO.Z..a
    b755:	3a11 5ab2 325a b329 5ab5 125a 4a06 5aa5     :.Z.2Z.)Z..ZJ.Z.
    b765:	985a b531 614e 045a b212 6117 125a 400e     .Z.1aN.Z..a..Z@.
    b775:	5aa0 225a b026 5aa1 e65a b125 5a45 075a     Z."Z.&Z..Z.%ZE.Z
    b785:	b232 5ab3 095a b511 5a4a 035a a566 5ab5     .2Z..Z..ZJ.Z.fZ.
    b795:	2e5a c608 5af0 035a 5040 612c 005a 7012     .Z..Z..ZP@a,.Zp.
    b7a5:	5a90 f45a 3060 5af3 005a 5380 5a73 705a     Z..Z0`Z..ZS.ZspZ
    b7b5:	9303 5a33 215a b631 5ac7 045a f102 5a51     ..Z3!Z.1Z..Z..ZQ
    b7c5:	0e5a 7188 5a91 6f5a 31f2 5af4 025a 5400     .Zq.Z.oZ1.Z..ZT.
    b7d5:	5a74 555a 9428 5a34 e15a a798 612c 005a     ZtUZ.(Z4.Z..a,.Z
    b7e5:	b731 5af2 025a 520f 5a72 f25a 9203 5a32     .1Z..ZR.Zr.Z..Z2
    b7f5:	645a 5500 5a75 f15a 9566 5a35 295a a8b1     dZU.Zu.Z.fZ5)Z..
    b805:	5ab8 3161 1a03 5aa1 c15a b212 5aa7 995a     Z.1a..Z..Z..Z..Z
    b815:	a8ab 635a a19d 5aa7 9a5a a8a5 6146 035a     ..cZ..Z..Z..aF.Z
    b825:	a17c 612c 005a a89f 6146 035a a15d 612c     .|a,.Z..aF.Z.]a,
    b835:	005a a898 6146 035a a18a 5ab1 2261 4e04     .Z..aF.Z..Z."aN.
    b845:	5aa1 5a61 2c00 5ab5 0e5a 4a07 5aa5 8a5a     Z.Za,.Z..ZJ.Z..Z
    b855:	b52e 6146 035a a12b 635a a1fd 5ab1 2163     ..aF.Z.+cZ..Z.!c
    b865:	5aa1 d463 5ab0 0661 c107 5ab1 015a 4b05     Z..cZ..a..Z..ZK.
    b875:	5ab3 295a 4c09 5aa4 6661 2c00 5ab4 265a     Z.)ZL.Z.fa,.Z.&Z
    b885:	b50e 5a4a 035a a598 5ab5 3561 0e11 5ab4     ..ZJ.Z..Z.5a..Z.
    b895:	0661 4e04 5a40 0f5a b026 5a41 805a a166     .aN.Z@.Z.&ZA.Z.f
    b8a5:	5ab1 325a b309 5a4c 0e5a a443 612c 005a     Z.2Z..ZL.Z.Ca,.Z
    b8b5:	b422 5ab5 155a 4a06 5aa5 815a b535 6146     ."Z..ZJ.Z..Z.5aF
    b8c5:	035a a137 635a a10a 635a a1e0 5ab1 3163     .Z.7cZ..cZ..Z.1c
    b8d5:	5aa1 bc63 5aa1 9861 4f04 5ab1 115a 41a2     Z..cZ..aO.Z..ZA.
    b8e5:	5aa1 e65a b125 5a45 0d5a a28a 5ab2 325a     Z..Z.%ZE.Z..Z.2Z
    b8f5:	b402 5ab5 155a a58a 5ab5 3263 5aa1 c163     ..Z..Z..Z.2cZ..c
    b905:	5ab0 065a a19d 635a a17c 635a a15d 635a     Z..Z..cZ.|cZ.]cZ
    b915:	a18a 5ab1 2261 4e04 5aa1 5a5a b329 5ab5     ..Z."aN.Z.ZZ.)Z.
    b925:	125a 4a07 5aa5 225a b532 635a a12b 635a     .ZJ.Z."Z.2cZ.+cZ
    b935:	a1fd 5ab1 2163 5aa1 d461 070b 5a40 0a61     ..Z.!cZ..a..Z@.a
    b945:	2c00 5aa0 985a b029 5ab1 015a 4180 5aa1     ,.Z..Z.)Z..ZA.Z.
    b955:	665a b132 5ab3 095a 4c07 5aa4 665a b426     fZ.2Z..ZL.Z.fZ.&
    b965:	5ab5 125a 4a05 5aa5 985a b531 6146 035a     Z..ZJ.Z..Z.1aF.Z
    b975:	a137 635a a10a 635a a1e0 5ab1 3163 5aa1     .7cZ..cZ..Z.1cZ.
    b985:	bc63 5aa1 9861 4e04 5ab1 115a b511 5a4a     .cZ..aN.Z..Z..ZJ
    b995:	0761 2c00 5aa5 8a5a b532 615d 155a 41a2     .a,.Z..Z.2a].ZA.
    b9a5:	5aa1 e65a b125 5ab2 125a 4507 5aa2 435a     Z..Z.%Z..ZE.Z.CZ
    b9b5:	b232 612c 005a b329 5ab4 065a b512 5a4a     .2a,.Z.)Z..Z..ZJ
    b9c5:	065a a581 5ab5 3161 4603 5aa1 c15a b212     .Z..Z.1aF.Z..Z..
    b9d5:	635a a19d 635a a17c 635a a15d 635a a18a     cZ..cZ.|cZ.]cZ..
    b9e5:	5ab1 2261 4e04 5aa1 5a5a b309 5ab5 115a     Z."aN.Z.ZZ..Z..Z
    b9f5:	4a08 5aa5 cb5a b531 635a a12b 635a a1fd     J.Z..Z.1cZ.+cZ..
    ba05:	5ab1 2163 5ab0 095a a1d4 6133 0b5a 400e     Z.!cZ..Z..a3.Z@.
    ba15:	5aa0 815a b029 5ab1 015a 4180 5aa1 665a     Z..Z.)Z..ZA.Z.fZ
    ba25:	b132 5a4c 065a b426 5ab5 115a 4a06 5aa5     .2ZL.Z.&Z..ZJ.Z.
    ba35:	225a b532 635a a137 635a a10a 635a a1e0     "Z.2cZ.7cZ..cZ..
    ba45:	5ab1 3163 5aa1 bc5a b406 635a a198 614e     Z.1cZ..Z..cZ..aN
    ba55:	045a b111 5ab3 295a 4c0a 5aa4 435a b422     .Z..Z.)ZL.Z.CZ."
    ba65:	5ab5 125a 4a03 5aa5 665a b532 619c 0d5a     Z..ZJ.Z.fZ.2a..Z
    ba75:	b009 612c 005a b611 5ab7 115a b811 6195     ..a,.Z..Z..Z..a.
    ba85:	075a 4012 5ac0 0c5a a066 5ab0 2661 2c00     .Z@.Z..Z.fZ.&a,.
    ba95:	5a41 a25a a1e6 5ab1 255a 4504 5aa2 8a5a     ZA.Z..Z.%ZE.Z..Z
    baa5:	b232 5ab3 095a b329 5ab5 125a 4a07 5aa5     .2Z..Z.)Z..ZJ.Z.
    bab5:	cb5a b531 5a53 825a a66c 5ab6 315a a76c     .Z.1ZS.Z.lZ.1Z.l
    bac5:	5ab7 315a 5211 612c 005a 5502 5aa8 815a     Z.1ZR.a,.ZU.Z..Z
    bad5:	b831 611a 035a a1c1 5aa7 6d61 2c00 5aa8     .1a..Z..Z.ma,.Z.
    bae5:	7c61 4603 5aa1 9d5a b402 612c 005a a877     |aF.Z..Z..a,.Z.w
    baf5:	6146 035a a17c 5aa8 7263 5ab0 065a a15d     aF.Z.|Z.rcZ..Z.]
    bb05:	5aa8 6c63 5aa1 8a5a b122 614e 045a 400e     Z.lcZ..Z."aN.Z@.
    bb15:	5ac0 0a5a a08a 5ab0 265a a15a 5ab3 0961     Z..Z..Z.&Z.ZZ..a
    bb25:	2c00 5a4c 065a b422 5ab5 115a a58a 5ab5     ,.ZL.Z."Z..Z..Z.
    bb35:	2e61 4603 5aa1 2b63 5aa1 fd5a b121 635a     .aF.Z.+cZ..Z.!cZ
    bb45:	a1d4 6133 0b5a b101 5ab3 295a b402 5a4c     ..a3.Z..Z.)Z..ZL
    bb55:	045a a466 5ab4 265a b50e 612c 005a 4a04     .Z.fZ.&Z..a,.ZJ.
    bb65:	5aa5 225a b532 612a 0a5a b006 6132 0b5a     Z."Z.2a*.Z..a2.Z
    bb75:	b026 5ab3 095a b512 5a4a 065a a598 5ab5     .&Z..Z..ZJ.Z..Z.
    bb85:	3161 560a 5ab6 115a b711 5ab8 1163 5ab0     1aV.Z..Z..Z..cZ.
    bb95:	065a b406 61c1 075a 4013 5ac0 0c5a a022     .Z..a..Z@.Z..Z."
    bba5:	5ab0 265a a1e6 5ab1 255a b212 5a45 075a     Z.&Z..Z.%Z..ZE.Z
    bbb5:	a243 5ab2 325a b511 5a4a 035a a566 5ab5     .CZ.2Z..ZJ.Z.fZ.
